---
triple:          'arm64-apple-darwin'
binary-path:     ripser-debug
relocations:
  - { offset: 0x52, size: 0x8, addend: 0x0, symName: __ZL10clear_line, symObjAddr: 0x14CA50, symBinAddr: 0x10003C3F8, symSize: 0x0 }
  - { offset: 0x178AC, size: 0x8, addend: 0x0, symName: __ZNSt3__124__put_character_sequenceB8ne180100IcNS_11char_traitsIcEEEERNS_13basic_ostreamIT_T0_EES7_PKS4_m, symObjAddr: 0x92B8, symBinAddr: 0x10000BE50, symSize: 0x1EC }
  - { offset: 0x19DAD, size: 0x8, addend: 0x0, symName: __ZNSt3__111__introsortINS_17_ClassicAlgPolicyERNS_6__lessIvvEEPNS_4pairIxfEELb0EEEvT1_S8_T0_NS_15iterator_traitsIS8_E15difference_typeEb, symObjAddr: 0x123B0, symBinAddr: 0x100014F48, symSize: 0x434 }
  - { offset: 0x19ED8, size: 0x8, addend: 0x0, symName: __ZNSt3__126__insertion_sort_unguardedB8ne180100INS_17_ClassicAlgPolicyERNS_6__lessIvvEEPNS_4pairIxfEEEEvT1_S8_T0_, symObjAddr: 0x12A9C, symBinAddr: 0x100015634, symSize: 0x120 }
  - { offset: 0x19FC8, size: 0x8, addend: 0x0, symName: __ZNSt3__111__sift_downB8ne180100INS_17_ClassicAlgPolicyERNS_6__lessIvvEEPNS_4pairIxfEEEEvT1_OT0_NS_15iterator_traitsIS8_E15difference_typeES8_, symObjAddr: 0x13DDC, symBinAddr: 0x100016974, symSize: 0x20C }
  - { offset: 0x1A075, size: 0x8, addend: 0x0, symName: __ZNSt3__117__floyd_sift_downB8ne180100INS_17_ClassicAlgPolicyERNS_6__lessIvvEEPNS_4pairIxfEEEET1_S8_OT0_NS_15iterator_traitsIS8_E15difference_typeE, symObjAddr: 0x14184, symBinAddr: 0x100016D1C, symSize: 0x100 }
  - { offset: 0x1A10D, size: 0x8, addend: 0x0, symName: __ZNSt3__131__partition_with_equals_on_leftB8ne180100INS_17_ClassicAlgPolicyEPNS_4pairIxfEERNS_6__lessIvvEEEET0_S8_S8_T1_, symObjAddr: 0x12DC8, symBinAddr: 0x100015960, symSize: 0x20C }
  - { offset: 0x1A1C8, size: 0x8, addend: 0x0, symName: __ZNSt3__118__bitset_partitionB8ne180100INS_17_ClassicAlgPolicyEPNS_4pairIxfEERNS_6__lessIvvEEEENS2_IT0_bEES8_S8_T1_, symObjAddr: 0x12FD4, symBinAddr: 0x100015B6C, symSize: 0x32C }
  - { offset: 0x1A2C4, size: 0x8, addend: 0x0, symName: __ZNSt3__124__swap_bitmap_pos_withinB8ne180100INS_17_ClassicAlgPolicyEPNS_4pairIxfEEEEvRT0_S6_RyS7_, symObjAddr: 0x148D4, symBinAddr: 0x10001746C, symSize: 0x1E0 }
  - { offset: 0x1A391, size: 0x8, addend: 0x0, symName: __ZNSt3__132__partition_with_equals_on_rightB8ne180100INS_17_ClassicAlgPolicyEPNS_4pairIxfEERNS_6__lessIvvEEEENS2_IT0_bEES8_S8_T1_, symObjAddr: 0x13300, symBinAddr: 0x100015E98, symSize: 0x224 }
  - { offset: 0x1A45B, size: 0x8, addend: 0x0, symName: __ZNSt3__127__insertion_sort_incompleteB8ne180100INS_17_ClassicAlgPolicyERNS_6__lessIvvEEPNS_4pairIxfEEEEbT1_S8_T0_, symObjAddr: 0x13524, symBinAddr: 0x1000160BC, symSize: 0x304 }
  - { offset: 0x1B6FF, size: 0x8, addend: 0x0, symName: __ZNSt3__111__introsortINS_17_ClassicAlgPolicyERPFbRKNS_4pairIfxEES5_ENS_16reverse_iteratorINS_11__wrap_iterIPS3_EEEELb0EEEvT1_SE_T0_NS_15iterator_traitsISE_E15difference_typeEb, symObjAddr: 0x1ABEC, symBinAddr: 0x10001D784, symSize: 0x7CC }
  - { offset: 0x1B863, size: 0x8, addend: 0x0, symName: __ZNSt3__126__insertion_sort_unguardedB8ne180100INS_17_ClassicAlgPolicyERPFbRKNS_4pairIfxEES5_ENS_16reverse_iteratorINS_11__wrap_iterIPS3_EEEEEEvT1_SE_T0_, symObjAddr: 0x1B88C, symBinAddr: 0x10001E424, symSize: 0x198 }
  - { offset: 0x1B957, size: 0x8, addend: 0x0, symName: __ZNSt3__111__sift_downB8ne180100INS_17_ClassicAlgPolicyERPFbRKNS_4pairIfxEES5_ENS_16reverse_iteratorINS_11__wrap_iterIPS3_EEEEEEvT1_OT0_NS_15iterator_traitsISE_E15difference_typeESE_, symObjAddr: 0x1D500, symBinAddr: 0x100020098, symSize: 0x2FC }
  - { offset: 0x1BA07, size: 0x8, addend: 0x0, symName: __ZNSt3__117__floyd_sift_downB8ne180100INS_17_ClassicAlgPolicyERPFbRKNS_4pairIfxEES5_ENS_16reverse_iteratorINS_11__wrap_iterIPS3_EEEEEET1_SE_OT0_NS_15iterator_traitsISE_E15difference_typeE, symObjAddr: 0x1DA14, symBinAddr: 0x1000205AC, symSize: 0x158 }
  - { offset: 0x1BAA0, size: 0x8, addend: 0x0, symName: __ZNSt3__131__partition_with_equals_on_leftB8ne180100INS_17_ClassicAlgPolicyENS_16reverse_iteratorINS_11__wrap_iterIPNS_4pairIfxEEEEEERPFbRKS5_SA_EEET0_SE_SE_T1_, symObjAddr: 0x1BDD0, symBinAddr: 0x10001E968, symSize: 0x2B0 }
  - { offset: 0x1BB5F, size: 0x8, addend: 0x0, symName: __ZNSt3__118__bitset_partitionB8ne180100INS_17_ClassicAlgPolicyENS_16reverse_iteratorINS_11__wrap_iterIPNS_4pairIfxEEEEEERPFbRKS5_SA_EEENS4_IT0_bEESE_SE_T1_, symObjAddr: 0x1C080, symBinAddr: 0x10001EC18, symSize: 0x3E4 }
  - { offset: 0x1BC5E, size: 0x8, addend: 0x0, symName: __ZNSt3__124__swap_bitmap_pos_withinB8ne180100INS_17_ClassicAlgPolicyENS_16reverse_iteratorINS_11__wrap_iterIPNS_4pairIfxEEEEEEEEvRT0_SA_RySB_, symObjAddr: 0x1E43C, symBinAddr: 0x100020FD4, symSize: 0x1CC }
  - { offset: 0x1BD2B, size: 0x8, addend: 0x0, symName: __ZNSt3__132__partition_with_equals_on_rightB8ne180100INS_17_ClassicAlgPolicyENS_16reverse_iteratorINS_11__wrap_iterIPNS_4pairIfxEEEEEERPFbRKS5_SA_EEENS4_IT0_bEESE_SE_T1_, symObjAddr: 0x1C464, symBinAddr: 0x10001EFFC, symSize: 0x274 }
  - { offset: 0x1BDF9, size: 0x8, addend: 0x0, symName: __ZNSt3__127__insertion_sort_incompleteB8ne180100INS_17_ClassicAlgPolicyERPFbRKNS_4pairIfxEES5_ENS_16reverse_iteratorINS_11__wrap_iterIPS3_EEEEEEbT1_SE_T0_, symObjAddr: 0x1C6D8, symBinAddr: 0x10001F270, symSize: 0x4A4 }
  - { offset: 0x1C2A9, size: 0x8, addend: 0x0, symName: __ZNSt3__17advanceB8ne180100INS_11__wrap_iterIPKNS_4pairIxfEEEEllvEEvRT_T0_, symObjAddr: 0x22F2C, symBinAddr: 0x100025AC4, symSize: 0x38 }
  - { offset: 0x1E013, size: 0x8, addend: 0x0, symName: __ZNSt3__117__floyd_sift_downB8ne180100INS_17_ClassicAlgPolicyER38greater_diameter_or_smaller_index_compI16diameter_entry_tENS_11__wrap_iterIPS3_EEEET1_S9_OT0_NS_15iterator_traitsIS9_E15difference_typeE, symObjAddr: 0x29D3C, symBinAddr: 0x10002C8D4, symSize: 0x148 }
  - { offset: 0x1E0DD, size: 0x8, addend: 0x0, symName: __ZNSt3__111__introsortINS_17_ClassicAlgPolicyERPFbRKNS_4pairIfxEES5_EPS3_Lb0EEEvT1_SA_T0_NS_15iterator_traitsISA_E15difference_typeEb, symObjAddr: 0x2A4EC, symBinAddr: 0x10002D084, symSize: 0x43C }
  - { offset: 0x1E208, size: 0x8, addend: 0x0, symName: __ZNSt3__126__insertion_sort_unguardedB8ne180100INS_17_ClassicAlgPolicyERPFbRKNS_4pairIfxEES5_EPS3_EEvT1_SA_T0_, symObjAddr: 0x2AB98, symBinAddr: 0x10002D730, symSize: 0x128 }
  - { offset: 0x1E2F8, size: 0x8, addend: 0x0, symName: __ZNSt3__111__sift_downB8ne180100INS_17_ClassicAlgPolicyERPFbRKNS_4pairIfxEES5_EPS3_EEvT1_OT0_NS_15iterator_traitsISA_E15difference_typeESA_, symObjAddr: 0x2BDAC, symBinAddr: 0x10002E944, symSize: 0x21C }
  - { offset: 0x1E3A5, size: 0x8, addend: 0x0, symName: __ZNSt3__117__floyd_sift_downB8ne180100INS_17_ClassicAlgPolicyERPFbRKNS_4pairIfxEES5_EPS3_EET1_SA_OT0_NS_15iterator_traitsISA_E15difference_typeE, symObjAddr: 0x2C164, symBinAddr: 0x10002ECFC, symSize: 0x104 }
  - { offset: 0x1E43D, size: 0x8, addend: 0x0, symName: __ZNSt3__131__partition_with_equals_on_leftB8ne180100INS_17_ClassicAlgPolicyEPNS_4pairIfxEERPFbRKS3_S6_EEET0_SA_SA_T1_, symObjAddr: 0x2AEE0, symBinAddr: 0x10002DA78, symSize: 0x224 }
  - { offset: 0x1E4F8, size: 0x8, addend: 0x0, symName: __ZNSt3__118__bitset_partitionB8ne180100INS_17_ClassicAlgPolicyEPNS_4pairIfxEERPFbRKS3_S6_EEENS2_IT0_bEESA_SA_T1_, symObjAddr: 0x2B104, symBinAddr: 0x10002DC9C, symSize: 0x33C }
  - { offset: 0x1E5F4, size: 0x8, addend: 0x0, symName: __ZNSt3__124__swap_bitmap_pos_withinB8ne180100INS_17_ClassicAlgPolicyEPNS_4pairIfxEEEEvRT0_S6_RyS7_, symObjAddr: 0x2C8D0, symBinAddr: 0x10002F468, symSize: 0x1E0 }
  - { offset: 0x1E6C1, size: 0x8, addend: 0x0, symName: __ZNSt3__132__partition_with_equals_on_rightB8ne180100INS_17_ClassicAlgPolicyEPNS_4pairIfxEERPFbRKS3_S6_EEENS2_IT0_bEESA_SA_T1_, symObjAddr: 0x2B440, symBinAddr: 0x10002DFD8, symSize: 0x238 }
  - { offset: 0x1E78B, size: 0x8, addend: 0x0, symName: __ZNSt3__127__insertion_sort_incompleteB8ne180100INS_17_ClassicAlgPolicyERPFbRKNS_4pairIfxEES5_EPS3_EEbT1_SA_T0_, symObjAddr: 0x2B678, symBinAddr: 0x10002E210, symSize: 0x310 }
  - { offset: 0x1EF5F, size: 0x8, addend: 0x0, symName: __ZNSt3__1plB8ne180100IcNS_11char_traitsIcEENS_9allocatorIcEEEENS_12basic_stringIT_T0_T1_EEOS9_SA_, symObjAddr: 0x1EC, symBinAddr: 0x100002D84, symSize: 0x40 }
  - { offset: 0x1EFB7, size: 0x8, addend: 0x0, symName: __ZNSt3__1plB8ne180100IcNS_11char_traitsIcEENS_9allocatorIcEEEENS_12basic_stringIT_T0_T1_EEOS9_PKS6_, symObjAddr: 0x22C, symBinAddr: 0x100002DC4, symSize: 0x40 }
  - { offset: 0x1F00F, size: 0x8, addend: 0x0, symName: __ZNSt3__1plB8ne180100IcNS_11char_traitsIcEENS_9allocatorIcEEEENS_12basic_stringIT_T0_T1_EEPKS6_OS9_, symObjAddr: 0x26C, symBinAddr: 0x100002E04, symSize: 0x44 }
  - { offset: 0x1F067, size: 0x8, addend: 0x0, symName: __ZNSt3__1neB8ne180100IPKNS_4pairIxfEEEEbRKNS_11__wrap_iterIT_EES9_, symObjAddr: 0x12D0, symBinAddr: 0x100003E68, symSize: 0x34 }
  - { offset: 0x1F0AA, size: 0x8, addend: 0x0, symName: __ZNSt3__17getlineB8ne180100IcNS_11char_traitsIcEENS_9allocatorIcEEEERNS_13basic_istreamIT_T0_EES9_RNS_12basic_stringIS6_S7_T1_EE, symObjAddr: 0x1710, symBinAddr: 0x1000042A8, symSize: 0x5C }
  - { offset: 0x1FA32, size: 0x8, addend: 0x0, symName: __ZNSt3__1lsB8ne180100INS_11char_traitsIcEEEERNS_13basic_ostreamIcT_EES6_PKc, symObjAddr: 0x1B0C, symBinAddr: 0x1000046A4, symSize: 0x48 }
  - { offset: 0x1FA78, size: 0x8, addend: 0x0, symName: __ZNSt3__14endlB8ne180100IcNS_11char_traitsIcEEEERNS_13basic_ostreamIT_T0_EES7_, symObjAddr: 0x1B80, symBinAddr: 0x100004718, symSize: 0x58 }
  - { offset: 0x1FAB8, size: 0x8, addend: 0x0, symName: __ZNSt3__13maxB8ne180100ImEET_St16initializer_listIS1_E, symObjAddr: 0x2014, symBinAddr: 0x100004BAC, symSize: 0x50 }
  - { offset: 0x1FAED, size: 0x8, addend: 0x0, symName: __ZNSt3__14sortB8ne180100INS_11__wrap_iterIPNS_4pairIxfEEEEEEvT_S6_, symObjAddr: 0x2184, symBinAddr: 0x100004D1C, symSize: 0x3C }
  - { offset: 0x1FF36, size: 0x8, addend: 0x0, symName: __ZNSt3__1eqB8ne180100IcNS_11char_traitsIcEENS_9allocatorIcEEEEbRKNS_12basic_stringIT_T0_T1_EEPKS6_, symObjAddr: 0x3E84, symBinAddr: 0x100006A1C, symSize: 0xAC }
  - { offset: 0x207B1, size: 0x8, addend: 0x0, symName: __ZNSt3__13maxB8ne180100IfEERKT_S3_S3_, symObjAddr: 0x4614, symBinAddr: 0x1000071AC, symSize: 0x2C }
  - { offset: 0x207F4, size: 0x8, addend: 0x0, symName: __ZNSt3__13minB8ne180100IfEERKT_S3_S3_, symObjAddr: 0x4640, symBinAddr: 0x1000071D8, symSize: 0x2C }
  - { offset: 0x20837, size: 0x8, addend: 0x0, symName: __ZNSt3__1neB8ne180100IPfEEbRKNS_11__wrap_iterIT_EES6_, symObjAddr: 0x46CC, symBinAddr: 0x100007264, symSize: 0x34 }
  - { offset: 0x20885, size: 0x8, addend: 0x0, symName: __ZNSt3__1eqB8ne180100IPKNS_4pairIxfEEEEbRKNS_11__wrap_iterIT_EES9_, symObjAddr: 0x4AA8, symBinAddr: 0x100007640, symSize: 0x48 }
  - { offset: 0x208C8, size: 0x8, addend: 0x0, symName: __ZNSt3__1neB8ne180100IPNS_6vectorIfNS_9allocatorIfEEEEEEbRKNS_11__wrap_iterIT_EESA_, symObjAddr: 0x4DD8, symBinAddr: 0x100007970, symSize: 0x34 }
  - { offset: 0x2090B, size: 0x8, addend: 0x0, symName: __ZNSt3__1eqB8ne180100IPNS_6vectorIfNS_9allocatorIfEEEEEEbRKNS_11__wrap_iterIT_EESA_, symObjAddr: 0x5144, symBinAddr: 0x100007CDC, symSize: 0x48 }
  - { offset: 0x2094E, size: 0x8, addend: 0x0, symName: __ZNSt3__122__make_exception_guardB8ne180100INS_6vectorIfNS_9allocatorIfEEE16__destroy_vectorEEENS_28__exception_guard_exceptionsIT_EES7_, symObjAddr: 0x5414, symBinAddr: 0x100007FAC, symSize: 0x40 }
  - { offset: 0x20983, size: 0x8, addend: 0x0, symName: __ZNSt3__119__allocate_at_leastB8ne180100INS_9allocatorIfEEEENS_19__allocation_resultINS_16allocator_traitsIT_E7pointerEEERS5_m, symObjAddr: 0x56FC, symBinAddr: 0x100008294, symSize: 0x40 }
  - { offset: 0x209C6, size: 0x8, addend: 0x0, symName: __ZNSt3__13minB8ne180100ImEERKT_S3_S3_, symObjAddr: 0x57A0, symBinAddr: 0x100008338, symSize: 0x2C }
  - { offset: 0x20C0A, size: 0x8, addend: 0x0, symName: __ZNSt3__13minB8ne180100ImNS_6__lessIvvEEEERKT_S5_S5_T0_, symObjAddr: 0x5804, symBinAddr: 0x10000839C, symSize: 0x54 }
  - { offset: 0x20D3C, size: 0x8, addend: 0x0, symName: __ZNSt3__120__throw_length_errorB8ne180100EPKc, symObjAddr: 0x58A8, symBinAddr: 0x100008440, symSize: 0x64 }
  - { offset: 0x20D64, size: 0x8, addend: 0x0, symName: __ZNSt3__117__libcpp_allocateB8ne180100Emm, symObjAddr: 0x5A10, symBinAddr: 0x1000085A8, symSize: 0x28 }
  - { offset: 0x20DA1, size: 0x8, addend: 0x0, symName: __ZNSt3__121__libcpp_operator_newB8ne180100IJmEEEPvDpT_, symObjAddr: 0x5A38, symBinAddr: 0x1000085D0, symSize: 0x24 }
  - { offset: 0x20DDA, size: 0x8, addend: 0x0, symName: __ZNSt3__130__uninitialized_allocator_copyB8ne180100INS_9allocatorIfEEPfS3_S3_EET2_RT_T0_T1_S4_, symObjAddr: 0x5B08, symBinAddr: 0x1000086A0, symSize: 0x80 }
  - { offset: 0x20E77, size: 0x8, addend: 0x0, symName: __ZNSt3__114__unwrap_rangeB8ne180100IPfS1_EENS_4pairIT0_S3_EET_S5_, symObjAddr: 0x5BF8, symBinAddr: 0x100008790, symSize: 0x60 }
  - { offset: 0x20EC3, size: 0x8, addend: 0x0, symName: __ZNSt3__135__uninitialized_allocator_copy_implB8ne180100INS_9allocatorIfEEfffLPv0EEEPT2_RT_PT0_S9_S5_, symObjAddr: 0x5C58, symBinAddr: 0x1000087F0, symSize: 0x38 }
  - { offset: 0x20F44, size: 0x8, addend: 0x0, symName: __ZNSt3__113__unwrap_iterB8ne180100IPfNS_18__unwrap_iter_implIS1_Lb1EEELi0EEEDTclsrT0_8__unwrapclsr3stdE7declvalIT_EEEES5_, symObjAddr: 0x5C90, symBinAddr: 0x100008828, symSize: 0x24 }
  - { offset: 0x20F88, size: 0x8, addend: 0x0, symName: __ZNSt3__113__rewrap_iterB8ne180100IPfS1_NS_18__unwrap_iter_implIS1_Lb1EEEEET_S4_T0_, symObjAddr: 0x5CB4, symBinAddr: 0x10000884C, symSize: 0x3C }
  - { offset: 0x20FDD, size: 0x8, addend: 0x0, symName: __ZNSt3__19make_pairB8ne180100IPfS1_EENS_4pairINS_18__unwrap_ref_decayIT_E4typeENS3_IT0_E4typeEEEOS4_OS7_, symObjAddr: 0x5CF0, symBinAddr: 0x100008888, symSize: 0x38 }
  - { offset: 0x2112F, size: 0x8, addend: 0x0, symName: __ZNSt3__14copyB8ne180100IPfS1_EET0_T_S3_S2_, symObjAddr: 0x5D98, symBinAddr: 0x100008930, symSize: 0x40 }
  - { offset: 0x21189, size: 0x8, addend: 0x0, symName: __ZNSt3__16__copyB8ne180100INS_17_ClassicAlgPolicyEPfS2_S2_EENS_4pairIT0_T2_EES4_T1_S5_, symObjAddr: 0x5DD8, symBinAddr: 0x100008970, symSize: 0x44 }
  - { offset: 0x211F5, size: 0x8, addend: 0x0, symName: __ZNSt3__123__dispatch_copy_or_moveB8ne180100INS_17_ClassicAlgPolicyENS_11__copy_loopIS1_EENS_14__copy_trivialEPfS5_S5_EENS_4pairIT2_T4_EES7_T3_S8_, symObjAddr: 0x5E1C, symBinAddr: 0x1000089B4, symSize: 0x44 }
  - { offset: 0x21273, size: 0x8, addend: 0x0, symName: __ZNSt3__121__unwrap_and_dispatchB8ne180100INS_10__overloadINS_11__copy_loopINS_17_ClassicAlgPolicyEEENS_14__copy_trivialEEEPfS7_S7_Li0EEENS_4pairIT0_T2_EES9_T1_SA_, symObjAddr: 0x5E60, symBinAddr: 0x1000089F8, symSize: 0xB4 }
  - { offset: 0x21383, size: 0x8, addend: 0x0, symName: __ZNSt3__114__rewrap_rangeB8ne180100IPfS1_EET_S2_T0_, symObjAddr: 0x5F5C, symBinAddr: 0x100008AF4, symSize: 0x2C }
  - { offset: 0x213CF, size: 0x8, addend: 0x0, symName: __ZNSt3__119__copy_trivial_implB8ne180100IffEENS_4pairIPT_PT0_EES3_S3_S5_, symObjAddr: 0x5F88, symBinAddr: 0x100008B20, symSize: 0x80 }
  - { offset: 0x21437, size: 0x8, addend: 0x0, symName: __ZNSt3__119__constexpr_memmoveB8ne180100IffLi0EEEPT_S2_PT0_NS_15__element_countE, symObjAddr: 0x6008, symBinAddr: 0x100008BA0, symSize: 0x64 }
  - { offset: 0x214A5, size: 0x8, addend: 0x0, symName: __ZNSt3__19make_pairB8ne180100IRPfS1_EENS_4pairINS_18__unwrap_ref_decayIT_E4typeENS4_IT0_E4typeEEEOS5_OS8_, symObjAddr: 0x606C, symBinAddr: 0x100008C04, symSize: 0x38 }
  - { offset: 0x21547, size: 0x8, addend: 0x0, symName: __ZNSt3__112__to_addressB8ne180100IfEEPT_S2_, symObjAddr: 0x6138, symBinAddr: 0x100008CD0, symSize: 0x14 }
  - { offset: 0x2157C, size: 0x8, addend: 0x0, symName: __ZNSt3__119__libcpp_deallocateB8ne180100EPvmm, symObjAddr: 0x6454, symBinAddr: 0x100008FEC, symSize: 0x30 }
  - { offset: 0x215C4, size: 0x8, addend: 0x0, symName: __ZNSt3__127__do_deallocate_handle_sizeB8ne180100IJEEEvPvmDpT_, symObjAddr: 0x6484, symBinAddr: 0x10000901C, symSize: 0x28 }
  - { offset: 0x21602, size: 0x8, addend: 0x0, symName: __ZNSt3__124__libcpp_operator_deleteB8ne180100IJPvEEEvDpT_, symObjAddr: 0x64AC, symBinAddr: 0x100009044, symSize: 0x24 }
  - { offset: 0x21637, size: 0x8, addend: 0x0, symName: __ZNSt3__112__to_addressB8ne180100IPfEEPT_S3_, symObjAddr: 0x6B48, symBinAddr: 0x1000096E0, symSize: 0x14 }
  - { offset: 0x2166C, size: 0x8, addend: 0x0, symName: __ZNSt3__112__to_addressB8ne180100I16diameter_entry_tEEPT_S3_, symObjAddr: 0x6FBC, symBinAddr: 0x100009B54, symSize: 0x14 }
  - { offset: 0x216A1, size: 0x8, addend: 0x0, symName: __ZNSt3__112__to_addressB8ne180100INS_6vectorIxNS_9allocatorIxEEEEEEPT_S6_, symObjAddr: 0x73C8, symBinAddr: 0x100009F60, symSize: 0x14 }
  - { offset: 0x216D6, size: 0x8, addend: 0x0, symName: __ZNSt3__1eqB8ne180100IPfEEbRKNS_11__wrap_iterIT_EES6_, symObjAddr: 0x7518, symBinAddr: 0x10000A0B0, symSize: 0x48 }
  - { offset: 0x21719, size: 0x8, addend: 0x0, symName: __ZNSt3__118__constexpr_strlenB8ne180100EPKc, symObjAddr: 0x781C, symBinAddr: 0x10000A3B4, symSize: 0x24 }
  - { offset: 0x21745, size: 0x8, addend: 0x0, symName: __ZNSt3__112__to_addressB8ne180100IKcEEPT_S3_, symObjAddr: 0x7AAC, symBinAddr: 0x10000A644, symSize: 0x14 }
  - { offset: 0x217AD, size: 0x8, addend: 0x0, symName: __ZNSt3__112__to_addressB8ne180100IxEEPT_S2_, symObjAddr: 0x7E2C, symBinAddr: 0x10000A9C4, symSize: 0x14 }
  - { offset: 0x217E2, size: 0x8, addend: 0x0, symName: __ZNSt3__122__make_exception_guardB8ne180100INS_6vectorItNS_9allocatorItEEE16__destroy_vectorEEENS_28__exception_guard_exceptionsIT_EES7_, symObjAddr: 0x803C, symBinAddr: 0x10000ABD4, symSize: 0x40 }
  - { offset: 0x21817, size: 0x8, addend: 0x0, symName: __ZNSt3__119__allocate_at_leastB8ne180100INS_9allocatorItEEEENS_19__allocation_resultINS_16allocator_traitsIT_E7pointerEEERS5_m, symObjAddr: 0x8428, symBinAddr: 0x10000AFC0, symSize: 0x40 }
  - { offset: 0x2185A, size: 0x8, addend: 0x0, symName: __ZNSt3__112__to_addressB8ne180100ItEEPT_S2_, symObjAddr: 0x8694, symBinAddr: 0x10000B22C, symSize: 0x14 }
  - { offset: 0x2188F, size: 0x8, addend: 0x0, symName: __ZNSt3__112__to_addressB8ne180100INS_6vectorINS_4pairIxfEENS_9allocatorIS3_EEEEEEPT_S8_, symObjAddr: 0x8D74, symBinAddr: 0x10000B90C, symSize: 0x14 }
  - { offset: 0x218C4, size: 0x8, addend: 0x0, symName: __ZNSt3__112__to_addressB8ne180100INS_4pairIxfEEEEPT_S4_, symObjAddr: 0x9090, symBinAddr: 0x10000BC28, symSize: 0x14 }
  - { offset: 0x218F9, size: 0x8, addend: 0x0, symName: __ZNSt3__116__pad_and_outputB8ne180100IcNS_11char_traitsIcEEEENS_19ostreambuf_iteratorIT_T0_EES6_PKS4_S8_S8_RNS_8ios_baseES4_, symObjAddr: 0x94C0, symBinAddr: 0x10000C058, symSize: 0x240 }
  - { offset: 0x219C8, size: 0x8, addend: 0x0, symName: __ZNSt3__19use_facetB8ne180100INS_5ctypeIcEEEERKT_RKNS_6localeE, symObjAddr: 0x9A44, symBinAddr: 0x10000C5DC, symSize: 0x2C }
  - { offset: 0x21E95, size: 0x8, addend: 0x0, symName: __ZNSt3__112__to_addressB8ne180100INS_6vectorIfNS_9allocatorIfEEEEEEPT_S6_, symObjAddr: 0x9D68, symBinAddr: 0x10000C900, symSize: 0x14 }
  - { offset: 0x21ECA, size: 0x8, addend: 0x0, symName: __ZNSt3__122__make_exception_guardB8ne180100INS_6vectorIxNS_9allocatorIxEEE16__destroy_vectorEEENS_28__exception_guard_exceptionsIT_EES7_, symObjAddr: 0x9F98, symBinAddr: 0x10000CB30, symSize: 0x40 }
  - { offset: 0x21EFF, size: 0x8, addend: 0x0, symName: __ZNSt3__119__allocate_at_leastB8ne180100INS_9allocatorIxEEEENS_19__allocation_resultINS_16allocator_traitsIT_E7pointerEEERS5_m, symObjAddr: 0xA330, symBinAddr: 0x10000CEC8, symSize: 0x40 }
  - { offset: 0x21F42, size: 0x8, addend: 0x0, symName: __ZNSt3__13maxB8ne180100IfNS_6__lessIvvEEEERKT_S5_S5_T0_, symObjAddr: 0xA96C, symBinAddr: 0x10000D504, symSize: 0x54 }
  - { offset: 0x21F9C, size: 0x8, addend: 0x0, symName: __ZNSt3__112__to_addressB8ne180100INS_4pairIfxEEEEPT_S4_, symObjAddr: 0xADF8, symBinAddr: 0x10000D990, symSize: 0x14 }
  - { offset: 0x21FD1, size: 0x8, addend: 0x0, symName: __ZNSt3__13maxB8ne180100ImEERKT_S3_S3_, symObjAddr: 0xB4D0, symBinAddr: 0x10000E068, symSize: 0x2C }
  - { offset: 0x22014, size: 0x8, addend: 0x0, symName: __ZNSt3__13maxB8ne180100ImNS_6__lessIvvEEEERKT_S5_S5_T0_, symObjAddr: 0xB594, symBinAddr: 0x10000E12C, symSize: 0x54 }
  - { offset: 0x2206E, size: 0x8, addend: 0x0, symName: __ZNSt3__119__allocate_at_leastB8ne180100INS_9allocatorINS_4pairIfxEEEEEENS_19__allocation_resultINS_16allocator_traitsIT_E7pointerEEERS7_m, symObjAddr: 0xB6F8, symBinAddr: 0x10000E290, symSize: 0x40 }
  - { offset: 0x220B1, size: 0x8, addend: 0x0, symName: __ZNSt3__142__uninitialized_allocator_move_if_noexceptB8ne180100INS_9allocatorINS_4pairIfxEEEENS_16reverse_iteratorIPS3_EES7_S7_EET2_RT_T0_T1_S8_, symObjAddr: 0xB8AC, symBinAddr: 0x10000E444, symSize: 0x12C }
  - { offset: 0x22151, size: 0x8, addend: 0x0, symName: __ZNSt3__14swapB8ne180100IPNS_4pairIfxEEEENS_9enable_ifIXaasr21is_move_constructibleIT_EE5valuesr18is_move_assignableIS5_EE5valueEvE4typeERS5_S8_, symObjAddr: 0xBA24, symBinAddr: 0x10000E5BC, symSize: 0x3C }
  - { offset: 0x221A2, size: 0x8, addend: 0x0, symName: __ZNSt3__122__make_exception_guardB8ne180100INS_29_AllocatorDestroyRangeReverseINS_9allocatorINS_4pairIfxEEEENS_16reverse_iteratorIPS4_EEEEEENS_28__exception_guard_exceptionsIT_EESB_, symObjAddr: 0xBA74, symBinAddr: 0x10000E60C, symSize: 0x4C }
  - { offset: 0x221D8, size: 0x8, addend: 0x0, symName: __ZNSt3__1neB8ne180100IPNS_4pairIfxEES3_EEbRKNS_16reverse_iteratorIT_EERKNS4_IT0_EE, symObjAddr: 0xBB04, symBinAddr: 0x10000E69C, symSize: 0x48 }
  - { offset: 0x22224, size: 0x8, addend: 0x0, symName: __ZNSt3__112__to_addressB8ne180100INS_16reverse_iteratorIPNS_4pairIfxEEEEvEEu7__decayIDTclsr19__to_address_helperIT_EE6__callclsr3stdE7declvalIRKS6_EEEEES8_, symObjAddr: 0xBB4C, symBinAddr: 0x10000E6E4, symSize: 0x24 }
  - { offset: 0x22283, size: 0x8, addend: 0x0, symName: __ZNSt3__119__allocator_destroyB8ne180100INS_9allocatorINS_4pairIfxEEEENS_16reverse_iteratorINS5_IPS3_EEEES8_EEvRT_T0_T1_, symObjAddr: 0xBDFC, symBinAddr: 0x10000E994, symSize: 0x70 }
  - { offset: 0x222E8, size: 0x8, addend: 0x0, symName: __ZNSt3__1neB8ne180100INS_16reverse_iteratorIPNS_4pairIfxEEEES5_EEbRKNS1_IT_EERKNS1_IT0_EE, symObjAddr: 0xBEA8, symBinAddr: 0x10000EA40, symSize: 0x60 }
  - { offset: 0x22334, size: 0x8, addend: 0x0, symName: __ZNSt3__112__to_addressB8ne180100INS_16reverse_iteratorINS1_IPNS_4pairIfxEEEEEEvEEu7__decayIDTclsr19__to_address_helperIT_EE6__callclsr3stdE7declvalIRKS7_EEEEES9_, symObjAddr: 0xBF08, symBinAddr: 0x10000EAA0, symSize: 0x24 }
  - { offset: 0x22393, size: 0x8, addend: 0x0, symName: __ZNSt3__17getlineB8ne180100IcNS_11char_traitsIcEENS_9allocatorIcEEEERNS_13basic_istreamIT_T0_EES9_RNS_12basic_stringIS6_S7_T1_EES6_, symObjAddr: 0xC4B8, symBinAddr: 0x10000F050, symSize: 0x238 }
  - { offset: 0x22484, size: 0x8, addend: 0x0, symName: __ZNSt3__142__uninitialized_allocator_move_if_noexceptB8ne180100INS_9allocatorIfEENS_16reverse_iteratorIPfEES5_fvEET1_RT_T0_S9_S6_, symObjAddr: 0xD640, symBinAddr: 0x1000101D8, symSize: 0x78 }
  - { offset: 0x22501, size: 0x8, addend: 0x0, symName: __ZNSt3__14swapB8ne180100IPfEENS_9enable_ifIXaasr21is_move_constructibleIT_EE5valuesr18is_move_assignableIS3_EE5valueEvE4typeERS3_S6_, symObjAddr: 0xD704, symBinAddr: 0x10001029C, symSize: 0x3C }
  - { offset: 0x22552, size: 0x8, addend: 0x0, symName: __ZNSt3__14moveB8ne180100INS_16reverse_iteratorIPfEES3_EET0_T_S5_S4_, symObjAddr: 0xD740, symBinAddr: 0x1000102D8, symSize: 0x78 }
  - { offset: 0x225AC, size: 0x8, addend: 0x0, symName: __ZNSt3__16__moveB8ne180100INS_17_ClassicAlgPolicyENS_16reverse_iteratorIPfEES4_S4_EENS_4pairIT0_T2_EES6_T1_S7_, symObjAddr: 0xD7B8, symBinAddr: 0x100010350, symSize: 0x64 }
  - { offset: 0x22618, size: 0x8, addend: 0x0, symName: __ZNSt3__123__dispatch_copy_or_moveB8ne180100INS_17_ClassicAlgPolicyENS_11__move_loopIS1_EENS_14__move_trivialENS_16reverse_iteratorIPfEES7_S7_EENS_4pairIT2_T4_EES9_T3_SA_, symObjAddr: 0xD81C, symBinAddr: 0x1000103B4, symSize: 0x64 }
  - { offset: 0x22696, size: 0x8, addend: 0x0, symName: __ZNSt3__121__unwrap_and_dispatchB8ne180100INS_10__overloadINS_11__move_loopINS_17_ClassicAlgPolicyEEENS_14__move_trivialEEENS_16reverse_iteratorIPfEES9_S9_Li0EEENS_4pairIT0_T2_EESB_T1_SC_, symObjAddr: 0xD880, symBinAddr: 0x100010418, symSize: 0x12C }
  - { offset: 0x22726, size: 0x8, addend: 0x0, symName: __ZNSt3__114__unwrap_rangeB8ne180100INS_16reverse_iteratorIPfEES3_EENS_4pairIT0_S5_EET_S7_, symObjAddr: 0xD9AC, symBinAddr: 0x100010544, symSize: 0x84 }
  - { offset: 0x2295E, size: 0x8, addend: 0x0, symName: __ZNSt3__113__unwrap_iterB8ne180100INS_16reverse_iteratorIPfEENS_18__unwrap_iter_implIS3_Lb0EEELi0EEEDTclsrT0_8__unwrapclsr3stdE7declvalIT_EEEES7_, symObjAddr: 0xDAD0, symBinAddr: 0x100010668, symSize: 0x44 }
  - { offset: 0x229A2, size: 0x8, addend: 0x0, symName: __ZNSt3__19make_pairB8ne180100INS_16reverse_iteratorIPfEES3_EENS_4pairINS_18__unwrap_ref_decayIT_E4typeENS5_IT0_E4typeEEEOS6_OS9_, symObjAddr: 0xDB14, symBinAddr: 0x1000106AC, symSize: 0x38 }
  - { offset: 0x229F1, size: 0x8, addend: 0x0, symName: __ZNSt3__114__rewrap_rangeB8ne180100INS_16reverse_iteratorIPfEES3_EET_S4_T0_, symObjAddr: 0xDB4C, symBinAddr: 0x1000106E4, symSize: 0x5C }
  - { offset: 0x22A3D, size: 0x8, addend: 0x0, symName: __ZNSt3__113__rewrap_iterB8ne180100INS_16reverse_iteratorIPfEES3_NS_18__unwrap_iter_implIS3_Lb0EEEEET_S6_T0_, symObjAddr: 0xDBA8, symBinAddr: 0x100010740, symSize: 0x74 }
  - { offset: 0x22A92, size: 0x8, addend: 0x0, symName: __ZNSt3__1neB8ne180100IPfS1_EEbRKNS_16reverse_iteratorIT_EERKNS2_IT0_EE, symObjAddr: 0xDC1C, symBinAddr: 0x1000107B4, symSize: 0x48 }
  - { offset: 0x22FF3, size: 0x8, addend: 0x0, symName: __ZNSt3__119__allocate_at_leastB8ne180100INS_9allocatorINS_6vectorIfNS1_IfEEEEEEEENS_19__allocation_resultINS_16allocator_traitsIT_E7pointerEEERS8_m, symObjAddr: 0xE6C4, symBinAddr: 0x10001125C, symSize: 0x40 }
  - { offset: 0x23036, size: 0x8, addend: 0x0, symName: __ZNSt3__142__uninitialized_allocator_move_if_noexceptB8ne180100INS_9allocatorINS_6vectorIfNS1_IfEEEEEENS_16reverse_iteratorIPS4_EES8_S8_EET2_RT_T0_T1_S9_, symObjAddr: 0xE87C, symBinAddr: 0x100011414, symSize: 0x12C }
  - { offset: 0x230D6, size: 0x8, addend: 0x0, symName: __ZNSt3__14swapB8ne180100IPNS_6vectorIfNS_9allocatorIfEEEEEENS_9enable_ifIXaasr21is_move_constructibleIT_EE5valuesr18is_move_assignableIS7_EE5valueEvE4typeERS7_SA_, symObjAddr: 0xE9F4, symBinAddr: 0x10001158C, symSize: 0x3C }
  - { offset: 0x23127, size: 0x8, addend: 0x0, symName: __ZNSt3__122__make_exception_guardB8ne180100INS_29_AllocatorDestroyRangeReverseINS_9allocatorINS_6vectorIfNS2_IfEEEEEENS_16reverse_iteratorIPS5_EEEEEENS_28__exception_guard_exceptionsIT_EESC_, symObjAddr: 0xEA44, symBinAddr: 0x1000115DC, symSize: 0x4C }
  - { offset: 0x2315D, size: 0x8, addend: 0x0, symName: __ZNSt3__1neB8ne180100IPNS_6vectorIfNS_9allocatorIfEEEES5_EEbRKNS_16reverse_iteratorIT_EERKNS6_IT0_EE, symObjAddr: 0xEAD4, symBinAddr: 0x10001166C, symSize: 0x48 }
  - { offset: 0x231A9, size: 0x8, addend: 0x0, symName: __ZNSt3__112__to_addressB8ne180100INS_16reverse_iteratorIPNS_6vectorIfNS_9allocatorIfEEEEEEvEEu7__decayIDTclsr19__to_address_helperIT_EE6__callclsr3stdE7declvalIRKS8_EEEEESA_, symObjAddr: 0xEB50, symBinAddr: 0x1000116E8, symSize: 0x24 }
  - { offset: 0x23208, size: 0x8, addend: 0x0, symName: __ZNSt3__119__allocator_destroyB8ne180100INS_9allocatorINS_6vectorIfNS1_IfEEEEEENS_16reverse_iteratorINS6_IPS4_EEEES9_EEvRT_T0_T1_, symObjAddr: 0xEF28, symBinAddr: 0x100011AC0, symSize: 0x70 }
  - { offset: 0x2326D, size: 0x8, addend: 0x0, symName: __ZNSt3__1neB8ne180100INS_16reverse_iteratorIPNS_6vectorIfNS_9allocatorIfEEEEEES7_EEbRKNS1_IT_EERKNS1_IT0_EE, symObjAddr: 0xEFD4, symBinAddr: 0x100011B6C, symSize: 0x60 }
  - { offset: 0x232B9, size: 0x8, addend: 0x0, symName: __ZNSt3__112__to_addressB8ne180100INS_16reverse_iteratorINS1_IPNS_6vectorIfNS_9allocatorIfEEEEEEEEvEEu7__decayIDTclsr19__to_address_helperIT_EE6__callclsr3stdE7declvalIRKS9_EEEEESB_, symObjAddr: 0xF034, symBinAddr: 0x100011BCC, symSize: 0x24 }
  - { offset: 0x23318, size: 0x8, addend: 0x0, symName: __ZNSt3__111max_elementB8ne180100IPKmNS_6__lessIvvEEEET_S5_S5_T0_, symObjAddr: 0xF4D0, symBinAddr: 0x100012068, symSize: 0x30 }
  - { offset: 0x23372, size: 0x8, addend: 0x0, symName: __ZNSt3__113__max_elementB8ne180100IRNS_6__lessIvvEEPKmEET0_S6_S6_T_, symObjAddr: 0xF538, symBinAddr: 0x1000120D0, symSize: 0x9C }
  - { offset: 0x233E8, size: 0x8, addend: 0x0, symName: __ZNSt3__119__allocate_at_leastB8ne180100INS_9allocatorINS_6vectorINS_4pairIxfEENS1_IS4_EEEEEEEENS_19__allocation_resultINS_16allocator_traitsIT_E7pointerEEERSA_m, symObjAddr: 0xFFB0, symBinAddr: 0x100012B48, symSize: 0x40 }
  - { offset: 0x2342B, size: 0x8, addend: 0x0, symName: __ZNSt3__142__uninitialized_allocator_move_if_noexceptB8ne180100INS_9allocatorINS_6vectorINS_4pairIxfEENS1_IS4_EEEEEENS_16reverse_iteratorIPS6_EESA_SA_EET2_RT_T0_T1_SB_, symObjAddr: 0x1023C, symBinAddr: 0x100012DD4, symSize: 0x12C }
  - { offset: 0x234CB, size: 0x8, addend: 0x0, symName: __ZNSt3__14swapB8ne180100IPNS_6vectorINS_4pairIxfEENS_9allocatorIS3_EEEEEENS_9enable_ifIXaasr21is_move_constructibleIT_EE5valuesr18is_move_assignableIS9_EE5valueEvE4typeERS9_SC_, symObjAddr: 0x103B4, symBinAddr: 0x100012F4C, symSize: 0x3C }
  - { offset: 0x2351C, size: 0x8, addend: 0x0, symName: __ZNSt3__122__make_exception_guardB8ne180100INS_29_AllocatorDestroyRangeReverseINS_9allocatorINS_6vectorINS_4pairIxfEENS2_IS5_EEEEEENS_16reverse_iteratorIPS7_EEEEEENS_28__exception_guard_exceptionsIT_EESE_, symObjAddr: 0x10404, symBinAddr: 0x100012F9C, symSize: 0x4C }
  - { offset: 0x23552, size: 0x8, addend: 0x0, symName: __ZNSt3__1neB8ne180100IPNS_6vectorINS_4pairIxfEENS_9allocatorIS3_EEEES7_EEbRKNS_16reverse_iteratorIT_EERKNS8_IT0_EE, symObjAddr: 0x10494, symBinAddr: 0x10001302C, symSize: 0x48 }
  - { offset: 0x2359E, size: 0x8, addend: 0x0, symName: __ZNSt3__112__to_addressB8ne180100INS_16reverse_iteratorIPNS_6vectorINS_4pairIxfEENS_9allocatorIS4_EEEEEEvEEu7__decayIDTclsr19__to_address_helperIT_EE6__callclsr3stdE7declvalIRKSA_EEEEESC_, symObjAddr: 0x10510, symBinAddr: 0x1000130A8, symSize: 0x24 }
  - { offset: 0x235FD, size: 0x8, addend: 0x0, symName: __ZNSt3__119__allocator_destroyB8ne180100INS_9allocatorINS_6vectorINS_4pairIxfEENS1_IS4_EEEEEENS_16reverse_iteratorINS8_IPS6_EEEESB_EEvRT_T0_T1_, symObjAddr: 0x109E0, symBinAddr: 0x100013578, symSize: 0x70 }
  - { offset: 0x23662, size: 0x8, addend: 0x0, symName: __ZNSt3__1neB8ne180100INS_16reverse_iteratorIPNS_6vectorINS_4pairIxfEENS_9allocatorIS4_EEEEEES9_EEbRKNS1_IT_EERKNS1_IT0_EE, symObjAddr: 0x10A8C, symBinAddr: 0x100013624, symSize: 0x60 }
  - { offset: 0x236AE, size: 0x8, addend: 0x0, symName: __ZNSt3__112__to_addressB8ne180100INS_16reverse_iteratorINS1_IPNS_6vectorINS_4pairIxfEENS_9allocatorIS4_EEEEEEEEvEEu7__decayIDTclsr19__to_address_helperIT_EE6__callclsr3stdE7declvalIRKSB_EEEEESD_, symObjAddr: 0x10AEC, symBinAddr: 0x100013684, symSize: 0x24 }
  - { offset: 0x2370D, size: 0x8, addend: 0x0, symName: __ZNSt3__119__allocate_at_leastB8ne180100INS_9allocatorINS_4pairIxfEEEEEENS_19__allocation_resultINS_16allocator_traitsIT_E7pointerEEERS7_m, symObjAddr: 0x11588, symBinAddr: 0x100014120, symSize: 0x40 }
  - { offset: 0x23750, size: 0x8, addend: 0x0, symName: __ZNSt3__142__uninitialized_allocator_move_if_noexceptB8ne180100INS_9allocatorINS_4pairIxfEEEENS_16reverse_iteratorIPS3_EES7_S7_EET2_RT_T0_T1_S8_, symObjAddr: 0x1173C, symBinAddr: 0x1000142D4, symSize: 0x12C }
  - { offset: 0x237F0, size: 0x8, addend: 0x0, symName: __ZNSt3__14swapB8ne180100IPNS_4pairIxfEEEENS_9enable_ifIXaasr21is_move_constructibleIT_EE5valuesr18is_move_assignableIS5_EE5valueEvE4typeERS5_S8_, symObjAddr: 0x118B4, symBinAddr: 0x10001444C, symSize: 0x3C }
  - { offset: 0x23841, size: 0x8, addend: 0x0, symName: __ZNSt3__122__make_exception_guardB8ne180100INS_29_AllocatorDestroyRangeReverseINS_9allocatorINS_4pairIxfEEEENS_16reverse_iteratorIPS4_EEEEEENS_28__exception_guard_exceptionsIT_EESB_, symObjAddr: 0x11904, symBinAddr: 0x10001449C, symSize: 0x4C }
  - { offset: 0x23877, size: 0x8, addend: 0x0, symName: __ZNSt3__1neB8ne180100IPNS_4pairIxfEES3_EEbRKNS_16reverse_iteratorIT_EERKNS4_IT0_EE, symObjAddr: 0x11994, symBinAddr: 0x10001452C, symSize: 0x48 }
  - { offset: 0x238C3, size: 0x8, addend: 0x0, symName: __ZNSt3__112__to_addressB8ne180100INS_16reverse_iteratorIPNS_4pairIxfEEEEvEEu7__decayIDTclsr19__to_address_helperIT_EE6__callclsr3stdE7declvalIRKS6_EEEEES8_, symObjAddr: 0x119DC, symBinAddr: 0x100014574, symSize: 0x24 }
  - { offset: 0x23922, size: 0x8, addend: 0x0, symName: __ZNSt3__119__allocator_destroyB8ne180100INS_9allocatorINS_4pairIxfEEEENS_16reverse_iteratorINS5_IPS3_EEEES8_EEvRT_T0_T1_, symObjAddr: 0x11C8C, symBinAddr: 0x100014824, symSize: 0x70 }
  - { offset: 0x23987, size: 0x8, addend: 0x0, symName: __ZNSt3__1neB8ne180100INS_16reverse_iteratorIPNS_4pairIxfEEEES5_EEbRKNS1_IT_EERKNS1_IT0_EE, symObjAddr: 0x11D38, symBinAddr: 0x1000148D0, symSize: 0x60 }
  - { offset: 0x239D3, size: 0x8, addend: 0x0, symName: __ZNSt3__112__to_addressB8ne180100INS_16reverse_iteratorINS1_IPNS_4pairIxfEEEEEEvEEu7__decayIDTclsr19__to_address_helperIT_EE6__callclsr3stdE7declvalIRKS7_EEEEES9_, symObjAddr: 0x11D98, symBinAddr: 0x100014930, symSize: 0x24 }
  - { offset: 0x23A32, size: 0x8, addend: 0x0, symName: __ZNSt3__14sortB8ne180100INS_11__wrap_iterIPNS_4pairIxfEEEENS_6__lessIvvEEEEvT_S8_T0_, symObjAddr: 0x121B8, symBinAddr: 0x100014D50, symSize: 0x40 }
  - { offset: 0x23A8C, size: 0x8, addend: 0x0, symName: __ZNSt3__111__sort_implB8ne180100INS_17_ClassicAlgPolicyENS_11__wrap_iterIPNS_4pairIxfEEEENS_6__lessIvvEEEEvT0_S9_RT1_, symObjAddr: 0x121F8, symBinAddr: 0x100014D90, symSize: 0xA8 }
  - { offset: 0x23AEF, size: 0x8, addend: 0x0, symName: __ZNSt3__123__debug_randomize_rangeB8ne180100INS_17_ClassicAlgPolicyENS_11__wrap_iterIPNS_4pairIxfEEEES6_EEvT0_T1_, symObjAddr: 0x122A0, symBinAddr: 0x100014E38, symSize: 0x14 }
  - { offset: 0x23B40, size: 0x8, addend: 0x0, symName: __ZNSt3__115__sort_dispatchB8ne180100INS_17_ClassicAlgPolicyEPNS_4pairIxfEENS_6__lessIvvEEEEvT0_S7_RT1_, symObjAddr: 0x122B4, symBinAddr: 0x100014E4C, symSize: 0x64 }
  - { offset: 0x23BBE, size: 0x8, addend: 0x0, symName: __ZNSt3__113__unwrap_iterB8ne180100INS_11__wrap_iterIPNS_4pairIxfEEEENS_18__unwrap_iter_implIS5_Lb1EEELi0EEEDTclsrT0_8__unwrapclsr3stdE7declvalIT_EEEES9_, symObjAddr: 0x12318, symBinAddr: 0x100014EB0, symSize: 0x2C }
  - { offset: 0x23C02, size: 0x8, addend: 0x0, symName: __ZNSt3__135__check_strict_weak_ordering_sortedB8ne180100IPNS_4pairIxfEENS_6__lessIvvEEEEvT_S6_RT0_, symObjAddr: 0x12344, symBinAddr: 0x100014EDC, symSize: 0x18 }
  - { offset: 0x23C58, size: 0x8, addend: 0x0, symName: __ZNSt3__17__log2iB8ne180100IlEET_S1_, symObjAddr: 0x1235C, symBinAddr: 0x100014EF4, symSize: 0x54 }
  - { offset: 0x23C8F, size: 0x8, addend: 0x0, symName: __ZNSt3__112__libcpp_clzB8ne180100Em, symObjAddr: 0x127FC, symBinAddr: 0x100015394, symSize: 0x1C }
  - { offset: 0x23CBB, size: 0x8, addend: 0x0, symName: __ZNSt3__124__sort3_maybe_branchlessB8ne180100INS_17_ClassicAlgPolicyERNS_6__lessIvvEEPNS_4pairIxfEELi0EEEvT1_S8_S8_T0_, symObjAddr: 0x12880, symBinAddr: 0x100015418, symSize: 0x3C }
  - { offset: 0x23D2E, size: 0x8, addend: 0x0, symName: __ZNSt3__124__sort4_maybe_branchlessB8ne180100INS_17_ClassicAlgPolicyERNS_6__lessIvvEEPNS_4pairIxfEELi0EEEvT1_S8_S8_S8_T0_, symObjAddr: 0x128BC, symBinAddr: 0x100015454, symSize: 0x44 }
  - { offset: 0x23DAF, size: 0x8, addend: 0x0, symName: __ZNSt3__124__sort5_maybe_branchlessB8ne180100INS_17_ClassicAlgPolicyERNS_6__lessIvvEEPNS_4pairIxfEELi0EEEvT1_S8_S8_S8_S8_T0_, symObjAddr: 0x12900, symBinAddr: 0x100015498, symSize: 0x4C }
  - { offset: 0x23E45, size: 0x8, addend: 0x0, symName: __ZNSt3__116__insertion_sortB8ne180100INS_17_ClassicAlgPolicyERNS_6__lessIvvEEPNS_4pairIxfEEEEvT1_S8_T0_, symObjAddr: 0x1294C, symBinAddr: 0x1000154E4, symSize: 0x150 }
  - { offset: 0x23F0C, size: 0x8, addend: 0x0, symName: __ZNSt3__114__partial_sortB8ne180100INS_17_ClassicAlgPolicyERNS_6__lessIvvEEPNS_4pairIxfEES7_EET1_S8_S8_T2_RT0_, symObjAddr: 0x12BBC, symBinAddr: 0x100015754, symSize: 0x94 }
  - { offset: 0x23F94, size: 0x8, addend: 0x0, symName: __ZNSt3__17__sort3B8ne180100INS_17_ClassicAlgPolicyERNS_6__lessIvvEEPNS_4pairIxfEEEEjT1_S8_S8_T0_, symObjAddr: 0x12C50, symBinAddr: 0x1000157E8, symSize: 0x144 }
  - { offset: 0x24013, size: 0x8, addend: 0x0, symName: __ZNSt3__1ltB8ne180100IxfxfEEbRKNS_4pairIT_T0_EERKNS1_IT1_T2_EE, symObjAddr: 0x13840, symBinAddr: 0x1000163D8, symSize: 0x98 }
  - { offset: 0x24074, size: 0x8, addend: 0x0, symName: __ZNSt3__19iter_swapB8ne180100IPNS_4pairIxfEES3_EEvT_T0_, symObjAddr: 0x138D8, symBinAddr: 0x100016470, symSize: 0x2C }
  - { offset: 0x240BC, size: 0x8, addend: 0x0, symName: __ZNSt3__14swapB8ne180100IxfLi0EEEvRNS_4pairIT_T0_EES5_, symObjAddr: 0x13904, symBinAddr: 0x10001649C, symSize: 0x2C }
  - { offset: 0x2410D, size: 0x8, addend: 0x0, symName: __ZNSt3__14swapB8ne180100IxEENS_9enable_ifIXaasr21is_move_constructibleIT_EE5valuesr18is_move_assignableIS2_EE5valueEvE4typeERS2_S5_, symObjAddr: 0x13974, symBinAddr: 0x10001650C, symSize: 0x3C }
  - { offset: 0x2415E, size: 0x8, addend: 0x0, symName: __ZNSt3__14swapB8ne180100IfEENS_9enable_ifIXaasr21is_move_constructibleIT_EE5valuesr18is_move_assignableIS2_EE5valueEvE4typeERS2_S5_, symObjAddr: 0x139B0, symBinAddr: 0x100016548, symSize: 0x3C }
  - { offset: 0x241AF, size: 0x8, addend: 0x0, symName: __ZNSt3__17__sort4B8ne180100INS_17_ClassicAlgPolicyERNS_6__lessIvvEEPNS_4pairIxfEEEEvT1_S8_S8_S8_T0_, symObjAddr: 0x139EC, symBinAddr: 0x100016584, symSize: 0xB8 }
  - { offset: 0x2422A, size: 0x8, addend: 0x0, symName: __ZNSt3__17__sort5B8ne180100INS_17_ClassicAlgPolicyERNS_6__lessIvvEEPNS_4pairIxfEEEEvT1_S8_S8_S8_S8_T0_, symObjAddr: 0x13AA4, symBinAddr: 0x10001663C, symSize: 0xE8 }
  - { offset: 0x242BE, size: 0x8, addend: 0x0, symName: __ZNSt3__123__debug_randomize_rangeB8ne180100INS_17_ClassicAlgPolicyEPNS_4pairIxfEES4_EEvT0_T1_, symObjAddr: 0x13C00, symBinAddr: 0x100016798, symSize: 0x14 }
  - { offset: 0x2430F, size: 0x8, addend: 0x0, symName: __ZNSt3__119__partial_sort_implB8ne180100INS_17_ClassicAlgPolicyERNS_6__lessIvvEEPNS_4pairIxfEES7_EET1_S8_S8_T2_OT0_, symObjAddr: 0x13C14, symBinAddr: 0x1000167AC, symSize: 0x110 }
  - { offset: 0x243A5, size: 0x8, addend: 0x0, symName: __ZNSt3__111__make_heapB8ne180100INS_17_ClassicAlgPolicyERNS_6__lessIvvEEPNS_4pairIxfEEEEvT1_S8_OT0_, symObjAddr: 0x13D24, symBinAddr: 0x1000168BC, symSize: 0xB8 }
  - { offset: 0x24447, size: 0x8, addend: 0x0, symName: __ZNSt3__111__sort_heapB8ne180100INS_17_ClassicAlgPolicyERNS_6__lessIvvEEPNS_4pairIxfEEEEvT1_S8_OT0_, symObjAddr: 0x13FE8, symBinAddr: 0x100016B80, symSize: 0xA8 }
  - { offset: 0x244E9, size: 0x8, addend: 0x0, symName: __ZNSt3__110__pop_heapB8ne180100INS_17_ClassicAlgPolicyENS_6__lessIvvEEPNS_4pairIxfEEEEvT1_S7_RT0_NS_15iterator_traitsIS7_E15difference_typeE, symObjAddr: 0x14090, symBinAddr: 0x100016C28, symSize: 0xF4 }
  - { offset: 0x24599, size: 0x8, addend: 0x0, symName: __ZNSt3__19__sift_upB8ne180100INS_17_ClassicAlgPolicyERNS_6__lessIvvEEPNS_4pairIxfEEEEvT1_S8_OT0_NS_15iterator_traitsIS8_E15difference_typeE, symObjAddr: 0x14284, symBinAddr: 0x100016E1C, symSize: 0x11C }
  - { offset: 0x24649, size: 0x8, addend: 0x0, symName: __ZNSt3__122__populate_left_bitsetB8ne180100IRNS_6__lessIvvEEPNS_4pairIxfEES5_EEvT0_T_RT1_Ry, symObjAddr: 0x143A0, symBinAddr: 0x100016F38, symSize: 0xA8 }
  - { offset: 0x24704, size: 0x8, addend: 0x0, symName: __ZNSt3__123__populate_right_bitsetB8ne180100IRNS_6__lessIvvEEPNS_4pairIxfEES5_EEvT0_T_RT1_Ry, symObjAddr: 0x14448, symBinAddr: 0x100016FE0, symSize: 0xA4 }
  - { offset: 0x247BF, size: 0x8, addend: 0x0, symName: __ZNSt3__117__swap_bitmap_posB8ne180100INS_17_ClassicAlgPolicyEPNS_4pairIxfEEEEvT0_S5_RyS6_, symObjAddr: 0x144EC, symBinAddr: 0x100017084, symSize: 0x100 }
  - { offset: 0x24860, size: 0x8, addend: 0x0, symName: __ZNSt3__133__bitset_partition_partial_blocksB8ne180100INS_17_ClassicAlgPolicyERNS_6__lessIvvEEPNS_4pairIxfEES6_EEvRT1_S9_T0_RT2_RySD_, symObjAddr: 0x145EC, symBinAddr: 0x100017184, symSize: 0x2E8 }
  - { offset: 0x249E1, size: 0x8, addend: 0x0, symName: __ZNSt3__19make_pairB8ne180100IRPNS_4pairIxfEERbEENS1_INS_18__unwrap_ref_decayIT_E4typeENS6_IT0_E4typeEEEOS7_OSA_, symObjAddr: 0x14AB4, symBinAddr: 0x10001764C, symSize: 0x38 }
  - { offset: 0x24A30, size: 0x8, addend: 0x0, symName: __ZNSt3__112__libcpp_ctzB8ne180100Ey, symObjAddr: 0x14AEC, symBinAddr: 0x100017684, symSize: 0x20 }
  - { offset: 0x24A5C, size: 0x8, addend: 0x0, symName: __ZNSt3__113__libcpp_blsrB8ne180100Ey, symObjAddr: 0x14B0C, symBinAddr: 0x1000176A4, symSize: 0x2C }
  - { offset: 0x24A88, size: 0x8, addend: 0x0, symName: __ZNSt3__112__libcpp_clzB8ne180100Ey, symObjAddr: 0x14B6C, symBinAddr: 0x100017704, symSize: 0x1C }
  - { offset: 0x24BDB, size: 0x8, addend: 0x0, symName: __ZNSt3__112__to_addressB8ne180100INS_11__wrap_iterIPNS_4pairIxfEEEEvEEu7__decayIDTclsr19__to_address_helperIT_EE6__callclsr3stdE7declvalIRKS6_EEEEES8_, symObjAddr: 0x14C24, symBinAddr: 0x1000177BC, symSize: 0x24 }
  - { offset: 0x24CBB, size: 0x8, addend: 0x0, symName: __ZNSt3__16__math4sqrtB8ne180100ImLi0EEEdT_, symObjAddr: 0x14E00, symBinAddr: 0x100017998, symSize: 0x1C }
  - { offset: 0x24CF6, size: 0x8, addend: 0x0, symName: __ZNSt3__16__math4sqrtB8ne180100Ef, symObjAddr: 0x160E4, symBinAddr: 0x100018C7C, symSize: 0x18 }
  - { offset: 0x24D22, size: 0x8, addend: 0x0, symName: __ZNSt3__16__math4ceilB8ne180100Ef, symObjAddr: 0x23B28, symBinAddr: 0x1000266C0, symSize: 0x18 }
  - { offset: 0x24D93, size: 0x8, addend: 0x0, symName: __ZNSt3__122__make_exception_guardB8ne180100INS_6vectorIPfNS_9allocatorIS2_EEE16__destroy_vectorEEENS_28__exception_guard_exceptionsIT_EES8_, symObjAddr: 0x14F60, symBinAddr: 0x100017AF8, symSize: 0x40 }
  - { offset: 0x24DC8, size: 0x8, addend: 0x0, symName: __ZNSt3__119__allocate_at_leastB8ne180100INS_9allocatorIPfEEEENS_19__allocation_resultINS_16allocator_traitsIT_E7pointerEEERS6_m, symObjAddr: 0x152F8, symBinAddr: 0x100017E90, symSize: 0x40 }
  - { offset: 0x24E0B, size: 0x8, addend: 0x0, symName: __ZNSt3__17reverseB8ne180100IPcEEvT_S2_, symObjAddr: 0x15AE8, symBinAddr: 0x100018680, symSize: 0x2C }
  - { offset: 0x24E4A, size: 0x8, addend: 0x0, symName: __ZNSt3__19__reverseB8ne180100INS_17_ClassicAlgPolicyEPcS2_EEvT0_T1_, symObjAddr: 0x15B14, symBinAddr: 0x1000186AC, symSize: 0x2C }
  - { offset: 0x24E9B, size: 0x8, addend: 0x0, symName: __ZNSt3__114__reverse_implB8ne180100INS_17_ClassicAlgPolicyEPcEEvT0_S3_NS_26random_access_iterator_tagE, symObjAddr: 0x15B40, symBinAddr: 0x1000186D8, symSize: 0x80 }
  - { offset: 0x24EED, size: 0x8, addend: 0x0, symName: __ZNSt3__19iter_swapB8ne180100IPcS1_EEvT_T0_, symObjAddr: 0x15BF4, symBinAddr: 0x10001878C, symSize: 0x2C }
  - { offset: 0x24F35, size: 0x8, addend: 0x0, symName: __ZNSt3__14swapB8ne180100IcEENS_9enable_ifIXaasr21is_move_constructibleIT_EE5valuesr18is_move_assignableIS2_EE5valueEvE4typeERS2_S5_, symObjAddr: 0x15C20, symBinAddr: 0x1000187B8, symSize: 0x3C }
  - { offset: 0x24F86, size: 0x8, addend: 0x0, symName: __ZNSt3__113inner_productB8ne180100INS_11__wrap_iterIPKfEES4_fNS_4plusIfEEZNK25euclidean_distance_matrixclExxEUlffE_EET1_T_SA_T0_S9_T2_T3_, symObjAddr: 0x160FC, symBinAddr: 0x100018C94, symSize: 0x9C }
  - { offset: 0x25025, size: 0x8, addend: 0x0, symName: __ZNSt3__1neB8ne180100IPKfEEbRKNS_11__wrap_iterIT_EES7_, symObjAddr: 0x16224, symBinAddr: 0x100018DBC, symSize: 0x34 }
  - { offset: 0x250D0, size: 0x8, addend: 0x0, symName: __ZNSt3__1eqB8ne180100IPKfEEbRKNS_11__wrap_iterIT_EES7_, symObjAddr: 0x162F0, symBinAddr: 0x100018E88, symSize: 0x48 }
  - { offset: 0x25113, size: 0x8, addend: 0x0, symName: __ZNSt3__111__str_rfindB8ne180100IcmNS_11char_traitsIcEELm18446744073709551615EEET0_PKT_S3_S6_S3_S3_, symObjAddr: 0x16430, symBinAddr: 0x100018FC8, symSize: 0x128 }
  - { offset: 0x251BA, size: 0x8, addend: 0x0, symName: __ZNSt3__118__find_end_classicB8ne180100IPKcS2_FbccEEET_S4_S4_T0_S5_RT1_, symObjAddr: 0x16558, symBinAddr: 0x1000190F0, symSize: 0x5C }
  - { offset: 0x25247, size: 0x8, addend: 0x0, symName: __ZNSt3__115__find_end_implB8ne180100INS_17_ClassicAlgPolicyEPKcS3_S3_S3_FbccENS_10__identityES5_EENS_4pairIT0_S7_EES7_T1_T2_T3_RT4_RT5_RT6_NS_20forward_iterator_tagESI_, symObjAddr: 0x165B4, symBinAddr: 0x10001914C, symSize: 0x1F4 }
  - { offset: 0x2543F, size: 0x8, addend: 0x0, symName: __ZNSt3__18__invokeB8ne180100IRFbccEJRKcS4_EEEDTclclsr3stdE7declvalIT_EEspclsr3stdE7declvalIT0_EEEEOS5_DpOS6_, symObjAddr: 0x167FC, symBinAddr: 0x100019394, symSize: 0x40 }
  - { offset: 0x254A4, size: 0x8, addend: 0x0, symName: __ZNSt3__18__invokeB8ne180100IRNS_10__identityEJRKcEEEDTclclsr3stdE7declvalIT_EEspclsr3stdE7declvalIT0_EEEEOS5_DpOS6_, symObjAddr: 0x1683C, symBinAddr: 0x1000193D4, symSize: 0x2C }
  - { offset: 0x25545, size: 0x8, addend: 0x0, symName: __ZNSt3__13minB8ne180100IxEERKT_S3_S3_, symObjAddr: 0x16A44, symBinAddr: 0x1000195DC, symSize: 0x2C }
  - { offset: 0x25588, size: 0x8, addend: 0x0, symName: __ZNSt3__13minB8ne180100IxNS_6__lessIvvEEEERKT_S5_S5_T0_, symObjAddr: 0x16B44, symBinAddr: 0x1000196DC, symSize: 0x54 }
  - { offset: 0x255E2, size: 0x8, addend: 0x0, symName: __ZNSt3__122__make_exception_guardB8ne180100INS_6vectorINS1_IxNS_9allocatorIxEEEENS2_IS4_EEE16__destroy_vectorEEENS_28__exception_guard_exceptionsIT_EES9_, symObjAddr: 0x171E0, symBinAddr: 0x100019D78, symSize: 0x40 }
  - { offset: 0x25617, size: 0x8, addend: 0x0, symName: __ZNSt3__119__allocate_at_leastB8ne180100INS_9allocatorINS_6vectorIxNS1_IxEEEEEEEENS_19__allocation_resultINS_16allocator_traitsIT_E7pointerEEERS8_m, symObjAddr: 0x17588, symBinAddr: 0x10001A120, symSize: 0x40 }
  - { offset: 0x2565A, size: 0x8, addend: 0x0, symName: __ZNSt3__130__uninitialized_allocator_copyB8ne180100INS_9allocatorIxEEPxS3_S3_EET2_RT_T0_T1_S4_, symObjAddr: 0x17B00, symBinAddr: 0x10001A698, symSize: 0x80 }
  - { offset: 0x256F7, size: 0x8, addend: 0x0, symName: __ZNSt3__114__unwrap_rangeB8ne180100IPxS1_EENS_4pairIT0_S3_EET_S5_, symObjAddr: 0x17B80, symBinAddr: 0x10001A718, symSize: 0x60 }
  - { offset: 0x25743, size: 0x8, addend: 0x0, symName: __ZNSt3__135__uninitialized_allocator_copy_implB8ne180100INS_9allocatorIxEExxxLPv0EEEPT2_RT_PT0_S9_S5_, symObjAddr: 0x17BE0, symBinAddr: 0x10001A778, symSize: 0x38 }
  - { offset: 0x257C4, size: 0x8, addend: 0x0, symName: __ZNSt3__113__unwrap_iterB8ne180100IPxNS_18__unwrap_iter_implIS1_Lb1EEELi0EEEDTclsrT0_8__unwrapclsr3stdE7declvalIT_EEEES5_, symObjAddr: 0x17C18, symBinAddr: 0x10001A7B0, symSize: 0x24 }
  - { offset: 0x25808, size: 0x8, addend: 0x0, symName: __ZNSt3__113__rewrap_iterB8ne180100IPxS1_NS_18__unwrap_iter_implIS1_Lb1EEEEET_S4_T0_, symObjAddr: 0x17C3C, symBinAddr: 0x10001A7D4, symSize: 0x3C }
  - { offset: 0x2585D, size: 0x8, addend: 0x0, symName: __ZNSt3__19make_pairB8ne180100IPxS1_EENS_4pairINS_18__unwrap_ref_decayIT_E4typeENS3_IT0_E4typeEEEOS4_OS7_, symObjAddr: 0x17C78, symBinAddr: 0x10001A810, symSize: 0x38 }
  - { offset: 0x259AF, size: 0x8, addend: 0x0, symName: __ZNSt3__14copyB8ne180100IPxS1_EET0_T_S3_S2_, symObjAddr: 0x17D20, symBinAddr: 0x10001A8B8, symSize: 0x40 }
  - { offset: 0x25A09, size: 0x8, addend: 0x0, symName: __ZNSt3__16__copyB8ne180100INS_17_ClassicAlgPolicyEPxS2_S2_EENS_4pairIT0_T2_EES4_T1_S5_, symObjAddr: 0x17D60, symBinAddr: 0x10001A8F8, symSize: 0x44 }
  - { offset: 0x25A75, size: 0x8, addend: 0x0, symName: __ZNSt3__123__dispatch_copy_or_moveB8ne180100INS_17_ClassicAlgPolicyENS_11__copy_loopIS1_EENS_14__copy_trivialEPxS5_S5_EENS_4pairIT2_T4_EES7_T3_S8_, symObjAddr: 0x17DA4, symBinAddr: 0x10001A93C, symSize: 0x44 }
  - { offset: 0x25AF3, size: 0x8, addend: 0x0, symName: __ZNSt3__121__unwrap_and_dispatchB8ne180100INS_10__overloadINS_11__copy_loopINS_17_ClassicAlgPolicyEEENS_14__copy_trivialEEEPxS7_S7_Li0EEENS_4pairIT0_T2_EES9_T1_SA_, symObjAddr: 0x17DE8, symBinAddr: 0x10001A980, symSize: 0xB4 }
  - { offset: 0x25B81, size: 0x8, addend: 0x0, symName: __ZNSt3__114__rewrap_rangeB8ne180100IPxS1_EET_S2_T0_, symObjAddr: 0x17EE4, symBinAddr: 0x10001AA7C, symSize: 0x2C }
  - { offset: 0x25BCD, size: 0x8, addend: 0x0, symName: __ZNSt3__119__copy_trivial_implB8ne180100IxxEENS_4pairIPT_PT0_EES3_S3_S5_, symObjAddr: 0x17F10, symBinAddr: 0x10001AAA8, symSize: 0x80 }
  - { offset: 0x25C35, size: 0x8, addend: 0x0, symName: __ZNSt3__119__constexpr_memmoveB8ne180100IxxLi0EEEPT_S2_PT0_NS_15__element_countE, symObjAddr: 0x17F90, symBinAddr: 0x10001AB28, symSize: 0x64 }
  - { offset: 0x25CA3, size: 0x8, addend: 0x0, symName: __ZNSt3__19make_pairB8ne180100IRPxS1_EENS_4pairINS_18__unwrap_ref_decayIT_E4typeENS4_IT0_E4typeEEEOS5_OS8_, symObjAddr: 0x17FF4, symBinAddr: 0x10001AB8C, symSize: 0x38 }
  - { offset: 0x25D45, size: 0x8, addend: 0x0, symName: __ZNSt3__14sortB8ne180100INS_16reverse_iteratorINS_11__wrap_iterIPNS_4pairIfxEEEEEEPFbRKS4_S9_EEEvT_SC_T0_, symObjAddr: 0x193AC, symBinAddr: 0x10001BF44, symSize: 0x58 }
  - { offset: 0x25D9F, size: 0x8, addend: 0x0, symName: __ZNSt3__1neB8ne180100IPNS_4pairIfxEEEEbRKNS_11__wrap_iterIT_EES8_, symObjAddr: 0x195B4, symBinAddr: 0x10001C14C, symSize: 0x34 }
  - { offset: 0x25DE2, size: 0x8, addend: 0x0, symName: __ZNSt3__17reverseB8ne180100INS_11__wrap_iterIPNS_4pairIfxEEEEEEvT_S6_, symObjAddr: 0x19B20, symBinAddr: 0x10001C6B8, symSize: 0x3C }
  - { offset: 0x25E21, size: 0x8, addend: 0x0, symName: __ZNSt3__122__make_exception_guardB8ne180100INS_6vectorIhNS_9allocatorIhEEE16__destroy_vectorEEENS_28__exception_guard_exceptionsIT_EES7_, symObjAddr: 0x19DA4, symBinAddr: 0x10001C93C, symSize: 0x40 }
  - { offset: 0x25E56, size: 0x8, addend: 0x0, symName: __ZNSt3__119__allocate_at_leastB8ne180100INS_9allocatorIhEEEENS_19__allocation_resultINS_16allocator_traitsIT_E7pointerEEERS5_m, symObjAddr: 0x1A198, symBinAddr: 0x10001CD30, symSize: 0x40 }
  - { offset: 0x25E99, size: 0x8, addend: 0x0, symName: __ZNSt3__112__to_addressB8ne180100IhEEPT_S2_, symObjAddr: 0x1A40C, symBinAddr: 0x10001CFA4, symSize: 0x14 }
  - { offset: 0x25ECE, size: 0x8, addend: 0x0, symName: __ZNSt3__111__sort_implB8ne180100INS_17_ClassicAlgPolicyENS_16reverse_iteratorINS_11__wrap_iterIPNS_4pairIfxEEEEEEPFbRKS5_SA_EEEvT0_SD_RT1_, symObjAddr: 0x1A9AC, symBinAddr: 0x10001D544, symSize: 0xF0 }
  - { offset: 0x25F31, size: 0x8, addend: 0x0, symName: __ZNSt3__123__debug_randomize_rangeB8ne180100INS_17_ClassicAlgPolicyENS_16reverse_iteratorINS_11__wrap_iterIPNS_4pairIfxEEEEEES8_EEvT0_T1_, symObjAddr: 0x1AA9C, symBinAddr: 0x10001D634, symSize: 0x1C }
  - { offset: 0x25F82, size: 0x8, addend: 0x0, symName: __ZNSt3__115__sort_dispatchB8ne180100INS_17_ClassicAlgPolicyENS_16reverse_iteratorINS_11__wrap_iterIPNS_4pairIfxEEEEEEPFbRKS5_SA_EEEvT0_SD_RT1_, symObjAddr: 0x1AAB8, symBinAddr: 0x10001D650, symSize: 0x80 }
  - { offset: 0x26000, size: 0x8, addend: 0x0, symName: __ZNSt3__113__unwrap_iterB8ne180100INS_16reverse_iteratorINS_11__wrap_iterIPNS_4pairIfxEEEEEENS_18__unwrap_iter_implIS7_Lb0EEELi0EEEDTclsrT0_8__unwrapclsr3stdE7declvalIT_EEEESB_, symObjAddr: 0x1AB38, symBinAddr: 0x10001D6D0, symSize: 0x44 }
  - { offset: 0x26044, size: 0x8, addend: 0x0, symName: __ZNSt3__135__check_strict_weak_ordering_sortedB8ne180100INS_16reverse_iteratorINS_11__wrap_iterIPNS_4pairIfxEEEEEEPFbRKS4_S9_EEEvT_SC_RT0_, symObjAddr: 0x1AB7C, symBinAddr: 0x10001D714, symSize: 0x20 }
  - { offset: 0x2609A, size: 0x8, addend: 0x0, symName: __ZNSt3__1miB8ne180100INS_11__wrap_iterIPNS_4pairIfxEEEES5_EEDTmicldtfp0_4baseEcldtfp_4baseEERKNS_16reverse_iteratorIT_EERKNS7_IT0_EE, symObjAddr: 0x1AB9C, symBinAddr: 0x10001D734, symSize: 0x50 }
  - { offset: 0x260E9, size: 0x8, addend: 0x0, symName: __ZNSt3__1miB8ne180100IPNS_4pairIfxEES3_EEDTmicldtfp_4baseEcldtfp0_4baseEERKNS_11__wrap_iterIT_EERKNS5_IT0_EE, symObjAddr: 0x1B3D0, symBinAddr: 0x10001DF68, symSize: 0x48 }
  - { offset: 0x26135, size: 0x8, addend: 0x0, symName: __ZNSt3__124__sort3_maybe_branchlessB8ne180100INS_17_ClassicAlgPolicyERPFbRKNS_4pairIfxEES5_ENS_16reverse_iteratorINS_11__wrap_iterIPS3_EEEELi0EEEvT1_SE_SE_T0_, symObjAddr: 0x1B500, symBinAddr: 0x10001E098, symSize: 0x6C }
  - { offset: 0x261A8, size: 0x8, addend: 0x0, symName: __ZNSt3__124__sort4_maybe_branchlessB8ne180100INS_17_ClassicAlgPolicyERPFbRKNS_4pairIfxEES5_ENS_16reverse_iteratorINS_11__wrap_iterIPS3_EEEELi0EEEvT1_SE_SE_SE_T0_, symObjAddr: 0x1B5B4, symBinAddr: 0x10001E14C, symSize: 0x90 }
  - { offset: 0x2622A, size: 0x8, addend: 0x0, symName: __ZNSt3__124__sort5_maybe_branchlessB8ne180100INS_17_ClassicAlgPolicyERPFbRKNS_4pairIfxEES5_ENS_16reverse_iteratorINS_11__wrap_iterIPS3_EEEELi0EEEvT1_SE_SE_SE_SE_T0_, symObjAddr: 0x1B644, symBinAddr: 0x10001E1DC, symSize: 0xB8 }
  - { offset: 0x262C2, size: 0x8, addend: 0x0, symName: __ZNSt3__116__insertion_sortB8ne180100INS_17_ClassicAlgPolicyERPFbRKNS_4pairIfxEES5_ENS_16reverse_iteratorINS_11__wrap_iterIPS3_EEEEEEvT1_SE_T0_, symObjAddr: 0x1B6FC, symBinAddr: 0x10001E294, symSize: 0x190 }
  - { offset: 0x2638C, size: 0x8, addend: 0x0, symName: __ZNSt3__114__partial_sortB8ne180100INS_17_ClassicAlgPolicyERPFbRKNS_4pairIfxEES5_ENS_16reverse_iteratorINS_11__wrap_iterIPS3_EEEESD_EET1_SE_SE_T2_RT0_, symObjAddr: 0x1BA24, symBinAddr: 0x10001E5BC, symSize: 0x110 }
  - { offset: 0x26415, size: 0x8, addend: 0x0, symName: __ZNSt3__17__sort3B8ne180100INS_17_ClassicAlgPolicyERPFbRKNS_4pairIfxEES5_ENS_16reverse_iteratorINS_11__wrap_iterIPS3_EEEEEEjT1_SE_SE_T0_, symObjAddr: 0x1BB34, symBinAddr: 0x10001E6CC, symSize: 0x208 }
  - { offset: 0x26495, size: 0x8, addend: 0x0, symName: __ZNSt3__19iter_swapB8ne180100INS_16reverse_iteratorINS_11__wrap_iterIPNS_4pairIfxEEEEEES7_EEvT_T0_, symObjAddr: 0x1CBE4, symBinAddr: 0x10001F77C, symSize: 0x58 }
  - { offset: 0x264DD, size: 0x8, addend: 0x0, symName: __ZNSt3__14swapB8ne180100IfxLi0EEEvRNS_4pairIT_T0_EES5_, symObjAddr: 0x1CC3C, symBinAddr: 0x10001F7D4, symSize: 0x2C }
  - { offset: 0x2652E, size: 0x8, addend: 0x0, symName: __ZNSt3__17__sort4B8ne180100INS_17_ClassicAlgPolicyERPFbRKNS_4pairIfxEES5_ENS_16reverse_iteratorINS_11__wrap_iterIPS3_EEEEEEvT1_SE_SE_SE_T0_, symObjAddr: 0x1CDA8, symBinAddr: 0x10001F940, symSize: 0x16C }
  - { offset: 0x265AA, size: 0x8, addend: 0x0, symName: __ZNSt3__17__sort5B8ne180100INS_17_ClassicAlgPolicyERPFbRKNS_4pairIfxEES5_ENS_16reverse_iteratorINS_11__wrap_iterIPS3_EEEEEEvT1_SE_SE_SE_SE_T0_, symObjAddr: 0x1CF14, symBinAddr: 0x10001FAAC, symSize: 0x1E8 }
  - { offset: 0x26636, size: 0x8, addend: 0x0, symName: __ZNSt3__1eqB8ne180100INS_11__wrap_iterIPNS_4pairIfxEEEES5_EEbRKNS_16reverse_iteratorIT_EERKNS6_IT0_EE, symObjAddr: 0x1D0FC, symBinAddr: 0x10001FC94, symSize: 0x54 }
  - { offset: 0x26682, size: 0x8, addend: 0x0, symName: __ZNSt3__1neB8ne180100INS_11__wrap_iterIPNS_4pairIfxEEEES5_EEbRKNS_16reverse_iteratorIT_EERKNS6_IT0_EE, symObjAddr: 0x1D150, symBinAddr: 0x10001FCE8, symSize: 0x54 }
  - { offset: 0x266D9, size: 0x8, addend: 0x0, symName: __ZNSt3__1eqB8ne180100IPNS_4pairIfxEEEEbRKNS_11__wrap_iterIT_EES8_, symObjAddr: 0x1D1FC, symBinAddr: 0x10001FD94, symSize: 0x48 }
  - { offset: 0x2671C, size: 0x8, addend: 0x0, symName: __ZNSt3__119__partial_sort_implB8ne180100INS_17_ClassicAlgPolicyERPFbRKNS_4pairIfxEES5_ENS_16reverse_iteratorINS_11__wrap_iterIPS3_EEEESD_EET1_SE_SE_T2_OT0_, symObjAddr: 0x1D274, symBinAddr: 0x10001FE0C, symSize: 0x1A4 }
  - { offset: 0x267B5, size: 0x8, addend: 0x0, symName: __ZNSt3__111__make_heapB8ne180100INS_17_ClassicAlgPolicyERPFbRKNS_4pairIfxEES5_ENS_16reverse_iteratorINS_11__wrap_iterIPS3_EEEEEEvT1_SE_OT0_, symObjAddr: 0x1D418, symBinAddr: 0x10001FFB0, symSize: 0xE8 }
  - { offset: 0x26857, size: 0x8, addend: 0x0, symName: __ZNSt3__111__sort_heapB8ne180100INS_17_ClassicAlgPolicyERPFbRKNS_4pairIfxEES5_ENS_16reverse_iteratorINS_11__wrap_iterIPS3_EEEEEEvT1_SE_OT0_, symObjAddr: 0x1D7FC, symBinAddr: 0x100020394, symSize: 0xD8 }
  - { offset: 0x268FB, size: 0x8, addend: 0x0, symName: __ZNSt3__110__pop_heapB8ne180100INS_17_ClassicAlgPolicyEPFbRKNS_4pairIfxEES5_ENS_16reverse_iteratorINS_11__wrap_iterIPS3_EEEEEEvT1_SD_RT0_NS_15iterator_traitsISD_E15difference_typeE, symObjAddr: 0x1D8D4, symBinAddr: 0x10002046C, symSize: 0x140 }
  - { offset: 0x269AD, size: 0x8, addend: 0x0, symName: __ZNSt3__19__sift_upB8ne180100INS_17_ClassicAlgPolicyERPFbRKNS_4pairIfxEES5_ENS_16reverse_iteratorINS_11__wrap_iterIPS3_EEEEEEvT1_SE_OT0_NS_15iterator_traitsISE_E15difference_typeE, symObjAddr: 0x1DB6C, symBinAddr: 0x100020704, symSize: 0x170 }
  - { offset: 0x26A5E, size: 0x8, addend: 0x0, symName: __ZNSt3__1ltB8ne180100INS_11__wrap_iterIPNS_4pairIfxEEEES5_EEbRKNS_16reverse_iteratorIT_EERKNS6_IT0_EE, symObjAddr: 0x1DD50, symBinAddr: 0x1000208E8, symSize: 0x54 }
  - { offset: 0x26AAA, size: 0x8, addend: 0x0, symName: __ZNSt3__1gtB8ne180100IPNS_4pairIfxEEEEbRKNS_11__wrap_iterIT_EES8_, symObjAddr: 0x1DDA4, symBinAddr: 0x10002093C, symSize: 0x30 }
  - { offset: 0x26AED, size: 0x8, addend: 0x0, symName: __ZNSt3__1ltB8ne180100IPNS_4pairIfxEEEEbRKNS_11__wrap_iterIT_EES8_, symObjAddr: 0x1DDD4, symBinAddr: 0x10002096C, symSize: 0x48 }
  - { offset: 0x26B30, size: 0x8, addend: 0x0, symName: __ZNSt3__1geB8ne180100INS_11__wrap_iterIPNS_4pairIfxEEEES5_EEbRKNS_16reverse_iteratorIT_EERKNS6_IT0_EE, symObjAddr: 0x1DE1C, symBinAddr: 0x1000209B4, symSize: 0x54 }
  - { offset: 0x26B7C, size: 0x8, addend: 0x0, symName: __ZNSt3__122__populate_left_bitsetB8ne180100IRPFbRKNS_4pairIfxEES4_ENS_16reverse_iteratorINS_11__wrap_iterIPS2_EEEES2_EEvT0_T_RT1_Ry, symObjAddr: 0x1DE70, symBinAddr: 0x100020A08, symSize: 0xC0 }
  - { offset: 0x26C37, size: 0x8, addend: 0x0, symName: __ZNSt3__123__populate_right_bitsetB8ne180100IRPFbRKNS_4pairIfxEES4_ENS_16reverse_iteratorINS_11__wrap_iterIPS2_EEEES2_EEvT0_T_RT1_Ry, symObjAddr: 0x1DF30, symBinAddr: 0x100020AC8, symSize: 0xBC }
  - { offset: 0x26CF2, size: 0x8, addend: 0x0, symName: __ZNSt3__117__swap_bitmap_posB8ne180100INS_17_ClassicAlgPolicyENS_16reverse_iteratorINS_11__wrap_iterIPNS_4pairIfxEEEEEEEEvT0_S9_RySA_, symObjAddr: 0x1DFEC, symBinAddr: 0x100020B84, symSize: 0x118 }
  - { offset: 0x26D93, size: 0x8, addend: 0x0, symName: __ZNSt3__133__bitset_partition_partial_blocksB8ne180100INS_17_ClassicAlgPolicyERPFbRKNS_4pairIfxEES5_ENS_16reverse_iteratorINS_11__wrap_iterIPS3_EEEES3_EEvRT1_SF_T0_RT2_RySJ_, symObjAddr: 0x1E13C, symBinAddr: 0x100020CD4, symSize: 0x300 }
  - { offset: 0x26F1A, size: 0x8, addend: 0x0, symName: __ZNSt3__19make_pairB8ne180100IRNS_16reverse_iteratorINS_11__wrap_iterIPNS_4pairIfxEEEEEERbEENS3_INS_18__unwrap_ref_decayIT_E4typeENSA_IT0_E4typeEEEOSB_OSE_, symObjAddr: 0x1E608, symBinAddr: 0x1000211A0, symSize: 0x38 }
  - { offset: 0x26F69, size: 0x8, addend: 0x0, symName: __ZNSt3__1leB8ne180100IPNS_4pairIfxEEEEbRKNS_11__wrap_iterIT_EES8_, symObjAddr: 0x1E640, symBinAddr: 0x1000211D8, symSize: 0x34 }
  - { offset: 0x270C8, size: 0x8, addend: 0x0, symName: __ZNSt3__112__to_addressB8ne180100INS_16reverse_iteratorINS_11__wrap_iterIPKNS_4pairIxfEEEEEEEEPT_SA_, symObjAddr: 0x1F91C, symBinAddr: 0x1000224B4, symSize: 0x14 }
  - { offset: 0x270FD, size: 0x8, addend: 0x0, symName: __ZNSt3__142__uninitialized_allocator_move_if_noexceptB8ne180100INS_9allocatorIxEENS_16reverse_iteratorIPxEES5_xvEET1_RT_T0_S9_S6_, symObjAddr: 0x20388, symBinAddr: 0x100022F20, symSize: 0x78 }
  - { offset: 0x2717A, size: 0x8, addend: 0x0, symName: __ZNSt3__14swapB8ne180100IPxEENS_9enable_ifIXaasr21is_move_constructibleIT_EE5valuesr18is_move_assignableIS3_EE5valueEvE4typeERS3_S6_, symObjAddr: 0x2044C, symBinAddr: 0x100022FE4, symSize: 0x3C }
  - { offset: 0x271CB, size: 0x8, addend: 0x0, symName: __ZNSt3__14moveB8ne180100INS_16reverse_iteratorIPxEES3_EET0_T_S5_S4_, symObjAddr: 0x20488, symBinAddr: 0x100023020, symSize: 0x78 }
  - { offset: 0x27225, size: 0x8, addend: 0x0, symName: __ZNSt3__16__moveB8ne180100INS_17_ClassicAlgPolicyENS_16reverse_iteratorIPxEES4_S4_EENS_4pairIT0_T2_EES6_T1_S7_, symObjAddr: 0x20500, symBinAddr: 0x100023098, symSize: 0x64 }
  - { offset: 0x27291, size: 0x8, addend: 0x0, symName: __ZNSt3__123__dispatch_copy_or_moveB8ne180100INS_17_ClassicAlgPolicyENS_11__move_loopIS1_EENS_14__move_trivialENS_16reverse_iteratorIPxEES7_S7_EENS_4pairIT2_T4_EES9_T3_SA_, symObjAddr: 0x20564, symBinAddr: 0x1000230FC, symSize: 0x64 }
  - { offset: 0x2730F, size: 0x8, addend: 0x0, symName: __ZNSt3__121__unwrap_and_dispatchB8ne180100INS_10__overloadINS_11__move_loopINS_17_ClassicAlgPolicyEEENS_14__move_trivialEEENS_16reverse_iteratorIPxEES9_S9_Li0EEENS_4pairIT0_T2_EESB_T1_SC_, symObjAddr: 0x205C8, symBinAddr: 0x100023160, symSize: 0x12C }
  - { offset: 0x2739F, size: 0x8, addend: 0x0, symName: __ZNSt3__114__unwrap_rangeB8ne180100INS_16reverse_iteratorIPxEES3_EENS_4pairIT0_S5_EET_S7_, symObjAddr: 0x206F4, symBinAddr: 0x10002328C, symSize: 0x84 }
  - { offset: 0x274BF, size: 0x8, addend: 0x0, symName: __ZNSt3__113__unwrap_iterB8ne180100INS_16reverse_iteratorIPxEENS_18__unwrap_iter_implIS3_Lb0EEELi0EEEDTclsrT0_8__unwrapclsr3stdE7declvalIT_EEEES7_, symObjAddr: 0x20818, symBinAddr: 0x1000233B0, symSize: 0x44 }
  - { offset: 0x27503, size: 0x8, addend: 0x0, symName: __ZNSt3__19make_pairB8ne180100INS_16reverse_iteratorIPxEES3_EENS_4pairINS_18__unwrap_ref_decayIT_E4typeENS5_IT0_E4typeEEEOS6_OS9_, symObjAddr: 0x2085C, symBinAddr: 0x1000233F4, symSize: 0x38 }
  - { offset: 0x27552, size: 0x8, addend: 0x0, symName: __ZNSt3__114__rewrap_rangeB8ne180100INS_16reverse_iteratorIPxEES3_EET_S4_T0_, symObjAddr: 0x20894, symBinAddr: 0x10002342C, symSize: 0x5C }
  - { offset: 0x2759E, size: 0x8, addend: 0x0, symName: __ZNSt3__113__rewrap_iterB8ne180100INS_16reverse_iteratorIPxEES3_NS_18__unwrap_iter_implIS3_Lb0EEEEET_S6_T0_, symObjAddr: 0x208F0, symBinAddr: 0x100023488, symSize: 0x74 }
  - { offset: 0x275F3, size: 0x8, addend: 0x0, symName: __ZNSt3__1neB8ne180100IPxS1_EEbRKNS_16reverse_iteratorIT_EERKNS2_IT0_EE, symObjAddr: 0x20964, symBinAddr: 0x1000234FC, symSize: 0x48 }
  - { offset: 0x27692, size: 0x8, addend: 0x0, symName: __ZNSt3__119__allocate_at_leastB8ne180100INS_9allocatorINS_16reverse_iteratorINS_11__wrap_iterIPKNS_4pairIxfEEEEEEEEEENS_19__allocation_resultINS_16allocator_traitsIT_E7pointerEEERSD_m, symObjAddr: 0x21680, symBinAddr: 0x100024218, symSize: 0x40 }
  - { offset: 0x276D5, size: 0x8, addend: 0x0, symName: __ZNSt3__142__uninitialized_allocator_move_if_noexceptB8ne180100INS_9allocatorINS_16reverse_iteratorINS_11__wrap_iterIPKNS_4pairIxfEEEEEEEENS2_IPS9_EESC_S9_vEET1_RT_T0_SG_SD_, symObjAddr: 0x21900, symBinAddr: 0x100024498, symSize: 0x78 }
  - { offset: 0x27752, size: 0x8, addend: 0x0, symName: __ZNSt3__14swapB8ne180100IPNS_16reverse_iteratorINS_11__wrap_iterIPKNS_4pairIxfEEEEEEEENS_9enable_ifIXaasr21is_move_constructibleIT_EE5valuesr18is_move_assignableISB_EE5valueEvE4typeERSB_SE_, symObjAddr: 0x219C4, symBinAddr: 0x10002455C, symSize: 0x3C }
  - { offset: 0x277A3, size: 0x8, addend: 0x0, symName: __ZNSt3__14moveB8ne180100INS_16reverse_iteratorIPNS1_INS_11__wrap_iterIPKNS_4pairIxfEEEEEEEESA_EET0_T_SC_SB_, symObjAddr: 0x21A14, symBinAddr: 0x1000245AC, symSize: 0x78 }
  - { offset: 0x277FD, size: 0x8, addend: 0x0, symName: __ZNSt3__16__moveB8ne180100INS_17_ClassicAlgPolicyENS_16reverse_iteratorIPNS2_INS_11__wrap_iterIPKNS_4pairIxfEEEEEEEESB_SB_EENS4_IT0_T2_EESC_T1_SD_, symObjAddr: 0x21A8C, symBinAddr: 0x100024624, symSize: 0x64 }
  - { offset: 0x27869, size: 0x8, addend: 0x0, symName: __ZNSt3__123__dispatch_copy_or_moveB8ne180100INS_17_ClassicAlgPolicyENS_11__move_loopIS1_EENS_14__move_trivialENS_16reverse_iteratorIPNS5_INS_11__wrap_iterIPKNS_4pairIxfEEEEEEEESE_SE_EENS7_IT2_T4_EESF_T3_SG_, symObjAddr: 0x21AF0, symBinAddr: 0x100024688, symSize: 0x64 }
  - { offset: 0x278E7, size: 0x8, addend: 0x0, symName: __ZNSt3__121__unwrap_and_dispatchB8ne180100INS_10__overloadINS_11__move_loopINS_17_ClassicAlgPolicyEEENS_14__move_trivialEEENS_16reverse_iteratorIPNS7_INS_11__wrap_iterIPKNS_4pairIxfEEEEEEEESG_SG_Li0EEENS9_IT0_T2_EESH_T1_SI_, symObjAddr: 0x21B54, symBinAddr: 0x1000246EC, symSize: 0x12C }
  - { offset: 0x27977, size: 0x8, addend: 0x0, symName: __ZNSt3__114__unwrap_rangeB8ne180100INS_16reverse_iteratorIPNS1_INS_11__wrap_iterIPKNS_4pairIxfEEEEEEEESA_EENS3_IT0_SB_EET_SD_, symObjAddr: 0x21C80, symBinAddr: 0x100024818, symSize: 0x84 }
  - { offset: 0x27A97, size: 0x8, addend: 0x0, symName: __ZNSt3__113__unwrap_iterB8ne180100INS_16reverse_iteratorIPNS1_INS_11__wrap_iterIPKNS_4pairIxfEEEEEEEENS_18__unwrap_iter_implISA_Lb0EEELi0EEEDTclsrT0_8__unwrapclsr3stdE7declvalIT_EEEESE_, symObjAddr: 0x21DA4, symBinAddr: 0x10002493C, symSize: 0x44 }
  - { offset: 0x27ADB, size: 0x8, addend: 0x0, symName: __ZNSt3__19make_pairB8ne180100INS_16reverse_iteratorIPNS1_INS_11__wrap_iterIPKNS_4pairIxfEEEEEEEESA_EENS3_INS_18__unwrap_ref_decayIT_E4typeENSB_IT0_E4typeEEEOSC_OSF_, symObjAddr: 0x21DE8, symBinAddr: 0x100024980, symSize: 0x38 }
  - { offset: 0x27B2A, size: 0x8, addend: 0x0, symName: __ZNSt3__114__rewrap_rangeB8ne180100INS_16reverse_iteratorIPNS1_INS_11__wrap_iterIPKNS_4pairIxfEEEEEEEESA_EET_SB_T0_, symObjAddr: 0x21E20, symBinAddr: 0x1000249B8, symSize: 0x5C }
  - { offset: 0x27B76, size: 0x8, addend: 0x0, symName: __ZNSt3__113__rewrap_iterB8ne180100INS_16reverse_iteratorIPNS1_INS_11__wrap_iterIPKNS_4pairIxfEEEEEEEESA_NS_18__unwrap_iter_implISA_Lb0EEEEET_SD_T0_, symObjAddr: 0x21E7C, symBinAddr: 0x100024A14, symSize: 0x74 }
  - { offset: 0x27BCB, size: 0x8, addend: 0x0, symName: __ZNSt3__1neB8ne180100IPNS_16reverse_iteratorINS_11__wrap_iterIPKNS_4pairIxfEEEEEES9_EEbRKNS1_IT_EERKNS1_IT0_EE, symObjAddr: 0x21EF0, symBinAddr: 0x100024A88, symSize: 0x48 }
  - { offset: 0x27C6A, size: 0x8, addend: 0x0, symName: __ZNSt3__1neB8ne180100INS_11__wrap_iterIPKNS_4pairIxfEEEES6_EEbRKNS_16reverse_iteratorIT_EERKNS7_IT0_EE, symObjAddr: 0x222F0, symBinAddr: 0x100024E88, symSize: 0x54 }
  - { offset: 0x27CB6, size: 0x8, addend: 0x0, symName: __ZNSt3__1eqB8ne180100INS_11__wrap_iterIPKNS_4pairIxfEEEES6_EEbRKNS_16reverse_iteratorIT_EERKNS7_IT0_EE, symObjAddr: 0x223A8, symBinAddr: 0x100024F40, symSize: 0x54 }
  - { offset: 0x27D02, size: 0x8, addend: 0x0, symName: __ZNSt3__13maxB8ne180100INS_4pairIxfEEEERKT_S5_S5_, symObjAddr: 0x2242C, symBinAddr: 0x100024FC4, symSize: 0x2C }
  - { offset: 0x27D45, size: 0x8, addend: 0x0, symName: __ZNSt3__13maxB8ne180100INS_4pairIxfEENS_6__lessIvvEEEERKT_S7_S7_T0_, symObjAddr: 0x22498, symBinAddr: 0x100025030, symSize: 0x54 }
  - { offset: 0x27D9F, size: 0x8, addend: 0x0, symName: __ZNSt3__111lower_boundB8ne180100INS_11__wrap_iterIPKNS_4pairIxfEEEES3_EET_S7_S7_RKT0_, symObjAddr: 0x22BA8, symBinAddr: 0x100025740, symSize: 0x4C }
  - { offset: 0x27DF9, size: 0x8, addend: 0x0, symName: __ZNSt3__111lower_boundB8ne180100INS_11__wrap_iterIPKNS_4pairIxfEEEES3_NS_6__lessIvvEEEET_S9_S9_RKT0_T1_, symObjAddr: 0x22C30, symBinAddr: 0x1000257C8, symSize: 0x58 }
  - { offset: 0x27E78, size: 0x8, addend: 0x0, symName: __ZNSt3__113__lower_boundB8ne180100INS_17_ClassicAlgPolicyENS_11__wrap_iterIPKNS_4pairIxfEEEES7_S4_NS_10__identityENS_6__lessIvvEEEET0_SB_T1_RKT2_RT4_RT3_, symObjAddr: 0x22C88, symBinAddr: 0x100025820, symSize: 0x108 }
  - { offset: 0x27F4A, size: 0x8, addend: 0x0, symName: __ZNSt3__115__half_positiveB8ne180100IlLi0EEET_S1_, symObjAddr: 0x22DCC, symBinAddr: 0x100025964, symSize: 0x1C }
  - { offset: 0x27F85, size: 0x8, addend: 0x0, symName: __ZNSt3__18__invokeB8ne180100IRNS_6__lessIvvEEJRKNS_4pairIxfEES7_EEEDTclclsr3stdE7declvalIT_EEspclsr3stdE7declvalIT0_EEEEOS8_DpOS9_, symObjAddr: 0x22E14, symBinAddr: 0x1000259AC, symSize: 0x38 }
  - { offset: 0x27FEA, size: 0x8, addend: 0x0, symName: __ZNSt3__18__invokeB8ne180100IRNS_10__identityEJRKNS_4pairIxfEEEEEDTclclsr3stdE7declvalIT_EEspclsr3stdE7declvalIT0_EEEEOS7_DpOS8_, symObjAddr: 0x22E4C, symBinAddr: 0x1000259E4, symSize: 0x2C }
  - { offset: 0x2803B, size: 0x8, addend: 0x0, symName: __ZNSt3__18distanceB8ne180100INS_11__wrap_iterIPKNS_4pairIxfEEEEEENS_15iterator_traitsIT_E15difference_typeES8_S8_, symObjAddr: 0x22E78, symBinAddr: 0x100025A10, symSize: 0x3C }
  - { offset: 0x2807E, size: 0x8, addend: 0x0, symName: __ZNSt3__110__distanceB8ne180100INS_11__wrap_iterIPKNS_4pairIxfEEEEEENS_15iterator_traitsIT_E15difference_typeES8_S8_NS_26random_access_iterator_tagE, symObjAddr: 0x22EB4, symBinAddr: 0x100025A4C, symSize: 0x30 }
  - { offset: 0x280CB, size: 0x8, addend: 0x0, symName: __ZNSt3__1miB8ne180100IPKNS_4pairIxfEES4_EEDTmicldtfp_4baseEcldtfp0_4baseEERKNS_11__wrap_iterIT_EERKNS6_IT0_EE, symObjAddr: 0x22EE4, symBinAddr: 0x100025A7C, symSize: 0x48 }
  - { offset: 0x28117, size: 0x8, addend: 0x0, symName: __ZNSt3__121__convert_to_integralB8ne180100El, symObjAddr: 0x22F64, symBinAddr: 0x100025AFC, symSize: 0x14 }
  - { offset: 0x28143, size: 0x8, addend: 0x0, symName: __ZNSt3__19__advanceB8ne180100INS_11__wrap_iterIPKNS_4pairIxfEEEEEEvRT_NS_15iterator_traitsIS7_E15difference_typeENS_26random_access_iterator_tagE, symObjAddr: 0x22F78, symBinAddr: 0x100025B10, symSize: 0x2C }
  - { offset: 0x2818C, size: 0x8, addend: 0x0, symName: __ZNSt3__19__reverseB8ne180100INS_17_ClassicAlgPolicyENS_11__wrap_iterIPNS_4pairIfxEEEES6_EEvT0_T1_, symObjAddr: 0x23268, symBinAddr: 0x100025E00, symSize: 0x3C }
  - { offset: 0x281DD, size: 0x8, addend: 0x0, symName: __ZNSt3__114__reverse_implB8ne180100INS_17_ClassicAlgPolicyENS_11__wrap_iterIPNS_4pairIfxEEEEEEvT0_S7_NS_26random_access_iterator_tagE, symObjAddr: 0x232A4, symBinAddr: 0x100025E3C, symSize: 0x7C }
  - { offset: 0x2822F, size: 0x8, addend: 0x0, symName: __ZNSt3__19iter_swapB8ne180100INS_11__wrap_iterIPNS_4pairIfxEEEES5_EEvT_T0_, symObjAddr: 0x23364, symBinAddr: 0x100025EFC, symSize: 0x50 }
  - { offset: 0x28277, size: 0x8, addend: 0x0, symName: __ZNSt3__116__is_hash_power2B8ne180100Em, symObjAddr: 0x23FC0, symBinAddr: 0x100026B58, symSize: 0x50 }
  - { offset: 0x282A3, size: 0x8, addend: 0x0, symName: __ZNSt3__116__next_hash_pow2B8ne180100Em, symObjAddr: 0x24010, symBinAddr: 0x100026BA8, symSize: 0x6C }
  - { offset: 0x282CF, size: 0x8, addend: 0x0, symName: __ZNSt3__116__constrain_hashB8ne180100Emm, symObjAddr: 0x242F0, symBinAddr: 0x100026E88, symSize: 0x98 }
  - { offset: 0x28410, size: 0x8, addend: 0x0, symName: __ZNSt3__1neB8ne180100ERKNS_19__hash_map_iteratorINS_15__hash_iteratorIPNS_11__hash_nodeINS_17__hash_value_typeIxmEEPvEEEEEESB_, symObjAddr: 0x24B00, symBinAddr: 0x100027698, symSize: 0x30 }
  - { offset: 0x2844D, size: 0x8, addend: 0x0, symName: __ZNSt3__112__to_addressB8ne180100ImEEPT_S2_, symObjAddr: 0x25744, symBinAddr: 0x1000282DC, symSize: 0x14 }
  - { offset: 0x28482, size: 0x8, addend: 0x0, symName: __ZNSt3__119__allocate_at_leastB8ne180100INS_9allocatorImEEEENS_19__allocation_resultINS_16allocator_traitsIT_E7pointerEEERS5_m, symObjAddr: 0x25D68, symBinAddr: 0x100028900, symSize: 0x40 }
  - { offset: 0x284C5, size: 0x8, addend: 0x0, symName: __ZNSt3__142__uninitialized_allocator_move_if_noexceptB8ne180100INS_9allocatorImEENS_16reverse_iteratorIPmEES5_mvEET1_RT_T0_S9_S6_, symObjAddr: 0x25F2C, symBinAddr: 0x100028AC4, symSize: 0x78 }
  - { offset: 0x28542, size: 0x8, addend: 0x0, symName: __ZNSt3__14swapB8ne180100IPmEENS_9enable_ifIXaasr21is_move_constructibleIT_EE5valuesr18is_move_assignableIS3_EE5valueEvE4typeERS3_S6_, symObjAddr: 0x25FF0, symBinAddr: 0x100028B88, symSize: 0x3C }
  - { offset: 0x28593, size: 0x8, addend: 0x0, symName: __ZNSt3__14moveB8ne180100INS_16reverse_iteratorIPmEES3_EET0_T_S5_S4_, symObjAddr: 0x26040, symBinAddr: 0x100028BD8, symSize: 0x78 }
  - { offset: 0x285ED, size: 0x8, addend: 0x0, symName: __ZNSt3__16__moveB8ne180100INS_17_ClassicAlgPolicyENS_16reverse_iteratorIPmEES4_S4_EENS_4pairIT0_T2_EES6_T1_S7_, symObjAddr: 0x260B8, symBinAddr: 0x100028C50, symSize: 0x64 }
  - { offset: 0x28659, size: 0x8, addend: 0x0, symName: __ZNSt3__123__dispatch_copy_or_moveB8ne180100INS_17_ClassicAlgPolicyENS_11__move_loopIS1_EENS_14__move_trivialENS_16reverse_iteratorIPmEES7_S7_EENS_4pairIT2_T4_EES9_T3_SA_, symObjAddr: 0x2611C, symBinAddr: 0x100028CB4, symSize: 0x64 }
  - { offset: 0x286D7, size: 0x8, addend: 0x0, symName: __ZNSt3__121__unwrap_and_dispatchB8ne180100INS_10__overloadINS_11__move_loopINS_17_ClassicAlgPolicyEEENS_14__move_trivialEEENS_16reverse_iteratorIPmEES9_S9_Li0EEENS_4pairIT0_T2_EESB_T1_SC_, symObjAddr: 0x26180, symBinAddr: 0x100028D18, symSize: 0x12C }
  - { offset: 0x28767, size: 0x8, addend: 0x0, symName: __ZNSt3__114__unwrap_rangeB8ne180100INS_16reverse_iteratorIPmEES3_EENS_4pairIT0_S5_EET_S7_, symObjAddr: 0x262AC, symBinAddr: 0x100028E44, symSize: 0x84 }
  - { offset: 0x28887, size: 0x8, addend: 0x0, symName: __ZNSt3__113__unwrap_iterB8ne180100INS_16reverse_iteratorIPmEENS_18__unwrap_iter_implIS3_Lb0EEELi0EEEDTclsrT0_8__unwrapclsr3stdE7declvalIT_EEEES7_, symObjAddr: 0x263D0, symBinAddr: 0x100028F68, symSize: 0x44 }
  - { offset: 0x288CB, size: 0x8, addend: 0x0, symName: __ZNSt3__19make_pairB8ne180100INS_16reverse_iteratorIPmEES3_EENS_4pairINS_18__unwrap_ref_decayIT_E4typeENS5_IT0_E4typeEEEOS6_OS9_, symObjAddr: 0x26414, symBinAddr: 0x100028FAC, symSize: 0x38 }
  - { offset: 0x2891A, size: 0x8, addend: 0x0, symName: __ZNSt3__114__rewrap_rangeB8ne180100INS_16reverse_iteratorIPmEES3_EET_S4_T0_, symObjAddr: 0x2644C, symBinAddr: 0x100028FE4, symSize: 0x5C }
  - { offset: 0x28966, size: 0x8, addend: 0x0, symName: __ZNSt3__113__rewrap_iterB8ne180100INS_16reverse_iteratorIPmEES3_NS_18__unwrap_iter_implIS3_Lb0EEEEET_S6_T0_, symObjAddr: 0x264A8, symBinAddr: 0x100029040, symSize: 0x74 }
  - { offset: 0x289BB, size: 0x8, addend: 0x0, symName: __ZNSt3__1neB8ne180100IPmS1_EEbRKNS_16reverse_iteratorIT_EERKNS2_IT0_EE, symObjAddr: 0x2651C, symBinAddr: 0x1000290B4, symSize: 0x48 }
  - { offset: 0x28A5A, size: 0x8, addend: 0x0, symName: __ZNSt3__1eqB8ne180100ERKNS_19__hash_map_iteratorINS_15__hash_iteratorIPNS_11__hash_nodeINS_17__hash_value_typeIxmEEPvEEEEEESB_, symObjAddr: 0x26A60, symBinAddr: 0x1000295F8, symSize: 0x30 }
  - { offset: 0x28A97, size: 0x8, addend: 0x0, symName: __ZNSt3__1neB8ne180100IP16diameter_entry_tEEbRKNS_11__wrap_iterIT_EES7_, symObjAddr: 0x26AF0, symBinAddr: 0x100029688, symSize: 0x34 }
  - { offset: 0x28ADA, size: 0x8, addend: 0x0, symName: __ZNSt3__119__allocate_at_leastB8ne180100INS_9allocatorI16diameter_entry_tEEEENS_19__allocation_resultINS_16allocator_traitsIT_E7pointerEEERS6_m, symObjAddr: 0x27320, symBinAddr: 0x100029EB8, symSize: 0x40 }
  - { offset: 0x28B1D, size: 0x8, addend: 0x0, symName: __ZNSt3__142__uninitialized_allocator_move_if_noexceptB8ne180100INS_9allocatorI16diameter_entry_tEENS_16reverse_iteratorIPS2_EES6_S6_EET2_RT_T0_T1_S7_, symObjAddr: 0x274D4, symBinAddr: 0x10002A06C, symSize: 0x12C }
  - { offset: 0x28BBD, size: 0x8, addend: 0x0, symName: __ZNSt3__14swapB8ne180100IP16diameter_entry_tEENS_9enable_ifIXaasr21is_move_constructibleIT_EE5valuesr18is_move_assignableIS4_EE5valueEvE4typeERS4_S7_, symObjAddr: 0x2764C, symBinAddr: 0x10002A1E4, symSize: 0x3C }
  - { offset: 0x28C0E, size: 0x8, addend: 0x0, symName: __ZNSt3__122__make_exception_guardB8ne180100INS_29_AllocatorDestroyRangeReverseINS_9allocatorI16diameter_entry_tEENS_16reverse_iteratorIPS3_EEEEEENS_28__exception_guard_exceptionsIT_EESA_, symObjAddr: 0x2769C, symBinAddr: 0x10002A234, symSize: 0x4C }
  - { offset: 0x28C44, size: 0x8, addend: 0x0, symName: __ZNSt3__1neB8ne180100IP16diameter_entry_tS2_EEbRKNS_16reverse_iteratorIT_EERKNS3_IT0_EE, symObjAddr: 0x2772C, symBinAddr: 0x10002A2C4, symSize: 0x48 }
  - { offset: 0x28C90, size: 0x8, addend: 0x0, symName: __ZNSt3__112__to_addressB8ne180100INS_16reverse_iteratorIP16diameter_entry_tEEvEEu7__decayIDTclsr19__to_address_helperIT_EE6__callclsr3stdE7declvalIRKS5_EEEEES7_, symObjAddr: 0x277A8, symBinAddr: 0x10002A340, symSize: 0x24 }
  - { offset: 0x28CEF, size: 0x8, addend: 0x0, symName: __ZNSt3__119__allocator_destroyB8ne180100INS_9allocatorI16diameter_entry_tEENS_16reverse_iteratorINS4_IPS2_EEEES7_EEvRT_T0_T1_, symObjAddr: 0x27A80, symBinAddr: 0x10002A618, symSize: 0x70 }
  - { offset: 0x28D54, size: 0x8, addend: 0x0, symName: __ZNSt3__1neB8ne180100INS_16reverse_iteratorIP16diameter_entry_tEES4_EEbRKNS1_IT_EERKNS1_IT0_EE, symObjAddr: 0x27B2C, symBinAddr: 0x10002A6C4, symSize: 0x60 }
  - { offset: 0x28DA0, size: 0x8, addend: 0x0, symName: __ZNSt3__112__to_addressB8ne180100INS_16reverse_iteratorINS1_IP16diameter_entry_tEEEEvEEu7__decayIDTclsr19__to_address_helperIT_EE6__callclsr3stdE7declvalIRKS6_EEEEES8_, symObjAddr: 0x27B8C, symBinAddr: 0x10002A724, symSize: 0x24 }
  - { offset: 0x28DFF, size: 0x8, addend: 0x0, symName: __ZNSt3__1eqB8ne180100ERKNS_15__hash_iteratorIPNS_11__hash_nodeINS_17__hash_value_typeIxmEEPvEEEES9_, symObjAddr: 0x27EF4, symBinAddr: 0x10002AA8C, symSize: 0x30 }
  - { offset: 0x28E3C, size: 0x8, addend: 0x0, symName: __ZNSt3__1eqB8ne180100IP16diameter_entry_tEEbRKNS_11__wrap_iterIT_EES7_, symObjAddr: 0x27FA8, symBinAddr: 0x10002AB40, symSize: 0x48 }
  - { offset: 0x28E7F, size: 0x8, addend: 0x0, symName: __ZNSt3__19push_heapB8ne180100INS_11__wrap_iterIP16diameter_entry_tEE38greater_diameter_or_smaller_index_compIS2_EEEvT_S7_T0_, symObjAddr: 0x28008, symBinAddr: 0x10002ABA0, symSize: 0x40 }
  - { offset: 0x28ED5, size: 0x8, addend: 0x0, symName: __ZNSt3__111__push_heapB8ne180100INS_17_ClassicAlgPolicyENS_11__wrap_iterIP16diameter_entry_tEE38greater_diameter_or_smaller_index_compIS3_EEEvT0_S8_RT1_, symObjAddr: 0x28048, symBinAddr: 0x10002ABE0, symSize: 0x5C }
  - { offset: 0x28F42, size: 0x8, addend: 0x0, symName: __ZNSt3__1miB8ne180100IP16diameter_entry_tS2_EEDTmicldtfp_4baseEcldtfp0_4baseEERKNS_11__wrap_iterIT_EERKNS4_IT0_EE, symObjAddr: 0x280A4, symBinAddr: 0x10002AC3C, symSize: 0x48 }
  - { offset: 0x28F8E, size: 0x8, addend: 0x0, symName: __ZNSt3__19__sift_upB8ne180100INS_17_ClassicAlgPolicyER38greater_diameter_or_smaller_index_compI16diameter_entry_tENS_11__wrap_iterIPS3_EEEEvT1_S9_OT0_NS_15iterator_traitsIS9_E15difference_typeE, symObjAddr: 0x280EC, symBinAddr: 0x10002AC84, symSize: 0x15C }
  - { offset: 0x290AB, size: 0x8, addend: 0x0, symName: __ZNSt3__1neB8ne180100ERKNS_15__hash_iteratorIPNS_11__hash_nodeINS_17__hash_value_typeIxmEEPvEEEES9_, symObjAddr: 0x288A4, symBinAddr: 0x10002B43C, symSize: 0x34 }
  - { offset: 0x2916C, size: 0x8, addend: 0x0, symName: __ZNSt3__114__construct_atB8ne180100INS_11__hash_nodeINS_17__hash_value_typeIxmEEPvEEJDnRmEPS5_EEPT_S9_DpOT0_, symObjAddr: 0x2933C, symBinAddr: 0x10002BED4, symSize: 0x40 }
  - { offset: 0x291D2, size: 0x8, addend: 0x0, symName: __ZNSt3__112__destroy_atB8ne180100INS_11__hash_nodeINS_17__hash_value_typeIxmEEPvEELi0EEEvPT_, symObjAddr: 0x29910, symBinAddr: 0x10002C4A8, symSize: 0x24 }
  - { offset: 0x29209, size: 0x8, addend: 0x0, symName: __ZNSt3__112__destroy_atB8ne180100INS_4pairIKxmEELi0EEEvPT_, symObjAddr: 0x29968, symBinAddr: 0x10002C500, symSize: 0x10 }
  - { offset: 0x29240, size: 0x8, addend: 0x0, symName: __ZNSt3__18pop_heapB8ne180100INS_11__wrap_iterIP16diameter_entry_tEE38greater_diameter_or_smaller_index_compIS2_EEEvT_S7_T0_, symObjAddr: 0x29B90, symBinAddr: 0x10002C728, symSize: 0x58 }
  - { offset: 0x292A4, size: 0x8, addend: 0x0, symName: __ZNSt3__110__pop_heapB8ne180100INS_17_ClassicAlgPolicyE38greater_diameter_or_smaller_index_compI16diameter_entry_tENS_11__wrap_iterIPS3_EEEEvT1_S8_RT0_NS_15iterator_traitsIS8_E15difference_typeE, symObjAddr: 0x29C14, symBinAddr: 0x10002C7AC, symSize: 0x128 }
  - { offset: 0x29355, size: 0x8, addend: 0x0, symName: __ZNSt3__14sortB8ne180100INS_11__wrap_iterIPNS_4pairIfxEEEEPFbRKS3_S7_EEEvT_SA_T0_, symObjAddr: 0x2A2F8, symBinAddr: 0x10002CE90, symSize: 0x48 }
  - { offset: 0x293AF, size: 0x8, addend: 0x0, symName: __ZNSt3__116__swap_allocatorB8ne180100INS_9allocatorINS_4pairIfxEEEEEEvRT_S6_NS_17integral_constantIbLb0EEE, symObjAddr: 0x2A374, symBinAddr: 0x10002CF0C, symSize: 0x14 }
  - { offset: 0x293F0, size: 0x8, addend: 0x0, symName: __ZNSt3__111__sort_implB8ne180100INS_17_ClassicAlgPolicyENS_11__wrap_iterIPNS_4pairIfxEEEEPFbRKS4_S8_EEEvT0_SB_RT1_, symObjAddr: 0x2A388, symBinAddr: 0x10002CF20, symSize: 0xA8 }
  - { offset: 0x29453, size: 0x8, addend: 0x0, symName: __ZNSt3__123__debug_randomize_rangeB8ne180100INS_17_ClassicAlgPolicyENS_11__wrap_iterIPNS_4pairIfxEEEES6_EEvT0_T1_, symObjAddr: 0x2A430, symBinAddr: 0x10002CFC8, symSize: 0x14 }
  - { offset: 0x294A4, size: 0x8, addend: 0x0, symName: __ZNSt3__115__sort_dispatchB8ne180100INS_17_ClassicAlgPolicyEPNS_4pairIfxEEPFbRKS3_S6_EEEvT0_S9_RT1_, symObjAddr: 0x2A444, symBinAddr: 0x10002CFDC, symSize: 0x64 }
  - { offset: 0x29522, size: 0x8, addend: 0x0, symName: __ZNSt3__113__unwrap_iterB8ne180100INS_11__wrap_iterIPNS_4pairIfxEEEENS_18__unwrap_iter_implIS5_Lb1EEELi0EEEDTclsrT0_8__unwrapclsr3stdE7declvalIT_EEEES9_, symObjAddr: 0x2A4A8, symBinAddr: 0x10002D040, symSize: 0x2C }
  - { offset: 0x29566, size: 0x8, addend: 0x0, symName: __ZNSt3__135__check_strict_weak_ordering_sortedB8ne180100IPNS_4pairIfxEEPFbRKS2_S5_EEEvT_S8_RT0_, symObjAddr: 0x2A4D4, symBinAddr: 0x10002D06C, symSize: 0x18 }
  - { offset: 0x295BC, size: 0x8, addend: 0x0, symName: __ZNSt3__124__sort3_maybe_branchlessB8ne180100INS_17_ClassicAlgPolicyERPFbRKNS_4pairIfxEES5_EPS3_Li0EEEvT1_SA_SA_T0_, symObjAddr: 0x2A974, symBinAddr: 0x10002D50C, symSize: 0x3C }
  - { offset: 0x2962F, size: 0x8, addend: 0x0, symName: __ZNSt3__124__sort4_maybe_branchlessB8ne180100INS_17_ClassicAlgPolicyERPFbRKNS_4pairIfxEES5_EPS3_Li0EEEvT1_SA_SA_SA_T0_, symObjAddr: 0x2A9B0, symBinAddr: 0x10002D548, symSize: 0x44 }
  - { offset: 0x296B0, size: 0x8, addend: 0x0, symName: __ZNSt3__124__sort5_maybe_branchlessB8ne180100INS_17_ClassicAlgPolicyERPFbRKNS_4pairIfxEES5_EPS3_Li0EEEvT1_SA_SA_SA_SA_T0_, symObjAddr: 0x2A9F4, symBinAddr: 0x10002D58C, symSize: 0x4C }
  - { offset: 0x29746, size: 0x8, addend: 0x0, symName: __ZNSt3__116__insertion_sortB8ne180100INS_17_ClassicAlgPolicyERPFbRKNS_4pairIfxEES5_EPS3_EEvT1_SA_T0_, symObjAddr: 0x2AA40, symBinAddr: 0x10002D5D8, symSize: 0x158 }
  - { offset: 0x2980D, size: 0x8, addend: 0x0, symName: __ZNSt3__114__partial_sortB8ne180100INS_17_ClassicAlgPolicyERPFbRKNS_4pairIfxEES5_EPS3_S9_EET1_SA_SA_T2_RT0_, symObjAddr: 0x2ACC0, symBinAddr: 0x10002D858, symSize: 0x94 }
  - { offset: 0x29895, size: 0x8, addend: 0x0, symName: __ZNSt3__17__sort3B8ne180100INS_17_ClassicAlgPolicyERPFbRKNS_4pairIfxEES5_EPS3_EEjT1_SA_SA_T0_, symObjAddr: 0x2AD54, symBinAddr: 0x10002D8EC, symSize: 0x158 }
  - { offset: 0x29914, size: 0x8, addend: 0x0, symName: __ZNSt3__19iter_swapB8ne180100IPNS_4pairIfxEES3_EEvT_T0_, symObjAddr: 0x2B9A0, symBinAddr: 0x10002E538, symSize: 0x2C }
  - { offset: 0x2995C, size: 0x8, addend: 0x0, symName: __ZNSt3__17__sort4B8ne180100INS_17_ClassicAlgPolicyERPFbRKNS_4pairIfxEES5_EPS3_EEvT1_SA_SA_SA_T0_, symObjAddr: 0x2B9CC, symBinAddr: 0x10002E564, symSize: 0xC4 }
  - { offset: 0x299D7, size: 0x8, addend: 0x0, symName: __ZNSt3__17__sort5B8ne180100INS_17_ClassicAlgPolicyERPFbRKNS_4pairIfxEES5_EPS3_EEvT1_SA_SA_SA_SA_T0_, symObjAddr: 0x2BA90, symBinAddr: 0x10002E628, symSize: 0xF8 }
  - { offset: 0x29A60, size: 0x8, addend: 0x0, symName: __ZNSt3__123__debug_randomize_rangeB8ne180100INS_17_ClassicAlgPolicyEPNS_4pairIfxEES4_EEvT0_T1_, symObjAddr: 0x2BBCC, symBinAddr: 0x10002E764, symSize: 0x14 }
  - { offset: 0x29AB1, size: 0x8, addend: 0x0, symName: __ZNSt3__119__partial_sort_implB8ne180100INS_17_ClassicAlgPolicyERPFbRKNS_4pairIfxEES5_EPS3_S9_EET1_SA_SA_T2_OT0_, symObjAddr: 0x2BBE0, symBinAddr: 0x10002E778, symSize: 0x114 }
  - { offset: 0x29B47, size: 0x8, addend: 0x0, symName: __ZNSt3__111__make_heapB8ne180100INS_17_ClassicAlgPolicyERPFbRKNS_4pairIfxEES5_EPS3_EEvT1_SA_OT0_, symObjAddr: 0x2BCF4, symBinAddr: 0x10002E88C, symSize: 0xB8 }
  - { offset: 0x29BE9, size: 0x8, addend: 0x0, symName: __ZNSt3__111__sort_heapB8ne180100INS_17_ClassicAlgPolicyERPFbRKNS_4pairIfxEES5_EPS3_EEvT1_SA_OT0_, symObjAddr: 0x2BFC8, symBinAddr: 0x10002EB60, symSize: 0xA8 }
  - { offset: 0x29C8B, size: 0x8, addend: 0x0, symName: __ZNSt3__110__pop_heapB8ne180100INS_17_ClassicAlgPolicyEPFbRKNS_4pairIfxEES5_EPS3_EEvT1_S9_RT0_NS_15iterator_traitsIS9_E15difference_typeE, symObjAddr: 0x2C070, symBinAddr: 0x10002EC08, symSize: 0xF4 }
  - { offset: 0x29D3B, size: 0x8, addend: 0x0, symName: __ZNSt3__19__sift_upB8ne180100INS_17_ClassicAlgPolicyERPFbRKNS_4pairIfxEES5_EPS3_EEvT1_SA_OT0_NS_15iterator_traitsISA_E15difference_typeE, symObjAddr: 0x2C268, symBinAddr: 0x10002EE00, symSize: 0x124 }
  - { offset: 0x29DEB, size: 0x8, addend: 0x0, symName: __ZNSt3__122__populate_left_bitsetB8ne180100IRPFbRKNS_4pairIfxEES4_EPS2_S2_EEvT0_T_RT1_Ry, symObjAddr: 0x2C38C, symBinAddr: 0x10002EF24, symSize: 0xAC }
  - { offset: 0x29EA6, size: 0x8, addend: 0x0, symName: __ZNSt3__123__populate_right_bitsetB8ne180100IRPFbRKNS_4pairIfxEES4_EPS2_S2_EEvT0_T_RT1_Ry, symObjAddr: 0x2C438, symBinAddr: 0x10002EFD0, symSize: 0xA8 }
  - { offset: 0x29F61, size: 0x8, addend: 0x0, symName: __ZNSt3__117__swap_bitmap_posB8ne180100INS_17_ClassicAlgPolicyEPNS_4pairIfxEEEEvT0_S5_RyS6_, symObjAddr: 0x2C4E0, symBinAddr: 0x10002F078, symSize: 0x100 }
  - { offset: 0x2A002, size: 0x8, addend: 0x0, symName: __ZNSt3__133__bitset_partition_partial_blocksB8ne180100INS_17_ClassicAlgPolicyERPFbRKNS_4pairIfxEES5_EPS3_S3_EEvRT1_SB_T0_RT2_RySF_, symObjAddr: 0x2C5E0, symBinAddr: 0x10002F178, symSize: 0x2F0 }
  - { offset: 0x2A183, size: 0x8, addend: 0x0, symName: __ZNSt3__19make_pairB8ne180100IRPNS_4pairIfxEERbEENS1_INS_18__unwrap_ref_decayIT_E4typeENS6_IT0_E4typeEEEOS7_OSA_, symObjAddr: 0x2CAB0, symBinAddr: 0x10002F648, symSize: 0x38 }
  - { offset: 0x2A2F9, size: 0x8, addend: 0x0, symName: __ZNSt3__112__to_addressB8ne180100INS_11__wrap_iterIPNS_4pairIfxEEEEvEEu7__decayIDTclsr19__to_address_helperIT_EE6__callclsr3stdE7declvalIRKS6_EEEEES8_, symObjAddr: 0x2CBB8, symBinAddr: 0x10002F750, symSize: 0x24 }
  - { offset: 0x2A3D4, size: 0x8, addend: 0x0, symName: __ZNSt3__122__make_exception_guardB8ne180100INS_6vectorINS1_INS_4pairIxfEENS_9allocatorIS3_EEEENS4_IS6_EEE16__destroy_vectorEEENS_28__exception_guard_exceptionsIT_EESB_, symObjAddr: 0x2D0DC, symBinAddr: 0x10002FC74, symSize: 0x40 }
  - { offset: 0x2A409, size: 0x8, addend: 0x0, symName: __ZNSt3__13minB8ne180100IfNS_6__lessIvvEEEERKT_S5_S5_T0_, symObjAddr: 0x2D2B8, symBinAddr: 0x10002FE50, symSize: 0x54 }
  - { offset: 0x2A463, size: 0x8, addend: 0x0, symName: __ZNSt3__1neB8ne180100IPxEEbRKNS_11__wrap_iterIT_EES6_, symObjAddr: 0x2EFB4, symBinAddr: 0x100031B4C, symSize: 0x34 }
  - { offset: 0x2A4A6, size: 0x8, addend: 0x0, symName: __ZNSt3__1eqB8ne180100IPxEEbRKNS_11__wrap_iterIT_EES6_, symObjAddr: 0x2F008, symBinAddr: 0x100031BA0, symSize: 0x48 }
  - { offset: 0x2BDEE, size: 0x8, addend: 0x0, symName: __ZSt28__throw_bad_array_new_lengthB8ne180100v, symObjAddr: 0x59DC, symBinAddr: 0x100008574, symSize: 0x34 }
  - { offset: 0x2C018, size: 0x8, addend: 0x0, symName: __ZL13is_big_endian, symObjAddr: 0x14CA68, symBinAddr: 0x10003C410, symSize: 0x0 }
  - { offset: 0x2C033, size: 0x8, addend: 0x0, symName: __ZL12endian_check, symObjAddr: 0x32CD4, symBinAddr: 0x10003644C, symSize: 0x0 }
  - { offset: 0x2D8A7, size: 0x8, addend: 0x0, symName: __ZN6ripserI22sparse_distance_matrixE22get_zero_pivot_cofacetE16diameter_entry_tx, symObjAddr: 0x1E984, symBinAddr: 0x10002151C, symSize: 0x180 }
  - { offset: 0x2D8CC, size: 0x8, addend: 0x0, symName: __ZZN6ripserI22sparse_distance_matrixE22get_zero_pivot_cofacetE16diameter_entry_txE8cofacets, symObjAddr: 0x32CD8, symBinAddr: 0x10003C000, symSize: 0x0 }
  - { offset: 0x2DAA5, size: 0x8, addend: 0x0, symName: __ZN6ripserI22sparse_distance_matrixE20get_zero_pivot_facetE16diameter_entry_tx, symObjAddr: 0x1EB04, symBinAddr: 0x10002169C, symSize: 0x160 }
  - { offset: 0x2DACA, size: 0x8, addend: 0x0, symName: __ZZN6ripserI22sparse_distance_matrixE20get_zero_pivot_facetE16diameter_entry_txE6facets, symObjAddr: 0x32D80, symBinAddr: 0x10003C0A8, symSize: 0x0 }
  - { offset: 0x2DBA2, size: 0x8, addend: 0x0, symName: __ZN6ripserI22sparse_distance_matrixE29init_coboundary_and_get_pivotINSt3__114priority_queueI16diameter_entry_tNS3_6vectorIS5_NS3_9allocatorIS5_EEEE38greater_diameter_or_smaller_index_compIS5_EEEEES5_S5_RT_RKxRNS3_13unordered_mapIxmNS1_10entry_hashENS1_11equal_indexENS7_INS3_4pairISF_mEEEEEE, symObjAddr: 0x247C4, symBinAddr: 0x10002735C, symSize: 0x2FC }
  - { offset: 0x2DBC7, size: 0x8, addend: 0x0, symName: __ZZN6ripserI22sparse_distance_matrixE29init_coboundary_and_get_pivotINSt3__114priority_queueI16diameter_entry_tNS3_6vectorIS5_NS3_9allocatorIS5_EEEE38greater_diameter_or_smaller_index_compIS5_EEEEES5_S5_RT_RKxRNS3_13unordered_mapIxmNS1_10entry_hashENS1_11equal_indexENS7_INS3_4pairISF_mEEEEEEE8cofacets, symObjAddr: 0x32DD8, symBinAddr: 0x10003C100, symSize: 0x0 }
  - { offset: 0x2DC9D, size: 0x8, addend: 0x0, symName: __ZN6ripserI22sparse_distance_matrixE22add_simplex_coboundaryINSt3__114priority_queueI16diameter_entry_tNS3_6vectorIS5_NS3_9allocatorIS5_EEEE38greater_diameter_or_smaller_index_compIS5_EEEEEvS5_RKxRT_SG_, symObjAddr: 0x24EA8, symBinAddr: 0x100027A40, symSize: 0x178 }
  - { offset: 0x2DCC2, size: 0x8, addend: 0x0, symName: __ZZN6ripserI22sparse_distance_matrixE22add_simplex_coboundaryINSt3__114priority_queueI16diameter_entry_tNS3_6vectorIS5_NS3_9allocatorIS5_EEEE38greater_diameter_or_smaller_index_compIS5_EEEEEvS5_RKxRT_SG_E8cofacets, symObjAddr: 0x32E80, symBinAddr: 0x10003C1A8, symSize: 0x0 }
  - { offset: 0x2E8A5, size: 0x8, addend: 0x0, symName: __ZN6ripserI26compressed_distance_matrixIL24compressed_matrix_layout0EEE22get_zero_pivot_cofacetE16diameter_entry_tx, symObjAddr: 0x2E7C0, symBinAddr: 0x100031358, symSize: 0x180 }
  - { offset: 0x2E8CA, size: 0x8, addend: 0x0, symName: __ZZN6ripserI26compressed_distance_matrixIL24compressed_matrix_layout0EEE22get_zero_pivot_cofacetE16diameter_entry_txE8cofacets, symObjAddr: 0x32F28, symBinAddr: 0x10003C250, symSize: 0x0 }
  - { offset: 0x2E93D, size: 0x8, addend: 0x0, symName: __ZN6ripserI26compressed_distance_matrixIL24compressed_matrix_layout0EEE20get_zero_pivot_facetE16diameter_entry_tx, symObjAddr: 0x2E940, symBinAddr: 0x1000314D8, symSize: 0x160 }
  - { offset: 0x2E962, size: 0x8, addend: 0x0, symName: __ZZN6ripserI26compressed_distance_matrixIL24compressed_matrix_layout0EEE20get_zero_pivot_facetE16diameter_entry_txE6facets, symObjAddr: 0x32F98, symBinAddr: 0x10003C2C0, symSize: 0x0 }
  - { offset: 0x2E9BA, size: 0x8, addend: 0x0, symName: __ZN6ripserI26compressed_distance_matrixIL24compressed_matrix_layout0EEE29init_coboundary_and_get_pivotINSt3__114priority_queueI16diameter_entry_tNS5_6vectorIS7_NS5_9allocatorIS7_EEEE38greater_diameter_or_smaller_index_compIS7_EEEEES7_S7_RT_RKxRNS5_13unordered_mapIxmNS3_10entry_hashENS3_11equal_indexENS9_INS5_4pairISH_mEEEEEE, symObjAddr: 0x2FCD4, symBinAddr: 0x10003286C, symSize: 0x2FC }
  - { offset: 0x2E9DF, size: 0x8, addend: 0x0, symName: __ZZN6ripserI26compressed_distance_matrixIL24compressed_matrix_layout0EEE29init_coboundary_and_get_pivotINSt3__114priority_queueI16diameter_entry_tNS5_6vectorIS7_NS5_9allocatorIS7_EEEE38greater_diameter_or_smaller_index_compIS7_EEEEES7_S7_RT_RKxRNS5_13unordered_mapIxmNS3_10entry_hashENS3_11equal_indexENS9_INS5_4pairISH_mEEEEEEE8cofacets, symObjAddr: 0x32FF0, symBinAddr: 0x10003C318, symSize: 0x0 }
  - { offset: 0x2EAB5, size: 0x8, addend: 0x0, symName: __ZN6ripserI26compressed_distance_matrixIL24compressed_matrix_layout0EEE22add_simplex_coboundaryINSt3__114priority_queueI16diameter_entry_tNS5_6vectorIS7_NS5_9allocatorIS7_EEEE38greater_diameter_or_smaller_index_compIS7_EEEEEvS7_RKxRT_SI_, symObjAddr: 0x30304, symBinAddr: 0x100032E9C, symSize: 0x178 }
  - { offset: 0x2EADA, size: 0x8, addend: 0x0, symName: __ZZN6ripserI26compressed_distance_matrixIL24compressed_matrix_layout0EEE22add_simplex_coboundaryINSt3__114priority_queueI16diameter_entry_tNS5_6vectorIS7_NS5_9allocatorIS7_EEEE38greater_diameter_or_smaller_index_compIS7_EEEEEvS7_RKxRT_SI_E8cofacets, symObjAddr: 0x33060, symBinAddr: 0x10003C388, symSize: 0x0 }
  - { offset: 0x2F0D4, size: 0x8, addend: 0x0, symName: __ZNSt3__16vectorINS_4pairIfxEENS_9allocatorIS2_EEE26__swap_out_circular_bufferERNS_14__split_bufferIS2_RS4_EE, symObjAddr: 0xB318, symBinAddr: 0x10000DEB0, symSize: 0x110 }
  - { offset: 0x2F168, size: 0x8, addend: 0x0, symName: __ZNSt3__16vectorIfNS_9allocatorIfEEE26__swap_out_circular_bufferERNS_14__split_bufferIfRS2_EE, symObjAddr: 0xD2D8, symBinAddr: 0x10000FE70, symSize: 0x110 }
  - { offset: 0x2F1BF, size: 0x8, addend: 0x0, symName: __ZNSt3__16vectorINS0_IfNS_9allocatorIfEEEENS1_IS3_EEE26__swap_out_circular_bufferERNS_14__split_bufferIS3_RS4_EE, symObjAddr: 0xE354, symBinAddr: 0x100010EEC, symSize: 0x110 }
  - { offset: 0x2F253, size: 0x8, addend: 0x0, symName: __ZNSt3__16vectorINS0_INS_4pairIxfEENS_9allocatorIS2_EEEENS3_IS5_EEE26__swap_out_circular_bufferERNS_14__split_bufferIS5_RS6_EE, symObjAddr: 0xF99C, symBinAddr: 0x100012534, symSize: 0x110 }
  - { offset: 0x2F2E7, size: 0x8, addend: 0x0, symName: __ZNSt3__16vectorINS_4pairIxfEENS_9allocatorIS2_EEE26__swap_out_circular_bufferERNS_14__split_bufferIS2_RS4_EE, symObjAddr: 0x11228, symBinAddr: 0x100013DC0, symSize: 0x110 }
  - { offset: 0x2F4E4, size: 0x8, addend: 0x0, symName: __ZNSt3__16vectorIxNS_9allocatorIxEEE26__swap_out_circular_bufferERNS_14__split_bufferIxRS2_EE, symObjAddr: 0x1FF54, symBinAddr: 0x100022AEC, symSize: 0x110 }
  - { offset: 0x2F53B, size: 0x8, addend: 0x0, symName: __ZNSt3__16vectorINS_16reverse_iteratorINS_11__wrap_iterIPKNS_4pairIxfEEEEEENS_9allocatorIS8_EEE26__swap_out_circular_bufferERNS_14__split_bufferIS8_RSA_EE, symObjAddr: 0x21120, symBinAddr: 0x100023CB8, symSize: 0x110 }
  - { offset: 0x2F703, size: 0x8, addend: 0x0, symName: __ZNSt3__16vectorImNS_9allocatorImEEE26__swap_out_circular_bufferERNS_14__split_bufferImRS2_EE, symObjAddr: 0x25968, symBinAddr: 0x100028500, symSize: 0x110 }
  - { offset: 0x2F75A, size: 0x8, addend: 0x0, symName: __ZNSt3__16vectorI16diameter_entry_tNS_9allocatorIS1_EEE26__swap_out_circular_bufferERNS_14__split_bufferIS1_RS3_EE, symObjAddr: 0x26FC0, symBinAddr: 0x100029B58, symSize: 0x110 }
  - { offset: 0x2F830, size: 0x8, addend: 0x0, symName: __ZNSt3__112basic_stringIcNS_11char_traitsIcEENS_9allocatorIcEEEC1B8ne180100ILi0EEEPKc, symObjAddr: 0x0, symBinAddr: 0x100002B98, symSize: 0x34 }
  - { offset: 0x2F86E, size: 0x8, addend: 0x0, symName: __Z14check_overflowx, symObjAddr: 0x34, symBinAddr: 0x100002BCC, symSize: 0x1B8 }
  - { offset: 0x2F897, size: 0x8, addend: 0x0, symName: __ZNSt14overflow_errorC1B8ne180100ERKNSt3__112basic_stringIcNS0_11char_traitsIcEENS0_9allocatorIcEEEE, symObjAddr: 0x2B0, symBinAddr: 0x100002E48, symSize: 0x34 }
  - { offset: 0x2F8CE, size: 0x8, addend: 0x0, symName: __Z8is_primet, symObjAddr: 0x2E4, symBinAddr: 0x100002E7C, symSize: 0xE8 }
  - { offset: 0x2F916, size: 0x8, addend: 0x0, symName: __Z29multiplicative_inverse_vectort, symObjAddr: 0x3CC, symBinAddr: 0x100002F64, symSize: 0x138 }
  - { offset: 0x2F96E, size: 0x8, addend: 0x0, symName: __ZNSt3__16vectorItNS_9allocatorItEEEC1Em, symObjAddr: 0x504, symBinAddr: 0x10000309C, symSize: 0x34 }
  - { offset: 0x2F9A9, size: 0x8, addend: 0x0, symName: __ZNSt3__16vectorItNS_9allocatorItEEEixB8ne180100Em, symObjAddr: 0x538, symBinAddr: 0x1000030D0, symSize: 0x24 }
  - { offset: 0x2F9E0, size: 0x8, addend: 0x0, symName: __ZNSt3__16vectorItNS_9allocatorItEEED1B8ne180100Ev, symObjAddr: 0x55C, symBinAddr: 0x1000030F4, symSize: 0x2C }
  - { offset: 0x2FA09, size: 0x8, addend: 0x0, symName: __Z9get_indexRKx, symObjAddr: 0x588, symBinAddr: 0x100003120, symSize: 0x18 }
  - { offset: 0x2FA35, size: 0x8, addend: 0x0, symName: __Z15get_coefficientRKx, symObjAddr: 0x5A0, symBinAddr: 0x100003138, symSize: 0x14 }
  - { offset: 0x2FA61, size: 0x8, addend: 0x0, symName: __Z10make_entryxt, symObjAddr: 0x5B4, symBinAddr: 0x10000314C, symSize: 0x18 }
  - { offset: 0x2FA9B, size: 0x8, addend: 0x0, symName: __Z15set_coefficientRxt, symObjAddr: 0x5CC, symBinAddr: 0x100003164, symSize: 0x14 }
  - { offset: 0x2FAD1, size: 0x8, addend: 0x0, symName: __Z9get_entryRKx, symObjAddr: 0x5E0, symBinAddr: 0x100003178, symSize: 0x14 }
  - { offset: 0x2FAFD, size: 0x8, addend: 0x0, symName: __Z12get_diameterRKNSt3__14pairIfxEE, symObjAddr: 0x5F4, symBinAddr: 0x10000318C, symSize: 0x18 }
  - { offset: 0x2FB29, size: 0x8, addend: 0x0, symName: __Z9get_indexRKNSt3__14pairIfxEE, symObjAddr: 0x60C, symBinAddr: 0x1000031A4, symSize: 0x18 }
  - { offset: 0x2FB55, size: 0x8, addend: 0x0, symName: __Z9get_indexRKNSt3__14pairIxfEE, symObjAddr: 0x624, symBinAddr: 0x1000031BC, symSize: 0x18 }
  - { offset: 0x2FB81, size: 0x8, addend: 0x0, symName: __Z12get_diameterRKNSt3__14pairIxfEE, symObjAddr: 0x63C, symBinAddr: 0x1000031D4, symSize: 0x18 }
  - { offset: 0x2FBAD, size: 0x8, addend: 0x0, symName: __Z9get_entryRK16diameter_entry_t, symObjAddr: 0x654, symBinAddr: 0x1000031EC, symSize: 0x18 }
  - { offset: 0x2FBD9, size: 0x8, addend: 0x0, symName: __Z9get_entryR16diameter_entry_t, symObjAddr: 0x66C, symBinAddr: 0x100003204, symSize: 0x18 }
  - { offset: 0x2FC05, size: 0x8, addend: 0x0, symName: __Z9get_indexRK16diameter_entry_t, symObjAddr: 0x684, symBinAddr: 0x10000321C, symSize: 0x28 }
  - { offset: 0x2FC31, size: 0x8, addend: 0x0, symName: __Z15get_coefficientRK16diameter_entry_t, symObjAddr: 0x6AC, symBinAddr: 0x100003244, symSize: 0x30 }
  - { offset: 0x2FC5D, size: 0x8, addend: 0x0, symName: __Z12get_diameterRK16diameter_entry_t, symObjAddr: 0x6DC, symBinAddr: 0x100003274, symSize: 0x14 }
  - { offset: 0x2FC89, size: 0x8, addend: 0x0, symName: __Z15set_coefficientR16diameter_entry_tt, symObjAddr: 0x6F0, symBinAddr: 0x100003288, symSize: 0x30 }
  - { offset: 0x2FCC0, size: 0x8, addend: 0x0, symName: __ZN26compressed_distance_matrixIL24compressed_matrix_layout0EE9init_rowsEv, symObjAddr: 0x720, symBinAddr: 0x1000032B8, symSize: 0xA4 }
  - { offset: 0x2FD12, size: 0x8, addend: 0x0, symName: __ZNSt3__16vectorIfNS_9allocatorIfEEEixB8ne180100Em, symObjAddr: 0x7C4, symBinAddr: 0x10000335C, symSize: 0x24 }
  - { offset: 0x2FD49, size: 0x8, addend: 0x0, symName: __ZNK26compressed_distance_matrixIL24compressed_matrix_layout0EE4sizeEv, symObjAddr: 0x7E8, symBinAddr: 0x100003380, symSize: 0x28 }
  - { offset: 0x2FD6F, size: 0x8, addend: 0x0, symName: __ZNSt3__16vectorIPfNS_9allocatorIS1_EEEixB8ne180100Em, symObjAddr: 0x810, symBinAddr: 0x1000033A8, symSize: 0x24 }
  - { offset: 0x2FDA6, size: 0x8, addend: 0x0, symName: __ZN26compressed_distance_matrixIL24compressed_matrix_layout1EE9init_rowsEv, symObjAddr: 0x834, symBinAddr: 0x1000033CC, symSize: 0xBC }
  - { offset: 0x2FDF8, size: 0x8, addend: 0x0, symName: __ZNK26compressed_distance_matrixIL24compressed_matrix_layout1EE4sizeEv, symObjAddr: 0x8F0, symBinAddr: 0x100003488, symSize: 0x28 }
  - { offset: 0x2FE1E, size: 0x8, addend: 0x0, symName: __ZNK26compressed_distance_matrixIL24compressed_matrix_layout0EEclExx, symObjAddr: 0x918, symBinAddr: 0x1000034B0, symSize: 0xC0 }
  - { offset: 0x2FE64, size: 0x8, addend: 0x0, symName: __ZNKSt3__16vectorIPfNS_9allocatorIS1_EEEixB8ne180100Em, symObjAddr: 0x9D8, symBinAddr: 0x100003570, symSize: 0x24 }
  - { offset: 0x2FE9B, size: 0x8, addend: 0x0, symName: __ZNK26compressed_distance_matrixIL24compressed_matrix_layout1EEclExx, symObjAddr: 0x9FC, symBinAddr: 0x100003594, symSize: 0xC0 }
  - { offset: 0x2FEE1, size: 0x8, addend: 0x0, symName: __ZN6ripserI26compressed_distance_matrixIL24compressed_matrix_layout0EEE9get_edgesEv, symObjAddr: 0xABC, symBinAddr: 0x100003654, symSize: 0x1FC }
  - { offset: 0x2FF5A, size: 0x8, addend: 0x0, symName: __ZNSt3__16vectorINS_4pairIfxEENS_9allocatorIS2_EEEC1B8ne180100Ev, symObjAddr: 0xCB8, symBinAddr: 0x100003850, symSize: 0x2C }
  - { offset: 0x2FF84, size: 0x8, addend: 0x0, symName: __ZNSt3__16vectorIxNS_9allocatorIxEEEC1Em, symObjAddr: 0xCE4, symBinAddr: 0x10000387C, symSize: 0x34 }
  - { offset: 0x2FFBF, size: 0x8, addend: 0x0, symName: __ZNK20binomial_coeff_tableclExx, symObjAddr: 0xD18, symBinAddr: 0x1000038B0, symSize: 0xEC }
  - { offset: 0x30001, size: 0x8, addend: 0x0, symName: __ZNK6ripserI26compressed_distance_matrixIL24compressed_matrix_layout0EEE20get_simplex_verticesINSt3__116reverse_iteratorINS5_11__wrap_iterIPxEEEEEET_xxxSB_, symObjAddr: 0xE04, symBinAddr: 0x10000399C, symSize: 0x10C }
  - { offset: 0x30089, size: 0x8, addend: 0x0, symName: __ZNSt3__16vectorIxNS_9allocatorIxEEE6rbeginB8ne180100Ev, symObjAddr: 0xF10, symBinAddr: 0x100003AA8, symSize: 0x44 }
  - { offset: 0x300AF, size: 0x8, addend: 0x0, symName: __ZNSt3__16vectorIxNS_9allocatorIxEEEixB8ne180100Em, symObjAddr: 0xF54, symBinAddr: 0x100003AEC, symSize: 0x24 }
  - { offset: 0x300E6, size: 0x8, addend: 0x0, symName: __ZNSt3__16vectorINS_4pairIfxEENS_9allocatorIS2_EEE9push_backB8ne180100EOS2_, symObjAddr: 0xF78, symBinAddr: 0x100003B10, symSize: 0x90 }
  - { offset: 0x3012C, size: 0x8, addend: 0x0, symName: __ZNSt3__14pairIfxEC1B8ne180100IRfRxLi0EEEOT_OT0_, symObjAddr: 0x1008, symBinAddr: 0x100003BA0, symSize: 0x3C }
  - { offset: 0x3018A, size: 0x8, addend: 0x0, symName: __ZNSt3__16vectorIxNS_9allocatorIxEEED1B8ne180100Ev, symObjAddr: 0x1044, symBinAddr: 0x100003BDC, symSize: 0x2C }
  - { offset: 0x301B4, size: 0x8, addend: 0x0, symName: __ZNSt3__16vectorINS_4pairIfxEENS_9allocatorIS2_EEED1B8ne180100Ev, symObjAddr: 0x1070, symBinAddr: 0x100003C08, symSize: 0x2C }
  - { offset: 0x301DE, size: 0x8, addend: 0x0, symName: __ZN6ripserI22sparse_distance_matrixE9get_edgesEv, symObjAddr: 0x109C, symBinAddr: 0x100003C34, symSize: 0x1A8 }
  - { offset: 0x30292, size: 0x8, addend: 0x0, symName: __ZNKSt3__16vectorINS0_INS_4pairIxfEENS_9allocatorIS2_EEEENS3_IS5_EEEixB8ne180100Em, symObjAddr: 0x1244, symBinAddr: 0x100003DDC, symSize: 0x2C }
  - { offset: 0x302C9, size: 0x8, addend: 0x0, symName: __ZNKSt3__16vectorINS_4pairIxfEENS_9allocatorIS2_EEE5beginB8ne180100Ev, symObjAddr: 0x1270, symBinAddr: 0x100003E08, symSize: 0x30 }
  - { offset: 0x302F1, size: 0x8, addend: 0x0, symName: __ZNKSt3__16vectorINS_4pairIxfEENS_9allocatorIS2_EEE3endB8ne180100Ev, symObjAddr: 0x12A0, symBinAddr: 0x100003E38, symSize: 0x30 }
  - { offset: 0x30319, size: 0x8, addend: 0x0, symName: __ZNKSt3__111__wrap_iterIPKNS_4pairIxfEEEdeB8ne180100Ev, symObjAddr: 0x1304, symBinAddr: 0x100003E9C, symSize: 0x18 }
  - { offset: 0x3033F, size: 0x8, addend: 0x0, symName: __ZNK6ripserI22sparse_distance_matrixE14get_edge_indexExx, symObjAddr: 0x131C, symBinAddr: 0x100003EB4, symSize: 0x40 }
  - { offset: 0x3038F, size: 0x8, addend: 0x0, symName: __ZNSt3__14pairIfxEC1B8ne180100IfxLi0EEEOT_OT0_, symObjAddr: 0x135C, symBinAddr: 0x100003EF4, symSize: 0x3C }
  - { offset: 0x303ED, size: 0x8, addend: 0x0, symName: __ZNSt3__111__wrap_iterIPKNS_4pairIxfEEEppB8ne180100Ev, symObjAddr: 0x1398, symBinAddr: 0x100003F30, symSize: 0x20 }
  - { offset: 0x30412, size: 0x8, addend: 0x0, symName: __Z16read_point_cloudRNSt3__113basic_istreamIcNS_11char_traitsIcEEEE, symObjAddr: 0x13B8, symBinAddr: 0x100003F50, symSize: 0x300 }
  - { offset: 0x304B6, size: 0x8, addend: 0x0, symName: __ZNSt3__16vectorINS0_IfNS_9allocatorIfEEEENS1_IS3_EEEC1B8ne180100Ev, symObjAddr: 0x16B8, symBinAddr: 0x100004250, symSize: 0x2C }
  - { offset: 0x304E0, size: 0x8, addend: 0x0, symName: __ZNSt3__112basic_stringIcNS_11char_traitsIcEENS_9allocatorIcEEEC1B8ne180100Ev, symObjAddr: 0x16E4, symBinAddr: 0x10000427C, symSize: 0x2C }
  - { offset: 0x3050A, size: 0x8, addend: 0x0, symName: __ZNKSt3__19basic_iosIcNS_11char_traitsIcEEEcvbB8ne180100Ev, symObjAddr: 0x176C, symBinAddr: 0x100004304, symSize: 0x2C }
  - { offset: 0x30530, size: 0x8, addend: 0x0, symName: __ZNSt3__16vectorIfNS_9allocatorIfEEEC1B8ne180100Ev, symObjAddr: 0x1798, symBinAddr: 0x100004330, symSize: 0x2C }
  - { offset: 0x30624, size: 0x8, addend: 0x0, symName: __ZNSt3__119basic_istringstreamIcNS_11char_traitsIcEENS_9allocatorIcEEEC1B8ne180100ERKNS_12basic_stringIcS2_S4_EEj, symObjAddr: 0x17C4, symBinAddr: 0x10000435C, symSize: 0xF4 }
  - { offset: 0x3066C, size: 0x8, addend: 0x0, symName: __ZNSt3__16vectorIfNS_9allocatorIfEEE9push_backB8ne180100ERKf, symObjAddr: 0x18B8, symBinAddr: 0x100004450, symSize: 0x90 }
  - { offset: 0x306B2, size: 0x8, addend: 0x0, symName: __ZNSt3__111char_traitsIcE3eofB8ne180100Ev, symObjAddr: 0x1948, symBinAddr: 0x1000044E0, symSize: 0x8 }
  - { offset: 0x306C6, size: 0x8, addend: 0x0, symName: __ZNKSt3__16vectorIfNS_9allocatorIfEEE5emptyB8ne180100Ev, symObjAddr: 0x1950, symBinAddr: 0x1000044E8, symSize: 0x28 }
  - { offset: 0x306EC, size: 0x8, addend: 0x0, symName: __ZNSt3__16vectorINS0_IfNS_9allocatorIfEEEENS1_IS3_EEE9push_backB8ne180100ERKS3_, symObjAddr: 0x1978, symBinAddr: 0x100004510, symSize: 0x90 }
  - { offset: 0x30732, size: 0x8, addend: 0x0, symName: __ZNKSt3__16vectorIfNS_9allocatorIfEEE4sizeB8ne180100Ev, symObjAddr: 0x1A08, symBinAddr: 0x1000045A0, symSize: 0x28 }
  - { offset: 0x30758, size: 0x8, addend: 0x0, symName: __ZNSt3__16vectorINS0_IfNS_9allocatorIfEEEENS1_IS3_EEE5frontB8ne180100Ev, symObjAddr: 0x1A30, symBinAddr: 0x1000045C8, symSize: 0x18 }
  - { offset: 0x30783, size: 0x8, addend: 0x0, symName: __ZNSt3__119basic_istringstreamIcNS_11char_traitsIcEENS_9allocatorIcEEED1Ev, symObjAddr: 0x1A48, symBinAddr: 0x1000045E0, symSize: 0x40 }
  - { offset: 0x307B0, size: 0x8, addend: 0x0, symName: __ZNSt3__16vectorIfNS_9allocatorIfEEED1B8ne180100Ev, symObjAddr: 0x1A88, symBinAddr: 0x100004620, symSize: 0x2C }
  - { offset: 0x30856, size: 0x8, addend: 0x0, symName: __ZN25euclidean_distance_matrixC1EONSt3__16vectorINS1_IfNS0_9allocatorIfEEEENS2_IS4_EEEE, symObjAddr: 0x1AB4, symBinAddr: 0x10000464C, symSize: 0x34 }
  - { offset: 0x3088F, size: 0x8, addend: 0x0, symName: __ZNK25euclidean_distance_matrix4sizeEv, symObjAddr: 0x1AE8, symBinAddr: 0x100004680, symSize: 0x24 }
  - { offset: 0x308B5, size: 0x8, addend: 0x0, symName: __ZNSt3__113basic_ostreamIcNS_11char_traitsIcEEElsB8ne180100EPFRS3_S4_E, symObjAddr: 0x1B54, symBinAddr: 0x1000046EC, symSize: 0x2C }
  - { offset: 0x308E9, size: 0x8, addend: 0x0, symName: __ZN25euclidean_distance_matrixD1Ev, symObjAddr: 0x1BD8, symBinAddr: 0x100004770, symSize: 0x2C }
  - { offset: 0x30916, size: 0x8, addend: 0x0, symName: __ZNSt3__16vectorINS0_IfNS_9allocatorIfEEEENS1_IS3_EEED1B8ne180100Ev, symObjAddr: 0x1C04, symBinAddr: 0x10000479C, symSize: 0x2C }
  - { offset: 0x3093F, size: 0x8, addend: 0x0, symName: __Z27read_sparse_distance_matrixRNSt3__113basic_istreamIcNS_11char_traitsIcEEEE, symObjAddr: 0x1C30, symBinAddr: 0x1000047C8, symSize: 0x31C }
  - { offset: 0x30A02, size: 0x8, addend: 0x0, symName: __ZNSt3__16vectorINS0_INS_4pairIxfEENS_9allocatorIS2_EEEENS3_IS5_EEEC1B8ne180100Ev, symObjAddr: 0x1F4C, symBinAddr: 0x100004AE4, symSize: 0x2C }
  - { offset: 0x30A2C, size: 0x8, addend: 0x0, symName: __ZNSt3__16vectorINS0_INS_4pairIxfEENS_9allocatorIS2_EEEENS3_IS5_EEE6resizeEm, symObjAddr: 0x1F78, symBinAddr: 0x100004B10, symSize: 0x9C }
  - { offset: 0x30A72, size: 0x8, addend: 0x0, symName: __ZNKSt3__16vectorINS0_INS_4pairIxfEENS_9allocatorIS2_EEEENS3_IS5_EEE4sizeB8ne180100Ev, symObjAddr: 0x2064, symBinAddr: 0x100004BFC, symSize: 0x28 }
  - { offset: 0x30A98, size: 0x8, addend: 0x0, symName: __ZNSt3__16vectorINS0_INS_4pairIxfEENS_9allocatorIS2_EEEENS3_IS5_EEEixB8ne180100Em, symObjAddr: 0x208C, symBinAddr: 0x100004C24, symSize: 0x2C }
  - { offset: 0x30ACF, size: 0x8, addend: 0x0, symName: __ZNSt3__16vectorINS_4pairIxfEENS_9allocatorIS2_EEE9push_backB8ne180100EOS2_, symObjAddr: 0x20B8, symBinAddr: 0x100004C50, symSize: 0x90 }
  - { offset: 0x30B15, size: 0x8, addend: 0x0, symName: __ZNSt3__14pairIxfEC1B8ne180100IRmRfLi0EEEOT_OT0_, symObjAddr: 0x2148, symBinAddr: 0x100004CE0, symSize: 0x3C }
  - { offset: 0x30B73, size: 0x8, addend: 0x0, symName: __ZNSt3__16vectorINS_4pairIxfEENS_9allocatorIS2_EEE5beginB8ne180100Ev, symObjAddr: 0x21C0, symBinAddr: 0x100004D58, symSize: 0x30 }
  - { offset: 0x30B9B, size: 0x8, addend: 0x0, symName: __ZNSt3__16vectorINS_4pairIxfEENS_9allocatorIS2_EEE3endB8ne180100Ev, symObjAddr: 0x21F0, symBinAddr: 0x100004D88, symSize: 0x30 }
  - { offset: 0x30BC3, size: 0x8, addend: 0x0, symName: __ZN22sparse_distance_matrixC1EONSt3__16vectorINS1_INS0_4pairIxfEENS0_9allocatorIS3_EEEENS4_IS6_EEEEx, symObjAddr: 0x2220, symBinAddr: 0x100004DB8, symSize: 0x3C }
  - { offset: 0x30C0B, size: 0x8, addend: 0x0, symName: __ZNSt3__16vectorINS0_INS_4pairIxfEENS_9allocatorIS2_EEEENS3_IS5_EEED1B8ne180100Ev, symObjAddr: 0x225C, symBinAddr: 0x100004DF4, symSize: 0x2C }
  - { offset: 0x30C34, size: 0x8, addend: 0x0, symName: __Z26read_lower_distance_matrixRNSt3__113basic_istreamIcNS_11char_traitsIcEEEE, symObjAddr: 0x2288, symBinAddr: 0x100004E20, symSize: 0xD8 }
  - { offset: 0x30C81, size: 0x8, addend: 0x0, symName: __ZN26compressed_distance_matrixIL24compressed_matrix_layout0EEC1EONSt3__16vectorIfNS2_9allocatorIfEEEE, symObjAddr: 0x2360, symBinAddr: 0x100004EF8, symSize: 0x34 }
  - { offset: 0x30CB8, size: 0x8, addend: 0x0, symName: __Z26read_upper_distance_matrixRNSt3__113basic_istreamIcNS_11char_traitsIcEEEE, symObjAddr: 0x2394, symBinAddr: 0x100004F2C, symSize: 0x10C }
  - { offset: 0x30D05, size: 0x8, addend: 0x0, symName: __ZN26compressed_distance_matrixIL24compressed_matrix_layout1EEC1EONSt3__16vectorIfNS2_9allocatorIfEEEE, symObjAddr: 0x24A0, symBinAddr: 0x100005038, symSize: 0x34 }
  - { offset: 0x30D42, size: 0x8, addend: 0x0, symName: __ZN26compressed_distance_matrixIL24compressed_matrix_layout0EEC1IS_ILS0_1EEEERKT_, symObjAddr: 0x24D4, symBinAddr: 0x10000506C, symSize: 0x34 }
  - { offset: 0x30D83, size: 0x8, addend: 0x0, symName: __ZN26compressed_distance_matrixIL24compressed_matrix_layout1EED1Ev, symObjAddr: 0x2508, symBinAddr: 0x1000050A0, symSize: 0x2C }
  - { offset: 0x30DAE, size: 0x8, addend: 0x0, symName: __Z20read_distance_matrixRNSt3__113basic_istreamIcNS_11char_traitsIcEEEE, symObjAddr: 0x2534, symBinAddr: 0x1000050CC, symSize: 0x1E0 }
  - { offset: 0x30E53, size: 0x8, addend: 0x0, symName: __Z10read_diphaRNSt3__113basic_istreamIcNS_11char_traitsIcEEEE, symObjAddr: 0x2714, symBinAddr: 0x1000052AC, symSize: 0x1BC }
  - { offset: 0x30EC9, size: 0x8, addend: 0x0, symName: __Z4readIxET_RNSt3__113basic_istreamIcNS1_11char_traitsIcEEEE, symObjAddr: 0x28D0, symBinAddr: 0x100005468, symSize: 0x84 }
  - { offset: 0x30F1F, size: 0x8, addend: 0x0, symName: __ZNSt3__16vectorIfNS_9allocatorIfEEE9push_backB8ne180100EOf, symObjAddr: 0x2954, symBinAddr: 0x1000054EC, symSize: 0x90 }
  - { offset: 0x30F64, size: 0x8, addend: 0x0, symName: __Z4readIdET_RNSt3__113basic_istreamIcNS1_11char_traitsIcEEEE, symObjAddr: 0x29E4, symBinAddr: 0x10000557C, symSize: 0x88 }
  - { offset: 0x30FB9, size: 0x8, addend: 0x0, symName: __Z11read_binaryRNSt3__113basic_istreamIcNS_11char_traitsIcEEEE, symObjAddr: 0x2A6C, symBinAddr: 0x100005604, symSize: 0xBC }
  - { offset: 0x30FF7, size: 0x8, addend: 0x0, symName: __ZNKSt3__19basic_iosIcNS_11char_traitsIcEEE3eofB8ne180100Ev, symObjAddr: 0x2B28, symBinAddr: 0x1000056C0, symSize: 0x28 }
  - { offset: 0x3101C, size: 0x8, addend: 0x0, symName: __Z4readIfET_RNSt3__113basic_istreamIcNS1_11char_traitsIcEEEE, symObjAddr: 0x2B50, symBinAddr: 0x1000056E8, symSize: 0x88 }
  - { offset: 0x31071, size: 0x8, addend: 0x0, symName: __Z9read_fileRNSt3__113basic_istreamIcNS_11char_traitsIcEEEE11file_format, symObjAddr: 0x2BD8, symBinAddr: 0x100005770, symSize: 0x1BC }
  - { offset: 0x310B4, size: 0x8, addend: 0x0, symName: __ZN26compressed_distance_matrixIL24compressed_matrix_layout0EEC1I25euclidean_distance_matrixEERKT_, symObjAddr: 0x2DA8, symBinAddr: 0x100005940, symSize: 0x34 }
  - { offset: 0x310F4, size: 0x8, addend: 0x0, symName: __Z20print_usage_and_exiti, symObjAddr: 0x2DDC, symBinAddr: 0x100005974, symSize: 0x170 }
  - { offset: 0x3111F, size: 0x8, addend: 0x0, symName: _main, symObjAddr: 0x2F4C, symBinAddr: 0x100005AE4, symSize: 0xF24 }
  - { offset: 0x313B9, size: 0x8, addend: 0x0, symName: __ZNSt3__114numeric_limitsIfE3maxB8ne180100Ev, symObjAddr: 0x3E70, symBinAddr: 0x100006A08, symSize: 0x14 }
  - { offset: 0x313CD, size: 0x8, addend: 0x0, symName: __ZNKSt3__112basic_stringIcNS_11char_traitsIcEENS_9allocatorIcEEE4sizeB8ne180100Ev, symObjAddr: 0x3F30, symBinAddr: 0x100006AC8, symSize: 0x54 }
  - { offset: 0x313F3, size: 0x8, addend: 0x0, symName: __ZNKSt3__112basic_stringIcNS_11char_traitsIcEENS_9allocatorIcEEE5rfindB8ne180100EPKcm, symObjAddr: 0x3F84, symBinAddr: 0x100006B1C, symSize: 0x74 }
  - { offset: 0x316F0, size: 0x8, addend: 0x0, symName: __ZNSt3__114basic_ifstreamIcNS_11char_traitsIcEEEC1EPKcj, symObjAddr: 0x3FF8, symBinAddr: 0x100006B90, symSize: 0x164 }
  - { offset: 0x3173A, size: 0x8, addend: 0x0, symName: __ZNKSt3__19basic_iosIcNS_11char_traitsIcEEE4failB8ne180100Ev, symObjAddr: 0x415C, symBinAddr: 0x100006CF4, symSize: 0x28 }
  - { offset: 0x31760, size: 0x8, addend: 0x0, symName: __ZNK22sparse_distance_matrix4sizeEv, symObjAddr: 0x4184, symBinAddr: 0x100006D1C, symSize: 0x24 }
  - { offset: 0x31786, size: 0x8, addend: 0x0, symName: __ZN6ripserI22sparse_distance_matrixEC1EOS0_xfft, symObjAddr: 0x41A8, symBinAddr: 0x100006D40, symSize: 0x54 }
  - { offset: 0x317FB, size: 0x8, addend: 0x0, symName: __ZN6ripserI22sparse_distance_matrixE16compute_barcodesEv, symObjAddr: 0x41FC, symBinAddr: 0x100006D94, symSize: 0x164 }
  - { offset: 0x3186A, size: 0x8, addend: 0x0, symName: __ZN6ripserI22sparse_distance_matrixED1Ev, symObjAddr: 0x4360, symBinAddr: 0x100006EF8, symSize: 0x2C }
  - { offset: 0x31897, size: 0x8, addend: 0x0, symName: __ZN22sparse_distance_matrixD1Ev, symObjAddr: 0x438C, symBinAddr: 0x100006F24, symSize: 0x2C }
  - { offset: 0x318C4, size: 0x8, addend: 0x0, symName: __ZN22sparse_distance_matrixC1I25euclidean_distance_matrixEERKT_f, symObjAddr: 0x43B8, symBinAddr: 0x100006F50, symSize: 0x3C }
  - { offset: 0x31915, size: 0x8, addend: 0x0, symName: __ZNK26compressed_distance_matrixIL24compressed_matrix_layout0EE21print_distance_matrixEv, symObjAddr: 0x43F4, symBinAddr: 0x100006F8C, symSize: 0x20C }
  - { offset: 0x31973, size: 0x8, addend: 0x0, symName: __ZNSt3__114numeric_limitsIfE8infinityB8ne180100Ev, symObjAddr: 0x4600, symBinAddr: 0x100007198, symSize: 0x14 }
  - { offset: 0x31987, size: 0x8, addend: 0x0, symName: __ZNSt3__16vectorIfNS_9allocatorIfEEE5beginB8ne180100Ev, symObjAddr: 0x466C, symBinAddr: 0x100007204, symSize: 0x30 }
  - { offset: 0x319AF, size: 0x8, addend: 0x0, symName: __ZNSt3__16vectorIfNS_9allocatorIfEEE3endB8ne180100Ev, symObjAddr: 0x469C, symBinAddr: 0x100007234, symSize: 0x30 }
  - { offset: 0x319D7, size: 0x8, addend: 0x0, symName: __ZNKSt3__111__wrap_iterIPfEdeB8ne180100Ev, symObjAddr: 0x4700, symBinAddr: 0x100007298, symSize: 0x18 }
  - { offset: 0x319FD, size: 0x8, addend: 0x0, symName: __ZNSt3__111__wrap_iterIPfEppB8ne180100Ev, symObjAddr: 0x4718, symBinAddr: 0x1000072B0, symSize: 0x20 }
  - { offset: 0x31A23, size: 0x8, addend: 0x0, symName: __ZN6ripserI26compressed_distance_matrixIL24compressed_matrix_layout0EEEC1EOS2_xfft, symObjAddr: 0x4738, symBinAddr: 0x1000072D0, symSize: 0x54 }
  - { offset: 0x31A98, size: 0x8, addend: 0x0, symName: __ZN6ripserI26compressed_distance_matrixIL24compressed_matrix_layout0EEE16compute_barcodesEv, symObjAddr: 0x478C, symBinAddr: 0x100007324, symSize: 0x164 }
  - { offset: 0x31B07, size: 0x8, addend: 0x0, symName: __ZN6ripserI26compressed_distance_matrixIL24compressed_matrix_layout0EEED1Ev, symObjAddr: 0x48F0, symBinAddr: 0x100007488, symSize: 0x2C }
  - { offset: 0x31B39, size: 0x8, addend: 0x0, symName: __ZN22sparse_distance_matrixC1I26compressed_distance_matrixIL24compressed_matrix_layout0EEEERKT_f, symObjAddr: 0x491C, symBinAddr: 0x1000074B4, symSize: 0x3C }
  - { offset: 0x31B8A, size: 0x8, addend: 0x0, symName: __ZN26compressed_distance_matrixIL24compressed_matrix_layout0EED1Ev, symObjAddr: 0x4958, symBinAddr: 0x1000074F0, symSize: 0x2C }
  - { offset: 0x31BBB, size: 0x8, addend: 0x0, symName: __ZNSt3__114basic_ifstreamIcNS_11char_traitsIcEEED1Ev, symObjAddr: 0x4984, symBinAddr: 0x10000751C, symSize: 0x40 }
  - { offset: 0x31BE8, size: 0x8, addend: 0x0, symName: __ZNSt14overflow_errorC2B8ne180100ERKNSt3__112basic_stringIcNS0_11char_traitsIcEENS0_9allocatorIcEEEE, symObjAddr: 0x49C4, symBinAddr: 0x10000755C, symSize: 0x44 }
  - { offset: 0x31C20, size: 0x8, addend: 0x0, symName: __ZNKSt3__16vectorINS0_IxNS_9allocatorIxEEEENS1_IS3_EEE4sizeB8ne180100Ev, symObjAddr: 0x4A08, symBinAddr: 0x1000075A0, symSize: 0x28 }
  - { offset: 0x31C46, size: 0x8, addend: 0x0, symName: __ZNKSt3__16vectorINS0_IxNS_9allocatorIxEEEENS1_IS3_EEEixB8ne180100Em, symObjAddr: 0x4A30, symBinAddr: 0x1000075C8, symSize: 0x2C }
  - { offset: 0x31C7D, size: 0x8, addend: 0x0, symName: __ZNKSt3__16vectorIxNS_9allocatorIxEEE4sizeB8ne180100Ev, symObjAddr: 0x4A5C, symBinAddr: 0x1000075F4, symSize: 0x28 }
  - { offset: 0x31CA3, size: 0x8, addend: 0x0, symName: __ZNKSt3__16vectorIxNS_9allocatorIxEEEixB8ne180100Em, symObjAddr: 0x4A84, symBinAddr: 0x10000761C, symSize: 0x24 }
  - { offset: 0x31CDA, size: 0x8, addend: 0x0, symName: __ZNKSt3__111__wrap_iterIPKNS_4pairIxfEEE4baseB8ne180100Ev, symObjAddr: 0x4AF0, symBinAddr: 0x100007688, symSize: 0x18 }
  - { offset: 0x31D00, size: 0x8, addend: 0x0, symName: __ZNSt3__119basic_istringstreamIcNS_11char_traitsIcEENS_9allocatorIcEEED2Ev, symObjAddr: 0x4B08, symBinAddr: 0x1000076A0, symSize: 0x64 }
  - { offset: 0x31D3A, size: 0x8, addend: 0x0, symName: __ZTv0_n24_NSt3__119basic_istringstreamIcNS_11char_traitsIcEENS_9allocatorIcEEED1Ev, symObjAddr: 0x4B6C, symBinAddr: 0x100007704, symSize: 0x28 }
  - { offset: 0x31D56, size: 0x8, addend: 0x0, symName: __ZNSt3__115basic_stringbufIcNS_11char_traitsIcEENS_9allocatorIcEEED1Ev, symObjAddr: 0x4B94, symBinAddr: 0x10000772C, symSize: 0x2C }
  - { offset: 0x31D83, size: 0x8, addend: 0x0, symName: __ZNSt3__115basic_stringbufIcNS_11char_traitsIcEENS_9allocatorIcEEED2Ev, symObjAddr: 0x4BC0, symBinAddr: 0x100007758, symSize: 0x48 }
  - { offset: 0x31DB0, size: 0x8, addend: 0x0, symName: __ZN25euclidean_distance_matrixC2EONSt3__16vectorINS1_IfNS0_9allocatorIfEEEENS2_IS4_EEEE, symObjAddr: 0x4C08, symBinAddr: 0x1000077A0, symSize: 0x13C }
  - { offset: 0x31E33, size: 0x8, addend: 0x0, symName: __ZNSt3__16vectorINS0_IfNS_9allocatorIfEEEENS1_IS3_EEEC1B8ne180100EOS5_, symObjAddr: 0x4D44, symBinAddr: 0x1000078DC, symSize: 0x34 }
  - { offset: 0x31E6E, size: 0x8, addend: 0x0, symName: __ZNSt3__16vectorINS0_IfNS_9allocatorIfEEEENS1_IS3_EEE5beginB8ne180100Ev, symObjAddr: 0x4D78, symBinAddr: 0x100007910, symSize: 0x30 }
  - { offset: 0x31E96, size: 0x8, addend: 0x0, symName: __ZNSt3__16vectorINS0_IfNS_9allocatorIfEEEENS1_IS3_EEE3endB8ne180100Ev, symObjAddr: 0x4DA8, symBinAddr: 0x100007940, symSize: 0x30 }
  - { offset: 0x31EBE, size: 0x8, addend: 0x0, symName: __ZNKSt3__111__wrap_iterIPNS_6vectorIfNS_9allocatorIfEEEEEdeB8ne180100Ev, symObjAddr: 0x4E0C, symBinAddr: 0x1000079A4, symSize: 0x18 }
  - { offset: 0x31EE4, size: 0x8, addend: 0x0, symName: __ZNSt3__16vectorIfNS_9allocatorIfEEEC1ERKS3_, symObjAddr: 0x4E24, symBinAddr: 0x1000079BC, symSize: 0x34 }
  - { offset: 0x31F1F, size: 0x8, addend: 0x0, symName: __ZNSt3__111__wrap_iterIPNS_6vectorIfNS_9allocatorIfEEEEEppB8ne180100Ev, symObjAddr: 0x4E58, symBinAddr: 0x1000079F0, symSize: 0x20 }
  - { offset: 0x31F45, size: 0x8, addend: 0x0, symName: __ZNSt3__16vectorINS0_IfNS_9allocatorIfEEEENS1_IS3_EEEC2B8ne180100EOS5_, symObjAddr: 0x4E78, symBinAddr: 0x100007A10, symSize: 0xC4 }
  - { offset: 0x31F80, size: 0x8, addend: 0x0, symName: __ZNSt3__16vectorINS0_IfNS_9allocatorIfEEEENS1_IS3_EEE7__allocB8ne180100Ev, symObjAddr: 0x4F3C, symBinAddr: 0x100007AD4, symSize: 0x28 }
  - { offset: 0x31FB2, size: 0x8, addend: 0x0, symName: __ZNSt3__117__compressed_pairIPNS_6vectorIfNS_9allocatorIfEEEENS2_IS4_EEEC1B8ne180100IDnS6_EEOT_OT0_, symObjAddr: 0x4F64, symBinAddr: 0x100007AFC, symSize: 0x3C }
  - { offset: 0x3200A, size: 0x8, addend: 0x0, symName: __ZNSt3__16vectorINS0_IfNS_9allocatorIfEEEENS1_IS3_EEE9__end_capB8ne180100Ev, symObjAddr: 0x4FB0, symBinAddr: 0x100007B48, symSize: 0x28 }
  - { offset: 0x32030, size: 0x8, addend: 0x0, symName: __ZNSt3__117__compressed_pairIPNS_6vectorIfNS_9allocatorIfEEEENS2_IS4_EEE6secondB8ne180100Ev, symObjAddr: 0x4FD8, symBinAddr: 0x100007B70, symSize: 0x24 }
  - { offset: 0x32056, size: 0x8, addend: 0x0, symName: __ZNSt3__122__compressed_pair_elemINS_9allocatorINS_6vectorIfNS1_IfEEEEEELi1ELb1EE5__getB8ne180100Ev, symObjAddr: 0x4FFC, symBinAddr: 0x100007B94, symSize: 0x14 }
  - { offset: 0x3207C, size: 0x8, addend: 0x0, symName: __ZNSt3__117__compressed_pairIPNS_6vectorIfNS_9allocatorIfEEEENS2_IS4_EEEC2B8ne180100IDnS6_EEOT_OT0_, symObjAddr: 0x5010, symBinAddr: 0x100007BA8, symSize: 0x44 }
  - { offset: 0x320D4, size: 0x8, addend: 0x0, symName: __ZNSt3__122__compressed_pair_elemIPNS_6vectorIfNS_9allocatorIfEEEELi0ELb0EEC2B8ne180100IDnvEEOT_, symObjAddr: 0x5054, symBinAddr: 0x100007BEC, symSize: 0x1C }
  - { offset: 0x32116, size: 0x8, addend: 0x0, symName: __ZNSt3__122__compressed_pair_elemINS_9allocatorINS_6vectorIfNS1_IfEEEEEELi1ELb1EEC2B8ne180100IS5_vEEOT_, symObjAddr: 0x5070, symBinAddr: 0x100007C08, symSize: 0x18 }
  - { offset: 0x32158, size: 0x8, addend: 0x0, symName: __ZNSt3__117__compressed_pairIPNS_6vectorIfNS_9allocatorIfEEEENS2_IS4_EEE5firstB8ne180100Ev, symObjAddr: 0x5088, symBinAddr: 0x100007C20, symSize: 0x24 }
  - { offset: 0x3217E, size: 0x8, addend: 0x0, symName: __ZNSt3__122__compressed_pair_elemIPNS_6vectorIfNS_9allocatorIfEEEELi0ELb0EE5__getB8ne180100Ev, symObjAddr: 0x50AC, symBinAddr: 0x100007C44, symSize: 0x14 }
  - { offset: 0x321A4, size: 0x8, addend: 0x0, symName: __ZNSt3__16vectorINS0_IfNS_9allocatorIfEEEENS1_IS3_EEE11__make_iterB8ne180100EPS3_, symObjAddr: 0x50C0, symBinAddr: 0x100007C58, symSize: 0x30 }
  - { offset: 0x321D9, size: 0x8, addend: 0x0, symName: __ZNSt3__111__wrap_iterIPNS_6vectorIfNS_9allocatorIfEEEEEC1B8ne180100ES5_, symObjAddr: 0x50F0, symBinAddr: 0x100007C88, symSize: 0x34 }
  - { offset: 0x32211, size: 0x8, addend: 0x0, symName: __ZNSt3__111__wrap_iterIPNS_6vectorIfNS_9allocatorIfEEEEEC2B8ne180100ES5_, symObjAddr: 0x5124, symBinAddr: 0x100007CBC, symSize: 0x20 }
  - { offset: 0x32249, size: 0x8, addend: 0x0, symName: __ZNKSt3__111__wrap_iterIPNS_6vectorIfNS_9allocatorIfEEEEE4baseB8ne180100Ev, symObjAddr: 0x518C, symBinAddr: 0x100007D24, symSize: 0x18 }
  - { offset: 0x3226F, size: 0x8, addend: 0x0, symName: __ZNSt3__16vectorIfNS_9allocatorIfEEEC2ERKS3_, symObjAddr: 0x51A4, symBinAddr: 0x100007D3C, symSize: 0x94 }
  - { offset: 0x322B4, size: 0x8, addend: 0x0, symName: __ZNSt3__116allocator_traitsINS_9allocatorIfEEE37select_on_container_copy_constructionB8ne180100IS2_vvEES2_RKS2_, symObjAddr: 0x5238, symBinAddr: 0x100007DD0, symSize: 0x10 }
  - { offset: 0x322E3, size: 0x8, addend: 0x0, symName: __ZNKSt3__16vectorIfNS_9allocatorIfEEE7__allocB8ne180100Ev, symObjAddr: 0x5248, symBinAddr: 0x100007DE0, symSize: 0x28 }
  - { offset: 0x3230F, size: 0x8, addend: 0x0, symName: __ZNSt3__117__compressed_pairIPfNS_9allocatorIfEEEC1B8ne180100IDnS3_EEOT_OT0_, symObjAddr: 0x5270, symBinAddr: 0x100007E08, symSize: 0x3C }
  - { offset: 0x32367, size: 0x8, addend: 0x0, symName: __ZNSt3__16vectorIfNS_9allocatorIfEEE16__init_with_sizeB8ne180100IPfS5_EEvT_T0_m, symObjAddr: 0x52AC, symBinAddr: 0x100007E44, symSize: 0xB8 }
  - { offset: 0x323DB, size: 0x8, addend: 0x0, symName: __ZNKSt3__117__compressed_pairIPfNS_9allocatorIfEEE6secondB8ne180100Ev, symObjAddr: 0x5364, symBinAddr: 0x100007EFC, symSize: 0x24 }
  - { offset: 0x32401, size: 0x8, addend: 0x0, symName: __ZNKSt3__122__compressed_pair_elemINS_9allocatorIfEELi1ELb1EE5__getB8ne180100Ev, symObjAddr: 0x5388, symBinAddr: 0x100007F20, symSize: 0x14 }
  - { offset: 0x32427, size: 0x8, addend: 0x0, symName: __ZNSt3__117__compressed_pairIPfNS_9allocatorIfEEEC2B8ne180100IDnS3_EEOT_OT0_, symObjAddr: 0x539C, symBinAddr: 0x100007F34, symSize: 0x44 }
  - { offset: 0x3247F, size: 0x8, addend: 0x0, symName: __ZNSt3__122__compressed_pair_elemIPfLi0ELb0EEC2B8ne180100IDnvEEOT_, symObjAddr: 0x53E0, symBinAddr: 0x100007F78, symSize: 0x1C }
  - { offset: 0x324C1, size: 0x8, addend: 0x0, symName: __ZNSt3__122__compressed_pair_elemINS_9allocatorIfEELi1ELb1EEC2B8ne180100IS2_vEEOT_, symObjAddr: 0x53FC, symBinAddr: 0x100007F94, symSize: 0x18 }
  - { offset: 0x32503, size: 0x8, addend: 0x0, symName: __ZNSt3__16vectorIfNS_9allocatorIfEEE16__destroy_vectorC1B8ne180100ERS3_, symObjAddr: 0x5454, symBinAddr: 0x100007FEC, symSize: 0x34 }
  - { offset: 0x3253C, size: 0x8, addend: 0x0, symName: __ZNSt3__16vectorIfNS_9allocatorIfEEE11__vallocateB8ne180100Em, symObjAddr: 0x5488, symBinAddr: 0x100008020, symSize: 0xAC }
  - { offset: 0x32580, size: 0x8, addend: 0x0, symName: __ZNSt3__16vectorIfNS_9allocatorIfEEE18__construct_at_endIPfS5_EEvT_T0_m, symObjAddr: 0x5534, symBinAddr: 0x1000080CC, symSize: 0x8C }
  - { offset: 0x325F6, size: 0x8, addend: 0x0, symName: __ZNSt3__128__exception_guard_exceptionsINS_6vectorIfNS_9allocatorIfEEE16__destroy_vectorEE10__completeB8ne180100Ev, symObjAddr: 0x55C0, symBinAddr: 0x100008158, symSize: 0x1C }
  - { offset: 0x3261C, size: 0x8, addend: 0x0, symName: __ZNSt3__128__exception_guard_exceptionsINS_6vectorIfNS_9allocatorIfEEE16__destroy_vectorEED1B8ne180100Ev, symObjAddr: 0x55DC, symBinAddr: 0x100008174, symSize: 0x2C }
  - { offset: 0x32646, size: 0x8, addend: 0x0, symName: __ZNSt3__128__exception_guard_exceptionsINS_6vectorIfNS_9allocatorIfEEE16__destroy_vectorEEC1B8ne180100ES5_, symObjAddr: 0x5608, symBinAddr: 0x1000081A0, symSize: 0x34 }
  - { offset: 0x3267E, size: 0x8, addend: 0x0, symName: __ZNSt3__128__exception_guard_exceptionsINS_6vectorIfNS_9allocatorIfEEE16__destroy_vectorEEC2B8ne180100ES5_, symObjAddr: 0x563C, symBinAddr: 0x1000081D4, symSize: 0x24 }
  - { offset: 0x326B6, size: 0x8, addend: 0x0, symName: __ZNSt3__16vectorIfNS_9allocatorIfEEE16__destroy_vectorC2B8ne180100ERS3_, symObjAddr: 0x5660, symBinAddr: 0x1000081F8, symSize: 0x20 }
  - { offset: 0x326EF, size: 0x8, addend: 0x0, symName: __ZNKSt3__16vectorIfNS_9allocatorIfEEE8max_sizeEv, symObjAddr: 0x5680, symBinAddr: 0x100008218, symSize: 0x60 }
  - { offset: 0x32717, size: 0x8, addend: 0x0, symName: __ZNKSt3__16vectorIfNS_9allocatorIfEEE20__throw_length_errorB8ne180100Ev, symObjAddr: 0x56E0, symBinAddr: 0x100008278, symSize: 0x1C }
  - { offset: 0x3273D, size: 0x8, addend: 0x0, symName: __ZNSt3__16vectorIfNS_9allocatorIfEEE7__allocB8ne180100Ev, symObjAddr: 0x573C, symBinAddr: 0x1000082D4, symSize: 0x28 }
  - { offset: 0x32763, size: 0x8, addend: 0x0, symName: __ZNSt3__16vectorIfNS_9allocatorIfEEE9__end_capB8ne180100Ev, symObjAddr: 0x5764, symBinAddr: 0x1000082FC, symSize: 0x28 }
  - { offset: 0x32789, size: 0x8, addend: 0x0, symName: __ZNKSt3__16vectorIfNS_9allocatorIfEEE14__annotate_newB8ne180100Em, symObjAddr: 0x578C, symBinAddr: 0x100008324, symSize: 0x14 }
  - { offset: 0x327BE, size: 0x8, addend: 0x0, symName: __ZNSt3__116allocator_traitsINS_9allocatorIfEEE8max_sizeB8ne180100IS2_vEEmRKS2_, symObjAddr: 0x57CC, symBinAddr: 0x100008364, symSize: 0x24 }
  - { offset: 0x327EC, size: 0x8, addend: 0x0, symName: __ZNSt3__114numeric_limitsIlE3maxB8ne180100Ev, symObjAddr: 0x57F0, symBinAddr: 0x100008388, symSize: 0x14 }
  - { offset: 0x3280A, size: 0x8, addend: 0x0, symName: __ZNKSt3__16__lessIvvEclB8ne180100ImmEEbRKT_RKT0_, symObjAddr: 0x5858, symBinAddr: 0x1000083F0, symSize: 0x34 }
  - { offset: 0x3285E, size: 0x8, addend: 0x0, symName: __ZNKSt3__19allocatorIfE8max_sizeB8ne180100Ev, symObjAddr: 0x588C, symBinAddr: 0x100008424, symSize: 0x14 }
  - { offset: 0x32884, size: 0x8, addend: 0x0, symName: __ZNSt3__123__libcpp_numeric_limitsIlLb1EE3maxB8ne180100Ev, symObjAddr: 0x58A0, symBinAddr: 0x100008438, symSize: 0x8 }
  - { offset: 0x32898, size: 0x8, addend: 0x0, symName: __ZNSt12length_errorC1B8ne180100EPKc, symObjAddr: 0x590C, symBinAddr: 0x1000084A4, symSize: 0x34 }
  - { offset: 0x328D0, size: 0x8, addend: 0x0, symName: __ZNSt12length_errorC2B8ne180100EPKc, symObjAddr: 0x5940, symBinAddr: 0x1000084D8, symSize: 0x44 }
  - { offset: 0x32908, size: 0x8, addend: 0x0, symName: __ZNSt3__19allocatorIfE8allocateB8ne180100Em, symObjAddr: 0x5984, symBinAddr: 0x10000851C, symSize: 0x58 }
  - { offset: 0x3293C, size: 0x8, addend: 0x0, symName: __ZNSt3__117__compressed_pairIPfNS_9allocatorIfEEE6secondB8ne180100Ev, symObjAddr: 0x5A5C, symBinAddr: 0x1000085F4, symSize: 0x24 }
  - { offset: 0x32962, size: 0x8, addend: 0x0, symName: __ZNSt3__122__compressed_pair_elemINS_9allocatorIfEELi1ELb1EE5__getB8ne180100Ev, symObjAddr: 0x5A80, symBinAddr: 0x100008618, symSize: 0x14 }
  - { offset: 0x32988, size: 0x8, addend: 0x0, symName: __ZNSt3__117__compressed_pairIPfNS_9allocatorIfEEE5firstB8ne180100Ev, symObjAddr: 0x5A94, symBinAddr: 0x10000862C, symSize: 0x24 }
  - { offset: 0x329AE, size: 0x8, addend: 0x0, symName: __ZNSt3__122__compressed_pair_elemIPfLi0ELb0EE5__getB8ne180100Ev, symObjAddr: 0x5AB8, symBinAddr: 0x100008650, symSize: 0x14 }
  - { offset: 0x329ED, size: 0x8, addend: 0x0, symName: __ZNSt3__16vectorIfNS_9allocatorIfEEE21_ConstructTransactionC1B8ne180100ERS3_m, symObjAddr: 0x5ACC, symBinAddr: 0x100008664, symSize: 0x3C }
  - { offset: 0x32A35, size: 0x8, addend: 0x0, symName: __ZNSt3__16vectorIfNS_9allocatorIfEEE21_ConstructTransactionD1B8ne180100Ev, symObjAddr: 0x5B88, symBinAddr: 0x100008720, symSize: 0x2C }
  - { offset: 0x32A5F, size: 0x8, addend: 0x0, symName: __ZNSt3__16vectorIfNS_9allocatorIfEEE21_ConstructTransactionC2B8ne180100ERS3_m, symObjAddr: 0x5BB4, symBinAddr: 0x10000874C, symSize: 0x44 }
  - { offset: 0x32AC7, size: 0x8, addend: 0x0, symName: __ZNSt3__14pairIPfS1_EC1B8ne180100IS1_S1_Li0EEEOT_OT0_, symObjAddr: 0x5D28, symBinAddr: 0x1000088C0, symSize: 0x3C }
  - { offset: 0x32B25, size: 0x8, addend: 0x0, symName: __ZNSt3__14pairIPfS1_EC2B8ne180100IS1_S1_Li0EEEOT_OT0_, symObjAddr: 0x5D64, symBinAddr: 0x1000088FC, symSize: 0x34 }
  - { offset: 0x32B8D, size: 0x8, addend: 0x0, symName: __ZNKSt3__114__copy_trivialclB8ne180100IffLi0EEENS_4pairIPT_PT0_EES4_S4_S6_, symObjAddr: 0x5F14, symBinAddr: 0x100008AAC, symSize: 0x48 }
  - { offset: 0x32BF5, size: 0x8, addend: 0x0, symName: __ZNSt3__14pairIPfS1_EC1B8ne180100IRS1_S1_Li0EEEOT_OT0_, symObjAddr: 0x60A4, symBinAddr: 0x100008C3C, symSize: 0x3C }
  - { offset: 0x32C53, size: 0x8, addend: 0x0, symName: __ZNSt3__14pairIPfS1_EC2B8ne180100IRS1_S1_Li0EEEOT_OT0_, symObjAddr: 0x60E0, symBinAddr: 0x100008C78, symSize: 0x34 }
  - { offset: 0x32CB1, size: 0x8, addend: 0x0, symName: __ZNSt3__118__unwrap_iter_implIPfLb1EE8__unwrapB8ne180100ES1_, symObjAddr: 0x6114, symBinAddr: 0x100008CAC, symSize: 0x24 }
  - { offset: 0x32CD4, size: 0x8, addend: 0x0, symName: __ZNSt3__118__unwrap_iter_implIPfLb1EE8__rewrapB8ne180100ES1_S1_, symObjAddr: 0x614C, symBinAddr: 0x100008CE4, symSize: 0x50 }
  - { offset: 0x32D05, size: 0x8, addend: 0x0, symName: __ZNSt3__16vectorIfNS_9allocatorIfEEE21_ConstructTransactionD2B8ne180100Ev, symObjAddr: 0x619C, symBinAddr: 0x100008D34, symSize: 0x20 }
  - { offset: 0x32D2F, size: 0x8, addend: 0x0, symName: __ZNSt3__128__exception_guard_exceptionsINS_6vectorIfNS_9allocatorIfEEE16__destroy_vectorEED2B8ne180100Ev, symObjAddr: 0x61BC, symBinAddr: 0x100008D54, symSize: 0x50 }
  - { offset: 0x32D59, size: 0x8, addend: 0x0, symName: __ZNSt3__16vectorIfNS_9allocatorIfEEE16__destroy_vectorclB8ne180100Ev, symObjAddr: 0x620C, symBinAddr: 0x100008DA4, symSize: 0x90 }
  - { offset: 0x32D7F, size: 0x8, addend: 0x0, symName: __ZNSt3__16vectorIfNS_9allocatorIfEEE7__clearB8ne180100Ev, symObjAddr: 0x629C, symBinAddr: 0x100008E34, symSize: 0x28 }
  - { offset: 0x32DA5, size: 0x8, addend: 0x0, symName: __ZNKSt3__16vectorIfNS_9allocatorIfEEE17__annotate_deleteB8ne180100Ev, symObjAddr: 0x62C4, symBinAddr: 0x100008E5C, symSize: 0x10 }
  - { offset: 0x32DCB, size: 0x8, addend: 0x0, symName: __ZNSt3__116allocator_traitsINS_9allocatorIfEEE10deallocateB8ne180100ERS2_Pfm, symObjAddr: 0x62D4, symBinAddr: 0x100008E6C, symSize: 0x34 }
  - { offset: 0x32E0D, size: 0x8, addend: 0x0, symName: __ZNKSt3__16vectorIfNS_9allocatorIfEEE8capacityB8ne180100Ev, symObjAddr: 0x6308, symBinAddr: 0x100008EA0, symSize: 0x40 }
  - { offset: 0x32E33, size: 0x8, addend: 0x0, symName: __ZNSt3__16vectorIfNS_9allocatorIfEEE22__base_destruct_at_endB8ne180100EPf, symObjAddr: 0x6348, symBinAddr: 0x100008EE0, symSize: 0x8C }
  - { offset: 0x32E77, size: 0x8, addend: 0x0, symName: __ZNSt3__116allocator_traitsINS_9allocatorIfEEE7destroyB8ne180100IfvEEvRS2_PT_, symObjAddr: 0x63D4, symBinAddr: 0x100008F6C, symSize: 0x2C }
  - { offset: 0x32EB4, size: 0x8, addend: 0x0, symName: __ZNSt3__19allocatorIfE7destroyB8ne180100EPf, symObjAddr: 0x6400, symBinAddr: 0x100008F98, symSize: 0x14 }
  - { offset: 0x32EE8, size: 0x8, addend: 0x0, symName: __ZNSt3__19allocatorIfE10deallocateB8ne180100EPfm, symObjAddr: 0x6414, symBinAddr: 0x100008FAC, symSize: 0x40 }
  - { offset: 0x32F2A, size: 0x8, addend: 0x0, symName: __ZNKSt3__16vectorIfNS_9allocatorIfEEE9__end_capB8ne180100Ev, symObjAddr: 0x64D0, symBinAddr: 0x100009068, symSize: 0x28 }
  - { offset: 0x32F50, size: 0x8, addend: 0x0, symName: __ZNKSt3__117__compressed_pairIPfNS_9allocatorIfEEE5firstB8ne180100Ev, symObjAddr: 0x64F8, symBinAddr: 0x100009090, symSize: 0x24 }
  - { offset: 0x32F76, size: 0x8, addend: 0x0, symName: __ZNKSt3__122__compressed_pair_elemIPfLi0ELb0EE5__getB8ne180100Ev, symObjAddr: 0x651C, symBinAddr: 0x1000090B4, symSize: 0x14 }
  - { offset: 0x32F9C, size: 0x8, addend: 0x0, symName: __ZNKSt3__16vectorINS0_IfNS_9allocatorIfEEEENS1_IS3_EEE4sizeB8ne180100Ev, symObjAddr: 0x6530, symBinAddr: 0x1000090C8, symSize: 0x28 }
  - { offset: 0x32FC2, size: 0x8, addend: 0x0, symName: __ZN25euclidean_distance_matrixD2Ev, symObjAddr: 0x6558, symBinAddr: 0x1000090F0, symSize: 0x2C }
  - { offset: 0x32FEF, size: 0x8, addend: 0x0, symName: __ZN22sparse_distance_matrixC2EONSt3__16vectorINS1_INS0_4pairIxfEENS0_9allocatorIS3_EEEENS4_IS6_EEEEx, symObjAddr: 0x6584, symBinAddr: 0x10000911C, symSize: 0x40 }
  - { offset: 0x33037, size: 0x8, addend: 0x0, symName: __ZNSt3__16vectorINS0_INS_4pairIxfEENS_9allocatorIS2_EEEENS3_IS5_EEEC1B8ne180100EOS7_, symObjAddr: 0x65C4, symBinAddr: 0x10000915C, symSize: 0x34 }
  - { offset: 0x33072, size: 0x8, addend: 0x0, symName: __ZNSt3__16vectorINS0_INS_4pairIxfEENS_9allocatorIS2_EEEENS3_IS5_EEEC2B8ne180100EOS7_, symObjAddr: 0x65F8, symBinAddr: 0x100009190, symSize: 0xC4 }
  - { offset: 0x330AD, size: 0x8, addend: 0x0, symName: __ZNSt3__16vectorINS0_INS_4pairIxfEENS_9allocatorIS2_EEEENS3_IS5_EEE7__allocB8ne180100Ev, symObjAddr: 0x66BC, symBinAddr: 0x100009254, symSize: 0x28 }
  - { offset: 0x330D9, size: 0x8, addend: 0x0, symName: __ZNSt3__117__compressed_pairIPNS_6vectorINS_4pairIxfEENS_9allocatorIS3_EEEENS4_IS6_EEEC1B8ne180100IDnS8_EEOT_OT0_, symObjAddr: 0x66E4, symBinAddr: 0x10000927C, symSize: 0x3C }
  - { offset: 0x33131, size: 0x8, addend: 0x0, symName: __ZNSt3__16vectorINS0_INS_4pairIxfEENS_9allocatorIS2_EEEENS3_IS5_EEE9__end_capB8ne180100Ev, symObjAddr: 0x6720, symBinAddr: 0x1000092B8, symSize: 0x28 }
  - { offset: 0x33157, size: 0x8, addend: 0x0, symName: __ZNSt3__117__compressed_pairIPNS_6vectorINS_4pairIxfEENS_9allocatorIS3_EEEENS4_IS6_EEE6secondB8ne180100Ev, symObjAddr: 0x6748, symBinAddr: 0x1000092E0, symSize: 0x24 }
  - { offset: 0x3317D, size: 0x8, addend: 0x0, symName: __ZNSt3__122__compressed_pair_elemINS_9allocatorINS_6vectorINS_4pairIxfEENS1_IS4_EEEEEELi1ELb1EE5__getB8ne180100Ev, symObjAddr: 0x676C, symBinAddr: 0x100009304, symSize: 0x14 }
  - { offset: 0x331A3, size: 0x8, addend: 0x0, symName: __ZNSt3__117__compressed_pairIPNS_6vectorINS_4pairIxfEENS_9allocatorIS3_EEEENS4_IS6_EEEC2B8ne180100IDnS8_EEOT_OT0_, symObjAddr: 0x6780, symBinAddr: 0x100009318, symSize: 0x44 }
  - { offset: 0x331FB, size: 0x8, addend: 0x0, symName: __ZNSt3__122__compressed_pair_elemIPNS_6vectorINS_4pairIxfEENS_9allocatorIS3_EEEELi0ELb0EEC2B8ne180100IDnvEEOT_, symObjAddr: 0x67C4, symBinAddr: 0x10000935C, symSize: 0x1C }
  - { offset: 0x3323D, size: 0x8, addend: 0x0, symName: __ZNSt3__122__compressed_pair_elemINS_9allocatorINS_6vectorINS_4pairIxfEENS1_IS4_EEEEEELi1ELb1EEC2B8ne180100IS7_vEEOT_, symObjAddr: 0x67E0, symBinAddr: 0x100009378, symSize: 0x18 }
  - { offset: 0x3327F, size: 0x8, addend: 0x0, symName: __ZNSt3__117__compressed_pairIPNS_6vectorINS_4pairIxfEENS_9allocatorIS3_EEEENS4_IS6_EEE5firstB8ne180100Ev, symObjAddr: 0x67F8, symBinAddr: 0x100009390, symSize: 0x24 }
  - { offset: 0x332A5, size: 0x8, addend: 0x0, symName: __ZNSt3__122__compressed_pair_elemIPNS_6vectorINS_4pairIxfEENS_9allocatorIS3_EEEELi0ELb0EE5__getB8ne180100Ev, symObjAddr: 0x681C, symBinAddr: 0x1000093B4, symSize: 0x14 }
  - { offset: 0x332CB, size: 0x8, addend: 0x0, symName: __ZN26compressed_distance_matrixIL24compressed_matrix_layout1EED2Ev, symObjAddr: 0x6830, symBinAddr: 0x1000093C8, symSize: 0x38 }
  - { offset: 0x332F7, size: 0x8, addend: 0x0, symName: __ZNSt3__16vectorIPfNS_9allocatorIS1_EEED1B8ne180100Ev, symObjAddr: 0x6868, symBinAddr: 0x100009400, symSize: 0x2C }
  - { offset: 0x33321, size: 0x8, addend: 0x0, symName: __ZNSt3__16vectorIPfNS_9allocatorIS1_EEED2B8ne180100Ev, symObjAddr: 0x6894, symBinAddr: 0x10000942C, symSize: 0x44 }
  - { offset: 0x3334B, size: 0x8, addend: 0x0, symName: __ZNSt3__16vectorIPfNS_9allocatorIS1_EEE16__destroy_vectorC1B8ne180100ERS4_, symObjAddr: 0x68D8, symBinAddr: 0x100009470, symSize: 0x34 }
  - { offset: 0x33384, size: 0x8, addend: 0x0, symName: __ZNSt3__16vectorIPfNS_9allocatorIS1_EEE16__destroy_vectorclB8ne180100Ev, symObjAddr: 0x690C, symBinAddr: 0x1000094A4, symSize: 0x90 }
  - { offset: 0x333AA, size: 0x8, addend: 0x0, symName: __ZNSt3__16vectorIPfNS_9allocatorIS1_EEE16__destroy_vectorC2B8ne180100ERS4_, symObjAddr: 0x699C, symBinAddr: 0x100009534, symSize: 0x20 }
  - { offset: 0x333E3, size: 0x8, addend: 0x0, symName: __ZNSt3__16vectorIPfNS_9allocatorIS1_EEE7__clearB8ne180100Ev, symObjAddr: 0x69BC, symBinAddr: 0x100009554, symSize: 0x28 }
  - { offset: 0x33409, size: 0x8, addend: 0x0, symName: __ZNKSt3__16vectorIPfNS_9allocatorIS1_EEE17__annotate_deleteB8ne180100Ev, symObjAddr: 0x69E4, symBinAddr: 0x10000957C, symSize: 0x10 }
  - { offset: 0x3342F, size: 0x8, addend: 0x0, symName: __ZNSt3__116allocator_traitsINS_9allocatorIPfEEE10deallocateB8ne180100ERS3_PS2_m, symObjAddr: 0x69F4, symBinAddr: 0x10000958C, symSize: 0x34 }
  - { offset: 0x33471, size: 0x8, addend: 0x0, symName: __ZNSt3__16vectorIPfNS_9allocatorIS1_EEE7__allocB8ne180100Ev, symObjAddr: 0x6A28, symBinAddr: 0x1000095C0, symSize: 0x28 }
  - { offset: 0x33497, size: 0x8, addend: 0x0, symName: __ZNKSt3__16vectorIPfNS_9allocatorIS1_EEE8capacityB8ne180100Ev, symObjAddr: 0x6A50, symBinAddr: 0x1000095E8, symSize: 0x40 }
  - { offset: 0x334BD, size: 0x8, addend: 0x0, symName: __ZNSt3__16vectorIPfNS_9allocatorIS1_EEE22__base_destruct_at_endB8ne180100EPS1_, symObjAddr: 0x6A90, symBinAddr: 0x100009628, symSize: 0x8C }
  - { offset: 0x33501, size: 0x8, addend: 0x0, symName: __ZNSt3__116allocator_traitsINS_9allocatorIPfEEE7destroyB8ne180100IS2_vEEvRS3_PT_, symObjAddr: 0x6B1C, symBinAddr: 0x1000096B4, symSize: 0x2C }
  - { offset: 0x3353E, size: 0x8, addend: 0x0, symName: __ZNSt3__19allocatorIPfE7destroyB8ne180100EPS1_, symObjAddr: 0x6B5C, symBinAddr: 0x1000096F4, symSize: 0x14 }
  - { offset: 0x33572, size: 0x8, addend: 0x0, symName: __ZNSt3__19allocatorIPfE10deallocateB8ne180100EPS1_m, symObjAddr: 0x6B70, symBinAddr: 0x100009708, symSize: 0x40 }
  - { offset: 0x335B4, size: 0x8, addend: 0x0, symName: __ZNSt3__117__compressed_pairIPPfNS_9allocatorIS1_EEE6secondB8ne180100Ev, symObjAddr: 0x6BB0, symBinAddr: 0x100009748, symSize: 0x24 }
  - { offset: 0x335DA, size: 0x8, addend: 0x0, symName: __ZNSt3__122__compressed_pair_elemINS_9allocatorIPfEELi1ELb1EE5__getB8ne180100Ev, symObjAddr: 0x6BD4, symBinAddr: 0x10000976C, symSize: 0x14 }
  - { offset: 0x33600, size: 0x8, addend: 0x0, symName: __ZNKSt3__16vectorIPfNS_9allocatorIS1_EEE9__end_capB8ne180100Ev, symObjAddr: 0x6BE8, symBinAddr: 0x100009780, symSize: 0x28 }
  - { offset: 0x33626, size: 0x8, addend: 0x0, symName: __ZNKSt3__117__compressed_pairIPPfNS_9allocatorIS1_EEE5firstB8ne180100Ev, symObjAddr: 0x6C10, symBinAddr: 0x1000097A8, symSize: 0x24 }
  - { offset: 0x3364C, size: 0x8, addend: 0x0, symName: __ZNKSt3__122__compressed_pair_elemIPPfLi0ELb0EE5__getB8ne180100Ev, symObjAddr: 0x6C34, symBinAddr: 0x1000097CC, symSize: 0x14 }
  - { offset: 0x33672, size: 0x8, addend: 0x0, symName: __ZNSt3__123__libcpp_numeric_limitsIfLb1EE3maxB8ne180100Ev, symObjAddr: 0x6C48, symBinAddr: 0x1000097E0, symSize: 0xC }
  - { offset: 0x33686, size: 0x8, addend: 0x0, symName: __ZN6ripserI22sparse_distance_matrixED2Ev, symObjAddr: 0x6C54, symBinAddr: 0x1000097EC, symSize: 0x5C }
  - { offset: 0x336B3, size: 0x8, addend: 0x0, symName: __ZNSt3__16vectorI16diameter_entry_tNS_9allocatorIS1_EEED1B8ne180100Ev, symObjAddr: 0x6CB0, symBinAddr: 0x100009848, symSize: 0x2C }
  - { offset: 0x336DD, size: 0x8, addend: 0x0, symName: __ZN20binomial_coeff_tableD1Ev, symObjAddr: 0x6CDC, symBinAddr: 0x100009874, symSize: 0x2C }
  - { offset: 0x33709, size: 0x8, addend: 0x0, symName: __ZNSt3__16vectorI16diameter_entry_tNS_9allocatorIS1_EEED2B8ne180100Ev, symObjAddr: 0x6D08, symBinAddr: 0x1000098A0, symSize: 0x44 }
  - { offset: 0x33733, size: 0x8, addend: 0x0, symName: __ZNSt3__16vectorI16diameter_entry_tNS_9allocatorIS1_EEE16__destroy_vectorC1B8ne180100ERS4_, symObjAddr: 0x6D4C, symBinAddr: 0x1000098E4, symSize: 0x34 }
  - { offset: 0x3376C, size: 0x8, addend: 0x0, symName: __ZNSt3__16vectorI16diameter_entry_tNS_9allocatorIS1_EEE16__destroy_vectorclB8ne180100Ev, symObjAddr: 0x6D80, symBinAddr: 0x100009918, symSize: 0x90 }
  - { offset: 0x33792, size: 0x8, addend: 0x0, symName: __ZNSt3__16vectorI16diameter_entry_tNS_9allocatorIS1_EEE16__destroy_vectorC2B8ne180100ERS4_, symObjAddr: 0x6E10, symBinAddr: 0x1000099A8, symSize: 0x20 }
  - { offset: 0x337CB, size: 0x8, addend: 0x0, symName: __ZNSt3__16vectorI16diameter_entry_tNS_9allocatorIS1_EEE7__clearB8ne180100Ev, symObjAddr: 0x6E30, symBinAddr: 0x1000099C8, symSize: 0x28 }
  - { offset: 0x337F1, size: 0x8, addend: 0x0, symName: __ZNKSt3__16vectorI16diameter_entry_tNS_9allocatorIS1_EEE17__annotate_deleteB8ne180100Ev, symObjAddr: 0x6E58, symBinAddr: 0x1000099F0, symSize: 0x10 }
  - { offset: 0x33817, size: 0x8, addend: 0x0, symName: __ZNSt3__116allocator_traitsINS_9allocatorI16diameter_entry_tEEE10deallocateB8ne180100ERS3_PS2_m, symObjAddr: 0x6E68, symBinAddr: 0x100009A00, symSize: 0x34 }
  - { offset: 0x33859, size: 0x8, addend: 0x0, symName: __ZNSt3__16vectorI16diameter_entry_tNS_9allocatorIS1_EEE7__allocB8ne180100Ev, symObjAddr: 0x6E9C, symBinAddr: 0x100009A34, symSize: 0x28 }
  - { offset: 0x3387F, size: 0x8, addend: 0x0, symName: __ZNKSt3__16vectorI16diameter_entry_tNS_9allocatorIS1_EEE8capacityB8ne180100Ev, symObjAddr: 0x6EC4, symBinAddr: 0x100009A5C, symSize: 0x40 }
  - { offset: 0x338A5, size: 0x8, addend: 0x0, symName: __ZNSt3__16vectorI16diameter_entry_tNS_9allocatorIS1_EEE22__base_destruct_at_endB8ne180100EPS1_, symObjAddr: 0x6F04, symBinAddr: 0x100009A9C, symSize: 0x8C }
  - { offset: 0x338E9, size: 0x8, addend: 0x0, symName: __ZNSt3__116allocator_traitsINS_9allocatorI16diameter_entry_tEEE7destroyB8ne180100IS2_vEEvRS3_PT_, symObjAddr: 0x6F90, symBinAddr: 0x100009B28, symSize: 0x2C }
  - { offset: 0x33926, size: 0x8, addend: 0x0, symName: __ZNSt3__19allocatorI16diameter_entry_tE7destroyB8ne180100EPS1_, symObjAddr: 0x6FD0, symBinAddr: 0x100009B68, symSize: 0x14 }
  - { offset: 0x3395A, size: 0x8, addend: 0x0, symName: __ZNSt3__19allocatorI16diameter_entry_tE10deallocateB8ne180100EPS1_m, symObjAddr: 0x6FE4, symBinAddr: 0x100009B7C, symSize: 0x40 }
  - { offset: 0x3399C, size: 0x8, addend: 0x0, symName: __ZNSt3__117__compressed_pairIP16diameter_entry_tNS_9allocatorIS1_EEE6secondB8ne180100Ev, symObjAddr: 0x7024, symBinAddr: 0x100009BBC, symSize: 0x24 }
  - { offset: 0x339C2, size: 0x8, addend: 0x0, symName: __ZNSt3__122__compressed_pair_elemINS_9allocatorI16diameter_entry_tEELi1ELb1EE5__getB8ne180100Ev, symObjAddr: 0x7048, symBinAddr: 0x100009BE0, symSize: 0x14 }
  - { offset: 0x339E8, size: 0x8, addend: 0x0, symName: __ZNKSt3__16vectorI16diameter_entry_tNS_9allocatorIS1_EEE9__end_capB8ne180100Ev, symObjAddr: 0x705C, symBinAddr: 0x100009BF4, symSize: 0x28 }
  - { offset: 0x33A0E, size: 0x8, addend: 0x0, symName: __ZNKSt3__117__compressed_pairIP16diameter_entry_tNS_9allocatorIS1_EEE5firstB8ne180100Ev, symObjAddr: 0x7084, symBinAddr: 0x100009C1C, symSize: 0x24 }
  - { offset: 0x33A34, size: 0x8, addend: 0x0, symName: __ZNKSt3__122__compressed_pair_elemIP16diameter_entry_tLi0ELb0EE5__getB8ne180100Ev, symObjAddr: 0x70A8, symBinAddr: 0x100009C40, symSize: 0x14 }
  - { offset: 0x33A5A, size: 0x8, addend: 0x0, symName: __ZN20binomial_coeff_tableD2Ev, symObjAddr: 0x70BC, symBinAddr: 0x100009C54, symSize: 0x2C }
  - { offset: 0x33A86, size: 0x8, addend: 0x0, symName: __ZNSt3__16vectorINS0_IxNS_9allocatorIxEEEENS1_IS3_EEED1B8ne180100Ev, symObjAddr: 0x70E8, symBinAddr: 0x100009C80, symSize: 0x2C }
  - { offset: 0x33AB0, size: 0x8, addend: 0x0, symName: __ZNSt3__16vectorINS0_IxNS_9allocatorIxEEEENS1_IS3_EEED2B8ne180100Ev, symObjAddr: 0x7114, symBinAddr: 0x100009CAC, symSize: 0x44 }
  - { offset: 0x33ADA, size: 0x8, addend: 0x0, symName: __ZNSt3__16vectorINS0_IxNS_9allocatorIxEEEENS1_IS3_EEE16__destroy_vectorC1B8ne180100ERS5_, symObjAddr: 0x7158, symBinAddr: 0x100009CF0, symSize: 0x34 }
  - { offset: 0x33B13, size: 0x8, addend: 0x0, symName: __ZNSt3__16vectorINS0_IxNS_9allocatorIxEEEENS1_IS3_EEE16__destroy_vectorclB8ne180100Ev, symObjAddr: 0x718C, symBinAddr: 0x100009D24, symSize: 0x90 }
  - { offset: 0x33B39, size: 0x8, addend: 0x0, symName: __ZNSt3__16vectorINS0_IxNS_9allocatorIxEEEENS1_IS3_EEE16__destroy_vectorC2B8ne180100ERS5_, symObjAddr: 0x721C, symBinAddr: 0x100009DB4, symSize: 0x20 }
  - { offset: 0x33B72, size: 0x8, addend: 0x0, symName: __ZNSt3__16vectorINS0_IxNS_9allocatorIxEEEENS1_IS3_EEE7__clearB8ne180100Ev, symObjAddr: 0x723C, symBinAddr: 0x100009DD4, symSize: 0x28 }
  - { offset: 0x33B98, size: 0x8, addend: 0x0, symName: __ZNKSt3__16vectorINS0_IxNS_9allocatorIxEEEENS1_IS3_EEE17__annotate_deleteB8ne180100Ev, symObjAddr: 0x7264, symBinAddr: 0x100009DFC, symSize: 0x10 }
  - { offset: 0x33BBE, size: 0x8, addend: 0x0, symName: __ZNSt3__116allocator_traitsINS_9allocatorINS_6vectorIxNS1_IxEEEEEEE10deallocateB8ne180100ERS5_PS4_m, symObjAddr: 0x7274, symBinAddr: 0x100009E0C, symSize: 0x34 }
  - { offset: 0x33C00, size: 0x8, addend: 0x0, symName: __ZNSt3__16vectorINS0_IxNS_9allocatorIxEEEENS1_IS3_EEE7__allocB8ne180100Ev, symObjAddr: 0x72A8, symBinAddr: 0x100009E40, symSize: 0x28 }
  - { offset: 0x33C26, size: 0x8, addend: 0x0, symName: __ZNKSt3__16vectorINS0_IxNS_9allocatorIxEEEENS1_IS3_EEE8capacityB8ne180100Ev, symObjAddr: 0x72D0, symBinAddr: 0x100009E68, symSize: 0x40 }
  - { offset: 0x33C4C, size: 0x8, addend: 0x0, symName: __ZNSt3__16vectorINS0_IxNS_9allocatorIxEEEENS1_IS3_EEE22__base_destruct_at_endB8ne180100EPS3_, symObjAddr: 0x7310, symBinAddr: 0x100009EA8, symSize: 0x8C }
  - { offset: 0x33C90, size: 0x8, addend: 0x0, symName: __ZNSt3__116allocator_traitsINS_9allocatorINS_6vectorIxNS1_IxEEEEEEE7destroyB8ne180100IS4_vEEvRS5_PT_, symObjAddr: 0x739C, symBinAddr: 0x100009F34, symSize: 0x2C }
  - { offset: 0x33CCD, size: 0x8, addend: 0x0, symName: __ZNSt3__19allocatorINS_6vectorIxNS0_IxEEEEE7destroyB8ne180100EPS3_, symObjAddr: 0x73DC, symBinAddr: 0x100009F74, symSize: 0x28 }
  - { offset: 0x33D01, size: 0x8, addend: 0x0, symName: __ZNSt3__19allocatorINS_6vectorIxNS0_IxEEEEE10deallocateB8ne180100EPS3_m, symObjAddr: 0x7404, symBinAddr: 0x100009F9C, symSize: 0x44 }
  - { offset: 0x33D43, size: 0x8, addend: 0x0, symName: __ZNSt3__117__compressed_pairIPNS_6vectorIxNS_9allocatorIxEEEENS2_IS4_EEE6secondB8ne180100Ev, symObjAddr: 0x7448, symBinAddr: 0x100009FE0, symSize: 0x24 }
  - { offset: 0x33D69, size: 0x8, addend: 0x0, symName: __ZNSt3__122__compressed_pair_elemINS_9allocatorINS_6vectorIxNS1_IxEEEEEELi1ELb1EE5__getB8ne180100Ev, symObjAddr: 0x746C, symBinAddr: 0x10000A004, symSize: 0x14 }
  - { offset: 0x33D8F, size: 0x8, addend: 0x0, symName: __ZNKSt3__16vectorINS0_IxNS_9allocatorIxEEEENS1_IS3_EEE9__end_capB8ne180100Ev, symObjAddr: 0x7480, symBinAddr: 0x10000A018, symSize: 0x28 }
  - { offset: 0x33DB5, size: 0x8, addend: 0x0, symName: __ZNKSt3__117__compressed_pairIPNS_6vectorIxNS_9allocatorIxEEEENS2_IS4_EEE5firstB8ne180100Ev, symObjAddr: 0x74A8, symBinAddr: 0x10000A040, symSize: 0x24 }
  - { offset: 0x33DDB, size: 0x8, addend: 0x0, symName: __ZNKSt3__122__compressed_pair_elemIPNS_6vectorIxNS_9allocatorIxEEEELi0ELb0EE5__getB8ne180100Ev, symObjAddr: 0x74CC, symBinAddr: 0x10000A064, symSize: 0x14 }
  - { offset: 0x33E01, size: 0x8, addend: 0x0, symName: __ZN22sparse_distance_matrixD2Ev, symObjAddr: 0x74E0, symBinAddr: 0x10000A078, symSize: 0x2C }
  - { offset: 0x33E2E, size: 0x8, addend: 0x0, symName: __ZNSt3__123__libcpp_numeric_limitsIfLb1EE8infinityB8ne180100Ev, symObjAddr: 0x750C, symBinAddr: 0x10000A0A4, symSize: 0xC }
  - { offset: 0x33E42, size: 0x8, addend: 0x0, symName: __ZNKSt3__111__wrap_iterIPfE4baseB8ne180100Ev, symObjAddr: 0x7560, symBinAddr: 0x10000A0F8, symSize: 0x18 }
  - { offset: 0x33E68, size: 0x8, addend: 0x0, symName: __ZN6ripserI26compressed_distance_matrixIL24compressed_matrix_layout0EEED2Ev, symObjAddr: 0x7578, symBinAddr: 0x10000A110, symSize: 0x5C }
  - { offset: 0x33E95, size: 0x8, addend: 0x0, symName: __ZN26compressed_distance_matrixIL24compressed_matrix_layout0EED2Ev, symObjAddr: 0x75D4, symBinAddr: 0x10000A16C, symSize: 0x38 }
  - { offset: 0x33EC1, size: 0x8, addend: 0x0, symName: __ZNSt3__114basic_ifstreamIcNS_11char_traitsIcEEED2Ev, symObjAddr: 0x760C, symBinAddr: 0x10000A1A4, symSize: 0x64 }
  - { offset: 0x33EFB, size: 0x8, addend: 0x0, symName: __ZTv0_n24_NSt3__114basic_ifstreamIcNS_11char_traitsIcEEED1Ev, symObjAddr: 0x7670, symBinAddr: 0x10000A208, symSize: 0x28 }
  - { offset: 0x33F12, size: 0x8, addend: 0x0, symName: __ZNSt3__112basic_stringIcNS_11char_traitsIcEENS_9allocatorIcEEEC2B8ne180100ILi0EEEPKc, symObjAddr: 0x7698, symBinAddr: 0x10000A230, symSize: 0x58 }
  - { offset: 0x33F57, size: 0x8, addend: 0x0, symName: __ZNSt3__117__compressed_pairINS_12basic_stringIcNS_11char_traitsIcEENS_9allocatorIcEEE5__repES5_EC1B8ne180100INS_18__default_init_tagESA_EEOT_OT0_, symObjAddr: 0x76F0, symBinAddr: 0x10000A288, symSize: 0x3C }
  - { offset: 0x33FAF, size: 0x8, addend: 0x0, symName: __ZNSt3__111char_traitsIcE6lengthB8ne180100EPKc, symObjAddr: 0x772C, symBinAddr: 0x10000A2C4, symSize: 0x34 }
  - { offset: 0x33FD2, size: 0x8, addend: 0x0, symName: __ZNSt3__117__compressed_pairINS_12basic_stringIcNS_11char_traitsIcEENS_9allocatorIcEEE5__repES5_EC2B8ne180100INS_18__default_init_tagESA_EEOT_OT0_, symObjAddr: 0x7760, symBinAddr: 0x10000A2F8, symSize: 0x3C }
  - { offset: 0x3402A, size: 0x8, addend: 0x0, symName: __ZNSt3__122__compressed_pair_elemINS_12basic_stringIcNS_11char_traitsIcEENS_9allocatorIcEEE5__repELi0ELb0EEC2B8ne180100ENS_18__default_init_tagE, symObjAddr: 0x779C, symBinAddr: 0x10000A334, symSize: 0x14 }
  - { offset: 0x3405E, size: 0x8, addend: 0x0, symName: __ZNSt3__122__compressed_pair_elemINS_9allocatorIcEELi1ELb1EEC2B8ne180100ENS_18__default_init_tagE, symObjAddr: 0x77B0, symBinAddr: 0x10000A348, symSize: 0x2C }
  - { offset: 0x34092, size: 0x8, addend: 0x0, symName: __ZNSt3__19allocatorIcEC2B8ne180100Ev, symObjAddr: 0x77DC, symBinAddr: 0x10000A374, symSize: 0x2C }
  - { offset: 0x340BC, size: 0x8, addend: 0x0, symName: __ZNSt3__116__non_trivial_ifILb1ENS_9allocatorIcEEEC2B8ne180100Ev, symObjAddr: 0x7808, symBinAddr: 0x10000A3A0, symSize: 0x14 }
  - { offset: 0x340E6, size: 0x8, addend: 0x0, symName: __ZNSt3__112basic_stringIcNS_11char_traitsIcEENS_9allocatorIcEEEC1B8ne180100EOS5_, symObjAddr: 0x7840, symBinAddr: 0x10000A3D8, symSize: 0x34 }
  - { offset: 0x3411F, size: 0x8, addend: 0x0, symName: __ZNSt3__112basic_stringIcNS_11char_traitsIcEENS_9allocatorIcEEEC2B8ne180100EOS5_, symObjAddr: 0x7874, symBinAddr: 0x10000A40C, symSize: 0xB8 }
  - { offset: 0x34189, size: 0x8, addend: 0x0, symName: __ZZNSt3__112basic_stringIcNS_11char_traitsIcEENS_9allocatorIcEEEC1B8ne180100EOS5_ENKUlRS5_E_clES7_, symObjAddr: 0x792C, symBinAddr: 0x10000A4C4, symSize: 0x40 }
  - { offset: 0x341C2, size: 0x8, addend: 0x0, symName: __ZNSt3__117__compressed_pairINS_12basic_stringIcNS_11char_traitsIcEENS_9allocatorIcEEE5__repES5_E5firstB8ne180100Ev, symObjAddr: 0x796C, symBinAddr: 0x10000A504, symSize: 0x24 }
  - { offset: 0x341E8, size: 0x8, addend: 0x0, symName: __ZNKSt3__112basic_stringIcNS_11char_traitsIcEENS_9allocatorIcEEE14__annotate_newB8ne180100Em, symObjAddr: 0x7990, symBinAddr: 0x10000A528, symSize: 0x14 }
  - { offset: 0x3421D, size: 0x8, addend: 0x0, symName: __ZNKSt3__112basic_stringIcNS_11char_traitsIcEENS_9allocatorIcEEE9__is_longB8ne180100Ev, symObjAddr: 0x79A4, symBinAddr: 0x10000A53C, symSize: 0x38 }
  - { offset: 0x34243, size: 0x8, addend: 0x0, symName: __ZNKSt3__112basic_stringIcNS_11char_traitsIcEENS_9allocatorIcEEE17__annotate_deleteB8ne180100Ev, symObjAddr: 0x79DC, symBinAddr: 0x10000A574, symSize: 0x10 }
  - { offset: 0x34269, size: 0x8, addend: 0x0, symName: __ZNSt3__122__compressed_pair_elemINS_12basic_stringIcNS_11char_traitsIcEENS_9allocatorIcEEE5__repELi0ELb0EE5__getB8ne180100Ev, symObjAddr: 0x79EC, symBinAddr: 0x10000A584, symSize: 0x14 }
  - { offset: 0x3428F, size: 0x8, addend: 0x0, symName: __ZNKSt3__117__compressed_pairINS_12basic_stringIcNS_11char_traitsIcEENS_9allocatorIcEEE5__repES5_E5firstB8ne180100Ev, symObjAddr: 0x7A00, symBinAddr: 0x10000A598, symSize: 0x24 }
  - { offset: 0x342B5, size: 0x8, addend: 0x0, symName: __ZNKSt3__122__compressed_pair_elemINS_12basic_stringIcNS_11char_traitsIcEENS_9allocatorIcEEE5__repELi0ELb0EE5__getB8ne180100Ev, symObjAddr: 0x7A24, symBinAddr: 0x10000A5BC, symSize: 0x14 }
  - { offset: 0x342DB, size: 0x8, addend: 0x0, symName: __ZNSt3__112basic_stringIcNS_11char_traitsIcEENS_9allocatorIcEEE6appendB8ne180100ERKS5_, symObjAddr: 0x7A38, symBinAddr: 0x10000A5D0, symSize: 0x4C }
  - { offset: 0x34310, size: 0x8, addend: 0x0, symName: __ZNKSt3__112basic_stringIcNS_11char_traitsIcEENS_9allocatorIcEEE4dataB8ne180100Ev, symObjAddr: 0x7A84, symBinAddr: 0x10000A61C, symSize: 0x28 }
  - { offset: 0x34336, size: 0x8, addend: 0x0, symName: __ZNKSt3__112basic_stringIcNS_11char_traitsIcEENS_9allocatorIcEEE13__get_pointerB8ne180100Ev, symObjAddr: 0x7AC0, symBinAddr: 0x10000A658, symSize: 0x54 }
  - { offset: 0x3435C, size: 0x8, addend: 0x0, symName: __ZNKSt3__112basic_stringIcNS_11char_traitsIcEENS_9allocatorIcEEE18__get_long_pointerB8ne180100Ev, symObjAddr: 0x7B14, symBinAddr: 0x10000A6AC, symSize: 0x28 }
  - { offset: 0x34382, size: 0x8, addend: 0x0, symName: __ZNKSt3__112basic_stringIcNS_11char_traitsIcEENS_9allocatorIcEEE19__get_short_pointerB8ne180100Ev, symObjAddr: 0x7B3C, symBinAddr: 0x10000A6D4, symSize: 0x28 }
  - { offset: 0x343A8, size: 0x8, addend: 0x0, symName: __ZNSt3__114pointer_traitsIPKcE10pointer_toB8ne180100ERS1_, symObjAddr: 0x7B64, symBinAddr: 0x10000A6FC, symSize: 0x14 }
  - { offset: 0x343CB, size: 0x8, addend: 0x0, symName: __ZNSt3__16vectorIxNS_9allocatorIxEEED2B8ne180100Ev, symObjAddr: 0x7B78, symBinAddr: 0x10000A710, symSize: 0x44 }
  - { offset: 0x343F5, size: 0x8, addend: 0x0, symName: __ZNSt3__16vectorIxNS_9allocatorIxEEE16__destroy_vectorC1B8ne180100ERS3_, symObjAddr: 0x7BBC, symBinAddr: 0x10000A754, symSize: 0x34 }
  - { offset: 0x3442E, size: 0x8, addend: 0x0, symName: __ZNSt3__16vectorIxNS_9allocatorIxEEE16__destroy_vectorclB8ne180100Ev, symObjAddr: 0x7BF0, symBinAddr: 0x10000A788, symSize: 0x90 }
  - { offset: 0x34454, size: 0x8, addend: 0x0, symName: __ZNSt3__16vectorIxNS_9allocatorIxEEE16__destroy_vectorC2B8ne180100ERS3_, symObjAddr: 0x7C80, symBinAddr: 0x10000A818, symSize: 0x20 }
  - { offset: 0x3448D, size: 0x8, addend: 0x0, symName: __ZNSt3__16vectorIxNS_9allocatorIxEEE7__clearB8ne180100Ev, symObjAddr: 0x7CA0, symBinAddr: 0x10000A838, symSize: 0x28 }
  - { offset: 0x344B3, size: 0x8, addend: 0x0, symName: __ZNKSt3__16vectorIxNS_9allocatorIxEEE17__annotate_deleteB8ne180100Ev, symObjAddr: 0x7CC8, symBinAddr: 0x10000A860, symSize: 0x10 }
  - { offset: 0x344D9, size: 0x8, addend: 0x0, symName: __ZNSt3__116allocator_traitsINS_9allocatorIxEEE10deallocateB8ne180100ERS2_Pxm, symObjAddr: 0x7CD8, symBinAddr: 0x10000A870, symSize: 0x34 }
  - { offset: 0x3451B, size: 0x8, addend: 0x0, symName: __ZNSt3__16vectorIxNS_9allocatorIxEEE7__allocB8ne180100Ev, symObjAddr: 0x7D0C, symBinAddr: 0x10000A8A4, symSize: 0x28 }
  - { offset: 0x34541, size: 0x8, addend: 0x0, symName: __ZNKSt3__16vectorIxNS_9allocatorIxEEE8capacityB8ne180100Ev, symObjAddr: 0x7D34, symBinAddr: 0x10000A8CC, symSize: 0x40 }
  - { offset: 0x34567, size: 0x8, addend: 0x0, symName: __ZNSt3__16vectorIxNS_9allocatorIxEEE22__base_destruct_at_endB8ne180100EPx, symObjAddr: 0x7D74, symBinAddr: 0x10000A90C, symSize: 0x8C }
  - { offset: 0x345AB, size: 0x8, addend: 0x0, symName: __ZNSt3__116allocator_traitsINS_9allocatorIxEEE7destroyB8ne180100IxvEEvRS2_PT_, symObjAddr: 0x7E00, symBinAddr: 0x10000A998, symSize: 0x2C }
  - { offset: 0x345E8, size: 0x8, addend: 0x0, symName: __ZNSt3__19allocatorIxE7destroyB8ne180100EPx, symObjAddr: 0x7E40, symBinAddr: 0x10000A9D8, symSize: 0x14 }
  - { offset: 0x3461C, size: 0x8, addend: 0x0, symName: __ZNSt3__19allocatorIxE10deallocateB8ne180100EPxm, symObjAddr: 0x7E54, symBinAddr: 0x10000A9EC, symSize: 0x40 }
  - { offset: 0x3465E, size: 0x8, addend: 0x0, symName: __ZNSt3__117__compressed_pairIPxNS_9allocatorIxEEE6secondB8ne180100Ev, symObjAddr: 0x7E94, symBinAddr: 0x10000AA2C, symSize: 0x24 }
  - { offset: 0x34684, size: 0x8, addend: 0x0, symName: __ZNSt3__122__compressed_pair_elemINS_9allocatorIxEELi1ELb1EE5__getB8ne180100Ev, symObjAddr: 0x7EB8, symBinAddr: 0x10000AA50, symSize: 0x14 }
  - { offset: 0x346AA, size: 0x8, addend: 0x0, symName: __ZNKSt3__16vectorIxNS_9allocatorIxEEE9__end_capB8ne180100Ev, symObjAddr: 0x7ECC, symBinAddr: 0x10000AA64, symSize: 0x28 }
  - { offset: 0x346D0, size: 0x8, addend: 0x0, symName: __ZNKSt3__117__compressed_pairIPxNS_9allocatorIxEEE5firstB8ne180100Ev, symObjAddr: 0x7EF4, symBinAddr: 0x10000AA8C, symSize: 0x24 }
  - { offset: 0x346F6, size: 0x8, addend: 0x0, symName: __ZNKSt3__122__compressed_pair_elemIPxLi0ELb0EE5__getB8ne180100Ev, symObjAddr: 0x7F18, symBinAddr: 0x10000AAB0, symSize: 0x14 }
  - { offset: 0x3471C, size: 0x8, addend: 0x0, symName: __ZNSt3__16vectorItNS_9allocatorItEEEC2Em, symObjAddr: 0x7F2C, symBinAddr: 0x10000AAC4, symSize: 0xD4 }
  - { offset: 0x3476C, size: 0x8, addend: 0x0, symName: __ZNSt3__117__compressed_pairIPtNS_9allocatorItEEEC1B8ne180100IDnNS_18__default_init_tagEEEOT_OT0_, symObjAddr: 0x8000, symBinAddr: 0x10000AB98, symSize: 0x3C }
  - { offset: 0x347C4, size: 0x8, addend: 0x0, symName: __ZNSt3__16vectorItNS_9allocatorItEEE16__destroy_vectorC1B8ne180100ERS3_, symObjAddr: 0x807C, symBinAddr: 0x10000AC14, symSize: 0x34 }
  - { offset: 0x347FD, size: 0x8, addend: 0x0, symName: __ZNSt3__16vectorItNS_9allocatorItEEE11__vallocateB8ne180100Em, symObjAddr: 0x80B0, symBinAddr: 0x10000AC48, symSize: 0xAC }
  - { offset: 0x34841, size: 0x8, addend: 0x0, symName: __ZNSt3__16vectorItNS_9allocatorItEEE18__construct_at_endEm, symObjAddr: 0x815C, symBinAddr: 0x10000ACF4, symSize: 0xC8 }
  - { offset: 0x348B3, size: 0x8, addend: 0x0, symName: __ZNSt3__128__exception_guard_exceptionsINS_6vectorItNS_9allocatorItEEE16__destroy_vectorEE10__completeB8ne180100Ev, symObjAddr: 0x8224, symBinAddr: 0x10000ADBC, symSize: 0x1C }
  - { offset: 0x348D9, size: 0x8, addend: 0x0, symName: __ZNSt3__128__exception_guard_exceptionsINS_6vectorItNS_9allocatorItEEE16__destroy_vectorEED1B8ne180100Ev, symObjAddr: 0x8240, symBinAddr: 0x10000ADD8, symSize: 0x2C }
  - { offset: 0x34903, size: 0x8, addend: 0x0, symName: __ZNSt3__117__compressed_pairIPtNS_9allocatorItEEEC2B8ne180100IDnNS_18__default_init_tagEEEOT_OT0_, symObjAddr: 0x826C, symBinAddr: 0x10000AE04, symSize: 0x40 }
  - { offset: 0x3495B, size: 0x8, addend: 0x0, symName: __ZNSt3__122__compressed_pair_elemIPtLi0ELb0EEC2B8ne180100IDnvEEOT_, symObjAddr: 0x82AC, symBinAddr: 0x10000AE44, symSize: 0x1C }
  - { offset: 0x3499D, size: 0x8, addend: 0x0, symName: __ZNSt3__122__compressed_pair_elemINS_9allocatorItEELi1ELb1EEC2B8ne180100ENS_18__default_init_tagE, symObjAddr: 0x82C8, symBinAddr: 0x10000AE60, symSize: 0x2C }
  - { offset: 0x349D1, size: 0x8, addend: 0x0, symName: __ZNSt3__19allocatorItEC2B8ne180100Ev, symObjAddr: 0x82F4, symBinAddr: 0x10000AE8C, symSize: 0x2C }
  - { offset: 0x349FB, size: 0x8, addend: 0x0, symName: __ZNSt3__116__non_trivial_ifILb1ENS_9allocatorItEEEC2B8ne180100Ev, symObjAddr: 0x8320, symBinAddr: 0x10000AEB8, symSize: 0x14 }
  - { offset: 0x34A25, size: 0x8, addend: 0x0, symName: __ZNSt3__128__exception_guard_exceptionsINS_6vectorItNS_9allocatorItEEE16__destroy_vectorEEC1B8ne180100ES5_, symObjAddr: 0x8334, symBinAddr: 0x10000AECC, symSize: 0x34 }
  - { offset: 0x34A5D, size: 0x8, addend: 0x0, symName: __ZNSt3__128__exception_guard_exceptionsINS_6vectorItNS_9allocatorItEEE16__destroy_vectorEEC2B8ne180100ES5_, symObjAddr: 0x8368, symBinAddr: 0x10000AF00, symSize: 0x24 }
  - { offset: 0x34A95, size: 0x8, addend: 0x0, symName: __ZNSt3__16vectorItNS_9allocatorItEEE16__destroy_vectorC2B8ne180100ERS3_, symObjAddr: 0x838C, symBinAddr: 0x10000AF24, symSize: 0x20 }
  - { offset: 0x34ACE, size: 0x8, addend: 0x0, symName: __ZNKSt3__16vectorItNS_9allocatorItEEE8max_sizeEv, symObjAddr: 0x83AC, symBinAddr: 0x10000AF44, symSize: 0x60 }
  - { offset: 0x34AF6, size: 0x8, addend: 0x0, symName: __ZNKSt3__16vectorItNS_9allocatorItEEE20__throw_length_errorB8ne180100Ev, symObjAddr: 0x840C, symBinAddr: 0x10000AFA4, symSize: 0x1C }
  - { offset: 0x34B1C, size: 0x8, addend: 0x0, symName: __ZNSt3__16vectorItNS_9allocatorItEEE7__allocB8ne180100Ev, symObjAddr: 0x8468, symBinAddr: 0x10000B000, symSize: 0x28 }
  - { offset: 0x34B42, size: 0x8, addend: 0x0, symName: __ZNSt3__16vectorItNS_9allocatorItEEE9__end_capB8ne180100Ev, symObjAddr: 0x8490, symBinAddr: 0x10000B028, symSize: 0x28 }
  - { offset: 0x34B68, size: 0x8, addend: 0x0, symName: __ZNKSt3__16vectorItNS_9allocatorItEEE14__annotate_newB8ne180100Em, symObjAddr: 0x84B8, symBinAddr: 0x10000B050, symSize: 0x14 }
  - { offset: 0x34BA7, size: 0x8, addend: 0x0, symName: __ZNSt3__116allocator_traitsINS_9allocatorItEEE8max_sizeB8ne180100IS2_vEEmRKS2_, symObjAddr: 0x84CC, symBinAddr: 0x10000B064, symSize: 0x24 }
  - { offset: 0x34BD5, size: 0x8, addend: 0x0, symName: __ZNKSt3__16vectorItNS_9allocatorItEEE7__allocB8ne180100Ev, symObjAddr: 0x84F0, symBinAddr: 0x10000B088, symSize: 0x28 }
  - { offset: 0x34BFB, size: 0x8, addend: 0x0, symName: __ZNKSt3__19allocatorItE8max_sizeB8ne180100Ev, symObjAddr: 0x8518, symBinAddr: 0x10000B0B0, symSize: 0x14 }
  - { offset: 0x34C21, size: 0x8, addend: 0x0, symName: __ZNKSt3__117__compressed_pairIPtNS_9allocatorItEEE6secondB8ne180100Ev, symObjAddr: 0x852C, symBinAddr: 0x10000B0C4, symSize: 0x24 }
  - { offset: 0x34C47, size: 0x8, addend: 0x0, symName: __ZNKSt3__122__compressed_pair_elemINS_9allocatorItEELi1ELb1EE5__getB8ne180100Ev, symObjAddr: 0x8550, symBinAddr: 0x10000B0E8, symSize: 0x14 }
  - { offset: 0x34C6D, size: 0x8, addend: 0x0, symName: __ZNSt3__19allocatorItE8allocateB8ne180100Em, symObjAddr: 0x8564, symBinAddr: 0x10000B0FC, symSize: 0x58 }
  - { offset: 0x34CA1, size: 0x8, addend: 0x0, symName: __ZNSt3__117__compressed_pairIPtNS_9allocatorItEEE6secondB8ne180100Ev, symObjAddr: 0x85BC, symBinAddr: 0x10000B154, symSize: 0x24 }
  - { offset: 0x34CC7, size: 0x8, addend: 0x0, symName: __ZNSt3__122__compressed_pair_elemINS_9allocatorItEELi1ELb1EE5__getB8ne180100Ev, symObjAddr: 0x85E0, symBinAddr: 0x10000B178, symSize: 0x14 }
  - { offset: 0x34CED, size: 0x8, addend: 0x0, symName: __ZNSt3__117__compressed_pairIPtNS_9allocatorItEEE5firstB8ne180100Ev, symObjAddr: 0x85F4, symBinAddr: 0x10000B18C, symSize: 0x24 }
  - { offset: 0x34D13, size: 0x8, addend: 0x0, symName: __ZNSt3__122__compressed_pair_elemIPtLi0ELb0EE5__getB8ne180100Ev, symObjAddr: 0x8618, symBinAddr: 0x10000B1B0, symSize: 0x14 }
  - { offset: 0x34D52, size: 0x8, addend: 0x0, symName: __ZNSt3__16vectorItNS_9allocatorItEEE21_ConstructTransactionC1B8ne180100ERS3_m, symObjAddr: 0x862C, symBinAddr: 0x10000B1C4, symSize: 0x3C }
  - { offset: 0x34D9A, size: 0x8, addend: 0x0, symName: __ZNSt3__116allocator_traitsINS_9allocatorItEEE9constructB8ne180100ItJEvEEvRS2_PT_DpOT0_, symObjAddr: 0x8668, symBinAddr: 0x10000B200, symSize: 0x2C }
  - { offset: 0x34DDC, size: 0x8, addend: 0x0, symName: __ZNSt3__16vectorItNS_9allocatorItEEE21_ConstructTransactionD1B8ne180100Ev, symObjAddr: 0x86A8, symBinAddr: 0x10000B240, symSize: 0x2C }
  - { offset: 0x34E06, size: 0x8, addend: 0x0, symName: __ZNSt3__16vectorItNS_9allocatorItEEE21_ConstructTransactionC2B8ne180100ERS3_m, symObjAddr: 0x86D4, symBinAddr: 0x10000B26C, symSize: 0x44 }
  - { offset: 0x34E4E, size: 0x8, addend: 0x0, symName: __ZNSt3__19allocatorItE9constructB8ne180100ItJEEEvPT_DpOT0_, symObjAddr: 0x8718, symBinAddr: 0x10000B2B0, symSize: 0x1C }
  - { offset: 0x34E90, size: 0x8, addend: 0x0, symName: __ZNSt3__16vectorItNS_9allocatorItEEE21_ConstructTransactionD2B8ne180100Ev, symObjAddr: 0x8734, symBinAddr: 0x10000B2CC, symSize: 0x20 }
  - { offset: 0x34EBA, size: 0x8, addend: 0x0, symName: __ZNSt3__128__exception_guard_exceptionsINS_6vectorItNS_9allocatorItEEE16__destroy_vectorEED2B8ne180100Ev, symObjAddr: 0x8754, symBinAddr: 0x10000B2EC, symSize: 0x50 }
  - { offset: 0x34EE4, size: 0x8, addend: 0x0, symName: __ZNSt3__16vectorItNS_9allocatorItEEE16__destroy_vectorclB8ne180100Ev, symObjAddr: 0x87A4, symBinAddr: 0x10000B33C, symSize: 0x90 }
  - { offset: 0x34F0A, size: 0x8, addend: 0x0, symName: __ZNSt3__16vectorItNS_9allocatorItEEE7__clearB8ne180100Ev, symObjAddr: 0x8834, symBinAddr: 0x10000B3CC, symSize: 0x28 }
  - { offset: 0x34F30, size: 0x8, addend: 0x0, symName: __ZNKSt3__16vectorItNS_9allocatorItEEE17__annotate_deleteB8ne180100Ev, symObjAddr: 0x885C, symBinAddr: 0x10000B3F4, symSize: 0x10 }
  - { offset: 0x34F56, size: 0x8, addend: 0x0, symName: __ZNSt3__116allocator_traitsINS_9allocatorItEEE10deallocateB8ne180100ERS2_Ptm, symObjAddr: 0x886C, symBinAddr: 0x10000B404, symSize: 0x34 }
  - { offset: 0x34F98, size: 0x8, addend: 0x0, symName: __ZNKSt3__16vectorItNS_9allocatorItEEE8capacityB8ne180100Ev, symObjAddr: 0x88A0, symBinAddr: 0x10000B438, symSize: 0x40 }
  - { offset: 0x34FBE, size: 0x8, addend: 0x0, symName: __ZNSt3__16vectorItNS_9allocatorItEEE22__base_destruct_at_endB8ne180100EPt, symObjAddr: 0x88E0, symBinAddr: 0x10000B478, symSize: 0x8C }
  - { offset: 0x35002, size: 0x8, addend: 0x0, symName: __ZNSt3__116allocator_traitsINS_9allocatorItEEE7destroyB8ne180100ItvEEvRS2_PT_, symObjAddr: 0x896C, symBinAddr: 0x10000B504, symSize: 0x2C }
  - { offset: 0x3503F, size: 0x8, addend: 0x0, symName: __ZNSt3__19allocatorItE7destroyB8ne180100EPt, symObjAddr: 0x8998, symBinAddr: 0x10000B530, symSize: 0x14 }
  - { offset: 0x35073, size: 0x8, addend: 0x0, symName: __ZNSt3__19allocatorItE10deallocateB8ne180100EPtm, symObjAddr: 0x89AC, symBinAddr: 0x10000B544, symSize: 0x40 }
  - { offset: 0x350B5, size: 0x8, addend: 0x0, symName: __ZNKSt3__16vectorItNS_9allocatorItEEE9__end_capB8ne180100Ev, symObjAddr: 0x89EC, symBinAddr: 0x10000B584, symSize: 0x28 }
  - { offset: 0x350DB, size: 0x8, addend: 0x0, symName: __ZNKSt3__117__compressed_pairIPtNS_9allocatorItEEE5firstB8ne180100Ev, symObjAddr: 0x8A14, symBinAddr: 0x10000B5AC, symSize: 0x24 }
  - { offset: 0x35101, size: 0x8, addend: 0x0, symName: __ZNKSt3__122__compressed_pair_elemIPtLi0ELb0EE5__getB8ne180100Ev, symObjAddr: 0x8A38, symBinAddr: 0x10000B5D0, symSize: 0x14 }
  - { offset: 0x35127, size: 0x8, addend: 0x0, symName: __ZNSt3__16vectorItNS_9allocatorItEEED2B8ne180100Ev, symObjAddr: 0x8A4C, symBinAddr: 0x10000B5E4, symSize: 0x40 }
  - { offset: 0x35151, size: 0x8, addend: 0x0, symName: __ZNSt3__14pairIfxEC2B8ne180100IfxLi0EEEOT_OT0_, symObjAddr: 0x8A8C, symBinAddr: 0x10000B624, symSize: 0x34 }
  - { offset: 0x351AF, size: 0x8, addend: 0x0, symName: __ZNKSt3__16vectorIPfNS_9allocatorIS1_EEE4sizeB8ne180100Ev, symObjAddr: 0x8AC0, symBinAddr: 0x10000B658, symSize: 0x28 }
  - { offset: 0x351D5, size: 0x8, addend: 0x0, symName: __ZNSt3__16vectorINS0_INS_4pairIxfEENS_9allocatorIS2_EEEENS3_IS5_EEED2B8ne180100Ev, symObjAddr: 0x8AE8, symBinAddr: 0x10000B680, symSize: 0x44 }
  - { offset: 0x351FF, size: 0x8, addend: 0x0, symName: __ZNSt3__16vectorINS0_INS_4pairIxfEENS_9allocatorIS2_EEEENS3_IS5_EEE16__destroy_vectorC1B8ne180100ERS7_, symObjAddr: 0x8B2C, symBinAddr: 0x10000B6C4, symSize: 0x34 }
  - { offset: 0x35238, size: 0x8, addend: 0x0, symName: __ZNSt3__16vectorINS0_INS_4pairIxfEENS_9allocatorIS2_EEEENS3_IS5_EEE16__destroy_vectorclB8ne180100Ev, symObjAddr: 0x8B60, symBinAddr: 0x10000B6F8, symSize: 0x90 }
  - { offset: 0x3525E, size: 0x8, addend: 0x0, symName: __ZNSt3__16vectorINS0_INS_4pairIxfEENS_9allocatorIS2_EEEENS3_IS5_EEE16__destroy_vectorC2B8ne180100ERS7_, symObjAddr: 0x8BF0, symBinAddr: 0x10000B788, symSize: 0x20 }
  - { offset: 0x35297, size: 0x8, addend: 0x0, symName: __ZNSt3__16vectorINS0_INS_4pairIxfEENS_9allocatorIS2_EEEENS3_IS5_EEE7__clearB8ne180100Ev, symObjAddr: 0x8C10, symBinAddr: 0x10000B7A8, symSize: 0x28 }
  - { offset: 0x352BD, size: 0x8, addend: 0x0, symName: __ZNKSt3__16vectorINS0_INS_4pairIxfEENS_9allocatorIS2_EEEENS3_IS5_EEE17__annotate_deleteB8ne180100Ev, symObjAddr: 0x8C38, symBinAddr: 0x10000B7D0, symSize: 0x10 }
  - { offset: 0x352E3, size: 0x8, addend: 0x0, symName: __ZNSt3__116allocator_traitsINS_9allocatorINS_6vectorINS_4pairIxfEENS1_IS4_EEEEEEE10deallocateB8ne180100ERS7_PS6_m, symObjAddr: 0x8C48, symBinAddr: 0x10000B7E0, symSize: 0x34 }
  - { offset: 0x35325, size: 0x8, addend: 0x0, symName: __ZNKSt3__16vectorINS0_INS_4pairIxfEENS_9allocatorIS2_EEEENS3_IS5_EEE8capacityB8ne180100Ev, symObjAddr: 0x8C7C, symBinAddr: 0x10000B814, symSize: 0x40 }
  - { offset: 0x3534B, size: 0x8, addend: 0x0, symName: __ZNSt3__16vectorINS0_INS_4pairIxfEENS_9allocatorIS2_EEEENS3_IS5_EEE22__base_destruct_at_endB8ne180100EPS5_, symObjAddr: 0x8CBC, symBinAddr: 0x10000B854, symSize: 0x8C }
  - { offset: 0x3538F, size: 0x8, addend: 0x0, symName: __ZNSt3__116allocator_traitsINS_9allocatorINS_6vectorINS_4pairIxfEENS1_IS4_EEEEEEE7destroyB8ne180100IS6_vEEvRS7_PT_, symObjAddr: 0x8D48, symBinAddr: 0x10000B8E0, symSize: 0x2C }
  - { offset: 0x353CC, size: 0x8, addend: 0x0, symName: __ZNSt3__19allocatorINS_6vectorINS_4pairIxfEENS0_IS3_EEEEE7destroyB8ne180100EPS5_, symObjAddr: 0x8D88, symBinAddr: 0x10000B920, symSize: 0x28 }
  - { offset: 0x35400, size: 0x8, addend: 0x0, symName: __ZNSt3__16vectorINS_4pairIxfEENS_9allocatorIS2_EEED1B8ne180100Ev, symObjAddr: 0x8DB0, symBinAddr: 0x10000B948, symSize: 0x2C }
  - { offset: 0x3542A, size: 0x8, addend: 0x0, symName: __ZNSt3__16vectorINS_4pairIxfEENS_9allocatorIS2_EEED2B8ne180100Ev, symObjAddr: 0x8DDC, symBinAddr: 0x10000B974, symSize: 0x44 }
  - { offset: 0x35454, size: 0x8, addend: 0x0, symName: __ZNSt3__16vectorINS_4pairIxfEENS_9allocatorIS2_EEE16__destroy_vectorC1B8ne180100ERS5_, symObjAddr: 0x8E20, symBinAddr: 0x10000B9B8, symSize: 0x34 }
  - { offset: 0x3548D, size: 0x8, addend: 0x0, symName: __ZNSt3__16vectorINS_4pairIxfEENS_9allocatorIS2_EEE16__destroy_vectorclB8ne180100Ev, symObjAddr: 0x8E54, symBinAddr: 0x10000B9EC, symSize: 0x90 }
  - { offset: 0x354B3, size: 0x8, addend: 0x0, symName: __ZNSt3__16vectorINS_4pairIxfEENS_9allocatorIS2_EEE16__destroy_vectorC2B8ne180100ERS5_, symObjAddr: 0x8EE4, symBinAddr: 0x10000BA7C, symSize: 0x20 }
  - { offset: 0x354EC, size: 0x8, addend: 0x0, symName: __ZNSt3__16vectorINS_4pairIxfEENS_9allocatorIS2_EEE7__clearB8ne180100Ev, symObjAddr: 0x8F04, symBinAddr: 0x10000BA9C, symSize: 0x28 }
  - { offset: 0x35512, size: 0x8, addend: 0x0, symName: __ZNKSt3__16vectorINS_4pairIxfEENS_9allocatorIS2_EEE17__annotate_deleteB8ne180100Ev, symObjAddr: 0x8F2C, symBinAddr: 0x10000BAC4, symSize: 0x10 }
  - { offset: 0x35538, size: 0x8, addend: 0x0, symName: __ZNSt3__116allocator_traitsINS_9allocatorINS_4pairIxfEEEEE10deallocateB8ne180100ERS4_PS3_m, symObjAddr: 0x8F3C, symBinAddr: 0x10000BAD4, symSize: 0x34 }
  - { offset: 0x3557A, size: 0x8, addend: 0x0, symName: __ZNSt3__16vectorINS_4pairIxfEENS_9allocatorIS2_EEE7__allocB8ne180100Ev, symObjAddr: 0x8F70, symBinAddr: 0x10000BB08, symSize: 0x28 }
  - { offset: 0x355A0, size: 0x8, addend: 0x0, symName: __ZNKSt3__16vectorINS_4pairIxfEENS_9allocatorIS2_EEE8capacityB8ne180100Ev, symObjAddr: 0x8F98, symBinAddr: 0x10000BB30, symSize: 0x40 }
  - { offset: 0x355C6, size: 0x8, addend: 0x0, symName: __ZNSt3__16vectorINS_4pairIxfEENS_9allocatorIS2_EEE22__base_destruct_at_endB8ne180100EPS2_, symObjAddr: 0x8FD8, symBinAddr: 0x10000BB70, symSize: 0x8C }
  - { offset: 0x3560A, size: 0x8, addend: 0x0, symName: __ZNSt3__116allocator_traitsINS_9allocatorINS_4pairIxfEEEEE7destroyB8ne180100IS3_vEEvRS4_PT_, symObjAddr: 0x9064, symBinAddr: 0x10000BBFC, symSize: 0x2C }
  - { offset: 0x35647, size: 0x8, addend: 0x0, symName: __ZNSt3__19allocatorINS_4pairIxfEEE7destroyB8ne180100EPS2_, symObjAddr: 0x90A4, symBinAddr: 0x10000BC3C, symSize: 0x14 }
  - { offset: 0x3567B, size: 0x8, addend: 0x0, symName: __ZNSt3__19allocatorINS_4pairIxfEEE10deallocateB8ne180100EPS2_m, symObjAddr: 0x90B8, symBinAddr: 0x10000BC50, symSize: 0x40 }
  - { offset: 0x356BD, size: 0x8, addend: 0x0, symName: __ZNSt3__117__compressed_pairIPNS_4pairIxfEENS_9allocatorIS2_EEE6secondB8ne180100Ev, symObjAddr: 0x90F8, symBinAddr: 0x10000BC90, symSize: 0x24 }
  - { offset: 0x356E3, size: 0x8, addend: 0x0, symName: __ZNSt3__122__compressed_pair_elemINS_9allocatorINS_4pairIxfEEEELi1ELb1EE5__getB8ne180100Ev, symObjAddr: 0x911C, symBinAddr: 0x10000BCB4, symSize: 0x14 }
  - { offset: 0x35709, size: 0x8, addend: 0x0, symName: __ZNKSt3__16vectorINS_4pairIxfEENS_9allocatorIS2_EEE9__end_capB8ne180100Ev, symObjAddr: 0x9130, symBinAddr: 0x10000BCC8, symSize: 0x28 }
  - { offset: 0x3572F, size: 0x8, addend: 0x0, symName: __ZNKSt3__117__compressed_pairIPNS_4pairIxfEENS_9allocatorIS2_EEE5firstB8ne180100Ev, symObjAddr: 0x9158, symBinAddr: 0x10000BCF0, symSize: 0x24 }
  - { offset: 0x35755, size: 0x8, addend: 0x0, symName: __ZNKSt3__122__compressed_pair_elemIPNS_4pairIxfEELi0ELb0EE5__getB8ne180100Ev, symObjAddr: 0x917C, symBinAddr: 0x10000BD14, symSize: 0x14 }
  - { offset: 0x3577B, size: 0x8, addend: 0x0, symName: __ZNSt3__19allocatorINS_6vectorINS_4pairIxfEENS0_IS3_EEEEE10deallocateB8ne180100EPS5_m, symObjAddr: 0x9190, symBinAddr: 0x10000BD28, symSize: 0x44 }
  - { offset: 0x357BD, size: 0x8, addend: 0x0, symName: __ZNKSt3__16vectorINS0_INS_4pairIxfEENS_9allocatorIS2_EEEENS3_IS5_EEE9__end_capB8ne180100Ev, symObjAddr: 0x91D4, symBinAddr: 0x10000BD6C, symSize: 0x28 }
  - { offset: 0x357E3, size: 0x8, addend: 0x0, symName: __ZNKSt3__117__compressed_pairIPNS_6vectorINS_4pairIxfEENS_9allocatorIS3_EEEENS4_IS6_EEE5firstB8ne180100Ev, symObjAddr: 0x91FC, symBinAddr: 0x10000BD94, symSize: 0x24 }
  - { offset: 0x35809, size: 0x8, addend: 0x0, symName: __ZNKSt3__122__compressed_pair_elemIPNS_6vectorINS_4pairIxfEENS_9allocatorIS3_EEEELi0ELb0EE5__getB8ne180100Ev, symObjAddr: 0x9220, symBinAddr: 0x10000BDB8, symSize: 0x14 }
  - { offset: 0x3582F, size: 0x8, addend: 0x0, symName: __ZNKSt3__16vectorINS_4pairIxfEENS_9allocatorIS2_EEE11__make_iterB8ne180100EPKS2_, symObjAddr: 0x9234, symBinAddr: 0x10000BDCC, symSize: 0x30 }
  - { offset: 0x35864, size: 0x8, addend: 0x0, symName: __ZNSt3__111__wrap_iterIPKNS_4pairIxfEEEC1B8ne180100ES4_, symObjAddr: 0x9264, symBinAddr: 0x10000BDFC, symSize: 0x34 }
  - { offset: 0x3589C, size: 0x8, addend: 0x0, symName: __ZNSt3__111__wrap_iterIPKNS_4pairIxfEEEC2B8ne180100ES4_, symObjAddr: 0x9298, symBinAddr: 0x10000BE30, symSize: 0x20 }
  - { offset: 0x358F2, size: 0x8, addend: 0x0, symName: __ZNKSt3__113basic_ostreamIcNS_11char_traitsIcEEE6sentrycvbB8ne180100Ev, symObjAddr: 0x94A4, symBinAddr: 0x10000C03C, symSize: 0x1C }
  - { offset: 0x35918, size: 0x8, addend: 0x0, symName: __ZNSt3__119ostreambuf_iteratorIcNS_11char_traitsIcEEEC1B8ne180100ERNS_13basic_ostreamIcS2_EE, symObjAddr: 0x9700, symBinAddr: 0x10000C298, symSize: 0x34 }
  - { offset: 0x35950, size: 0x8, addend: 0x0, symName: __ZNKSt3__18ios_base5flagsB8ne180100Ev, symObjAddr: 0x9734, symBinAddr: 0x10000C2CC, symSize: 0x18 }
  - { offset: 0x35978, size: 0x8, addend: 0x0, symName: __ZNKSt3__19basic_iosIcNS_11char_traitsIcEEE4fillB8ne180100Ev, symObjAddr: 0x974C, symBinAddr: 0x10000C2E4, symSize: 0x64 }
  - { offset: 0x359A0, size: 0x8, addend: 0x0, symName: __ZNKSt3__119ostreambuf_iteratorIcNS_11char_traitsIcEEE6failedB8ne180100Ev, symObjAddr: 0x97B0, symBinAddr: 0x10000C348, symSize: 0x24 }
  - { offset: 0x359C6, size: 0x8, addend: 0x0, symName: __ZNSt3__19basic_iosIcNS_11char_traitsIcEEE8setstateB8ne180100Ej, symObjAddr: 0x97D4, symBinAddr: 0x10000C36C, symSize: 0x2C }
  - { offset: 0x359FB, size: 0x8, addend: 0x0, symName: __ZNKSt3__18ios_base5widthB8ne180100Ev, symObjAddr: 0x9800, symBinAddr: 0x10000C398, symSize: 0x18 }
  - { offset: 0x35A23, size: 0x8, addend: 0x0, symName: __ZNSt3__115basic_streambufIcNS_11char_traitsIcEEE5sputnB8ne180100EPKcl, symObjAddr: 0x9818, symBinAddr: 0x10000C3B0, symSize: 0x3C }
  - { offset: 0x35A65, size: 0x8, addend: 0x0, symName: __ZNSt3__112basic_stringIcNS_11char_traitsIcEENS_9allocatorIcEEEC1B8ne180100Emc, symObjAddr: 0x9854, symBinAddr: 0x10000C3EC, symSize: 0x3C }
  - { offset: 0x35AAD, size: 0x8, addend: 0x0, symName: __ZNSt3__18ios_base5widthB8ne180100El, symObjAddr: 0x9890, symBinAddr: 0x10000C428, symSize: 0x2C }
  - { offset: 0x35AF3, size: 0x8, addend: 0x0, symName: __ZNSt3__112basic_stringIcNS_11char_traitsIcEENS_9allocatorIcEEEC2B8ne180100Emc, symObjAddr: 0x98BC, symBinAddr: 0x10000C454, symSize: 0x4C }
  - { offset: 0x35B3B, size: 0x8, addend: 0x0, symName: __ZNSt3__119ostreambuf_iteratorIcNS_11char_traitsIcEEEC2B8ne180100ERNS_13basic_ostreamIcS2_EE, symObjAddr: 0x9908, symBinAddr: 0x10000C4A0, symSize: 0x54 }
  - { offset: 0x35B73, size: 0x8, addend: 0x0, symName: __ZNKSt3__19basic_iosIcNS_11char_traitsIcEEE5rdbufB8ne180100Ev, symObjAddr: 0x995C, symBinAddr: 0x10000C4F4, symSize: 0x24 }
  - { offset: 0x35B9B, size: 0x8, addend: 0x0, symName: __ZNKSt3__18ios_base5rdbufB8ne180100Ev, symObjAddr: 0x9980, symBinAddr: 0x10000C518, symSize: 0x18 }
  - { offset: 0x35BC1, size: 0x8, addend: 0x0, symName: __ZNSt3__111char_traitsIcE11eq_int_typeB8ne180100Eii, symObjAddr: 0x9998, symBinAddr: 0x10000C530, symSize: 0x28 }
  - { offset: 0x35BF4, size: 0x8, addend: 0x0, symName: __ZNKSt3__19basic_iosIcNS_11char_traitsIcEEE5widenB8ne180100Ec, symObjAddr: 0x99C0, symBinAddr: 0x10000C558, symSize: 0x84 }
  - { offset: 0x35C68, size: 0x8, addend: 0x0, symName: __ZNKSt3__15ctypeIcE5widenB8ne180100Ec, symObjAddr: 0x9A70, symBinAddr: 0x10000C608, symSize: 0x38 }
  - { offset: 0x35C9D, size: 0x8, addend: 0x0, symName: __ZNSt3__18ios_base8setstateB8ne180100Ej, symObjAddr: 0x9AA8, symBinAddr: 0x10000C640, symSize: 0x34 }
  - { offset: 0x35CD4, size: 0x8, addend: 0x0, symName: __ZNSt3__16vectorINS0_IfNS_9allocatorIfEEEENS1_IS3_EEED2B8ne180100Ev, symObjAddr: 0x9ADC, symBinAddr: 0x10000C674, symSize: 0x44 }
  - { offset: 0x35CFE, size: 0x8, addend: 0x0, symName: __ZNSt3__16vectorINS0_IfNS_9allocatorIfEEEENS1_IS3_EEE16__destroy_vectorC1B8ne180100ERS5_, symObjAddr: 0x9B20, symBinAddr: 0x10000C6B8, symSize: 0x34 }
  - { offset: 0x35D37, size: 0x8, addend: 0x0, symName: __ZNSt3__16vectorINS0_IfNS_9allocatorIfEEEENS1_IS3_EEE16__destroy_vectorclB8ne180100Ev, symObjAddr: 0x9B54, symBinAddr: 0x10000C6EC, symSize: 0x90 }
  - { offset: 0x35D5D, size: 0x8, addend: 0x0, symName: __ZNSt3__16vectorINS0_IfNS_9allocatorIfEEEENS1_IS3_EEE16__destroy_vectorC2B8ne180100ERS5_, symObjAddr: 0x9BE4, symBinAddr: 0x10000C77C, symSize: 0x20 }
  - { offset: 0x35D96, size: 0x8, addend: 0x0, symName: __ZNSt3__16vectorINS0_IfNS_9allocatorIfEEEENS1_IS3_EEE7__clearB8ne180100Ev, symObjAddr: 0x9C04, symBinAddr: 0x10000C79C, symSize: 0x28 }
  - { offset: 0x35DBC, size: 0x8, addend: 0x0, symName: __ZNKSt3__16vectorINS0_IfNS_9allocatorIfEEEENS1_IS3_EEE17__annotate_deleteB8ne180100Ev, symObjAddr: 0x9C2C, symBinAddr: 0x10000C7C4, symSize: 0x10 }
  - { offset: 0x35DE2, size: 0x8, addend: 0x0, symName: __ZNSt3__116allocator_traitsINS_9allocatorINS_6vectorIfNS1_IfEEEEEEE10deallocateB8ne180100ERS5_PS4_m, symObjAddr: 0x9C3C, symBinAddr: 0x10000C7D4, symSize: 0x34 }
  - { offset: 0x35E24, size: 0x8, addend: 0x0, symName: __ZNKSt3__16vectorINS0_IfNS_9allocatorIfEEEENS1_IS3_EEE8capacityB8ne180100Ev, symObjAddr: 0x9C70, symBinAddr: 0x10000C808, symSize: 0x40 }
  - { offset: 0x35E4A, size: 0x8, addend: 0x0, symName: __ZNSt3__16vectorINS0_IfNS_9allocatorIfEEEENS1_IS3_EEE22__base_destruct_at_endB8ne180100EPS3_, symObjAddr: 0x9CB0, symBinAddr: 0x10000C848, symSize: 0x8C }
  - { offset: 0x35E8E, size: 0x8, addend: 0x0, symName: __ZNSt3__116allocator_traitsINS_9allocatorINS_6vectorIfNS1_IfEEEEEEE7destroyB8ne180100IS4_vEEvRS5_PT_, symObjAddr: 0x9D3C, symBinAddr: 0x10000C8D4, symSize: 0x2C }
  - { offset: 0x35ECB, size: 0x8, addend: 0x0, symName: __ZNSt3__19allocatorINS_6vectorIfNS0_IfEEEEE7destroyB8ne180100EPS3_, symObjAddr: 0x9D7C, symBinAddr: 0x10000C914, symSize: 0x28 }
  - { offset: 0x35EFF, size: 0x8, addend: 0x0, symName: __ZNSt3__19allocatorINS_6vectorIfNS0_IfEEEEE10deallocateB8ne180100EPS3_m, symObjAddr: 0x9DA4, symBinAddr: 0x10000C93C, symSize: 0x44 }
  - { offset: 0x35F41, size: 0x8, addend: 0x0, symName: __ZNKSt3__16vectorINS0_IfNS_9allocatorIfEEEENS1_IS3_EEE9__end_capB8ne180100Ev, symObjAddr: 0x9DE8, symBinAddr: 0x10000C980, symSize: 0x28 }
  - { offset: 0x35F67, size: 0x8, addend: 0x0, symName: __ZNKSt3__117__compressed_pairIPNS_6vectorIfNS_9allocatorIfEEEENS2_IS4_EEE5firstB8ne180100Ev, symObjAddr: 0x9E10, symBinAddr: 0x10000C9A8, symSize: 0x24 }
  - { offset: 0x35F8D, size: 0x8, addend: 0x0, symName: __ZNKSt3__122__compressed_pair_elemIPNS_6vectorIfNS_9allocatorIfEEEELi0ELb0EE5__getB8ne180100Ev, symObjAddr: 0x9E34, symBinAddr: 0x10000C9CC, symSize: 0x14 }
  - { offset: 0x35FB3, size: 0x8, addend: 0x0, symName: __ZNSt3__16vectorIfNS_9allocatorIfEEED2B8ne180100Ev, symObjAddr: 0x9E48, symBinAddr: 0x10000C9E0, symSize: 0x40 }
  - { offset: 0x35FDD, size: 0x8, addend: 0x0, symName: __ZNSt3__16vectorIxNS_9allocatorIxEEEC2Em, symObjAddr: 0x9E88, symBinAddr: 0x10000CA20, symSize: 0xD4 }
  - { offset: 0x3602D, size: 0x8, addend: 0x0, symName: __ZNSt3__117__compressed_pairIPxNS_9allocatorIxEEEC1B8ne180100IDnNS_18__default_init_tagEEEOT_OT0_, symObjAddr: 0x9F5C, symBinAddr: 0x10000CAF4, symSize: 0x3C }
  - { offset: 0x36085, size: 0x8, addend: 0x0, symName: __ZNSt3__16vectorIxNS_9allocatorIxEEE11__vallocateB8ne180100Em, symObjAddr: 0x9FD8, symBinAddr: 0x10000CB70, symSize: 0xAC }
  - { offset: 0x360C9, size: 0x8, addend: 0x0, symName: __ZNSt3__16vectorIxNS_9allocatorIxEEE18__construct_at_endEm, symObjAddr: 0xA084, symBinAddr: 0x10000CC1C, symSize: 0xC8 }
  - { offset: 0x3613B, size: 0x8, addend: 0x0, symName: __ZNSt3__128__exception_guard_exceptionsINS_6vectorIxNS_9allocatorIxEEE16__destroy_vectorEE10__completeB8ne180100Ev, symObjAddr: 0xA14C, symBinAddr: 0x10000CCE4, symSize: 0x1C }
  - { offset: 0x36161, size: 0x8, addend: 0x0, symName: __ZNSt3__128__exception_guard_exceptionsINS_6vectorIxNS_9allocatorIxEEE16__destroy_vectorEED1B8ne180100Ev, symObjAddr: 0xA168, symBinAddr: 0x10000CD00, symSize: 0x2C }
  - { offset: 0x3618B, size: 0x8, addend: 0x0, symName: __ZNSt3__117__compressed_pairIPxNS_9allocatorIxEEEC2B8ne180100IDnNS_18__default_init_tagEEEOT_OT0_, symObjAddr: 0xA194, symBinAddr: 0x10000CD2C, symSize: 0x40 }
  - { offset: 0x361E3, size: 0x8, addend: 0x0, symName: __ZNSt3__122__compressed_pair_elemIPxLi0ELb0EEC2B8ne180100IDnvEEOT_, symObjAddr: 0xA1D4, symBinAddr: 0x10000CD6C, symSize: 0x1C }
  - { offset: 0x36225, size: 0x8, addend: 0x0, symName: __ZNSt3__122__compressed_pair_elemINS_9allocatorIxEELi1ELb1EEC2B8ne180100ENS_18__default_init_tagE, symObjAddr: 0xA1F0, symBinAddr: 0x10000CD88, symSize: 0x2C }
  - { offset: 0x36259, size: 0x8, addend: 0x0, symName: __ZNSt3__19allocatorIxEC2B8ne180100Ev, symObjAddr: 0xA21C, symBinAddr: 0x10000CDB4, symSize: 0x2C }
  - { offset: 0x36283, size: 0x8, addend: 0x0, symName: __ZNSt3__116__non_trivial_ifILb1ENS_9allocatorIxEEEC2B8ne180100Ev, symObjAddr: 0xA248, symBinAddr: 0x10000CDE0, symSize: 0x14 }
  - { offset: 0x362AD, size: 0x8, addend: 0x0, symName: __ZNSt3__128__exception_guard_exceptionsINS_6vectorIxNS_9allocatorIxEEE16__destroy_vectorEEC1B8ne180100ES5_, symObjAddr: 0xA25C, symBinAddr: 0x10000CDF4, symSize: 0x34 }
  - { offset: 0x362E5, size: 0x8, addend: 0x0, symName: __ZNSt3__128__exception_guard_exceptionsINS_6vectorIxNS_9allocatorIxEEE16__destroy_vectorEEC2B8ne180100ES5_, symObjAddr: 0xA290, symBinAddr: 0x10000CE28, symSize: 0x24 }
  - { offset: 0x3631D, size: 0x8, addend: 0x0, symName: __ZNKSt3__16vectorIxNS_9allocatorIxEEE8max_sizeEv, symObjAddr: 0xA2B4, symBinAddr: 0x10000CE4C, symSize: 0x60 }
  - { offset: 0x36345, size: 0x8, addend: 0x0, symName: __ZNKSt3__16vectorIxNS_9allocatorIxEEE20__throw_length_errorB8ne180100Ev, symObjAddr: 0xA314, symBinAddr: 0x10000CEAC, symSize: 0x1C }
  - { offset: 0x3636B, size: 0x8, addend: 0x0, symName: __ZNSt3__16vectorIxNS_9allocatorIxEEE9__end_capB8ne180100Ev, symObjAddr: 0xA370, symBinAddr: 0x10000CF08, symSize: 0x28 }
  - { offset: 0x36391, size: 0x8, addend: 0x0, symName: __ZNKSt3__16vectorIxNS_9allocatorIxEEE14__annotate_newB8ne180100Em, symObjAddr: 0xA398, symBinAddr: 0x10000CF30, symSize: 0x14 }
  - { offset: 0x363D0, size: 0x8, addend: 0x0, symName: __ZNSt3__116allocator_traitsINS_9allocatorIxEEE8max_sizeB8ne180100IS2_vEEmRKS2_, symObjAddr: 0xA3AC, symBinAddr: 0x10000CF44, symSize: 0x24 }
  - { offset: 0x363FE, size: 0x8, addend: 0x0, symName: __ZNKSt3__16vectorIxNS_9allocatorIxEEE7__allocB8ne180100Ev, symObjAddr: 0xA3D0, symBinAddr: 0x10000CF68, symSize: 0x28 }
  - { offset: 0x36424, size: 0x8, addend: 0x0, symName: __ZNKSt3__19allocatorIxE8max_sizeB8ne180100Ev, symObjAddr: 0xA3F8, symBinAddr: 0x10000CF90, symSize: 0x14 }
  - { offset: 0x3644A, size: 0x8, addend: 0x0, symName: __ZNKSt3__117__compressed_pairIPxNS_9allocatorIxEEE6secondB8ne180100Ev, symObjAddr: 0xA40C, symBinAddr: 0x10000CFA4, symSize: 0x24 }
  - { offset: 0x36470, size: 0x8, addend: 0x0, symName: __ZNKSt3__122__compressed_pair_elemINS_9allocatorIxEELi1ELb1EE5__getB8ne180100Ev, symObjAddr: 0xA430, symBinAddr: 0x10000CFC8, symSize: 0x14 }
  - { offset: 0x36496, size: 0x8, addend: 0x0, symName: __ZNSt3__19allocatorIxE8allocateB8ne180100Em, symObjAddr: 0xA444, symBinAddr: 0x10000CFDC, symSize: 0x58 }
  - { offset: 0x364CA, size: 0x8, addend: 0x0, symName: __ZNSt3__117__compressed_pairIPxNS_9allocatorIxEEE5firstB8ne180100Ev, symObjAddr: 0xA49C, symBinAddr: 0x10000D034, symSize: 0x24 }
  - { offset: 0x364F0, size: 0x8, addend: 0x0, symName: __ZNSt3__122__compressed_pair_elemIPxLi0ELb0EE5__getB8ne180100Ev, symObjAddr: 0xA4C0, symBinAddr: 0x10000D058, symSize: 0x14 }
  - { offset: 0x3652F, size: 0x8, addend: 0x0, symName: __ZNSt3__16vectorIxNS_9allocatorIxEEE21_ConstructTransactionC1B8ne180100ERS3_m, symObjAddr: 0xA4D4, symBinAddr: 0x10000D06C, symSize: 0x3C }
  - { offset: 0x36577, size: 0x8, addend: 0x0, symName: __ZNSt3__116allocator_traitsINS_9allocatorIxEEE9constructB8ne180100IxJEvEEvRS2_PT_DpOT0_, symObjAddr: 0xA510, symBinAddr: 0x10000D0A8, symSize: 0x2C }
  - { offset: 0x365B9, size: 0x8, addend: 0x0, symName: __ZNSt3__16vectorIxNS_9allocatorIxEEE21_ConstructTransactionD1B8ne180100Ev, symObjAddr: 0xA53C, symBinAddr: 0x10000D0D4, symSize: 0x2C }
  - { offset: 0x365E3, size: 0x8, addend: 0x0, symName: __ZNSt3__16vectorIxNS_9allocatorIxEEE21_ConstructTransactionC2B8ne180100ERS3_m, symObjAddr: 0xA568, symBinAddr: 0x10000D100, symSize: 0x44 }
  - { offset: 0x3662B, size: 0x8, addend: 0x0, symName: __ZNSt3__19allocatorIxE9constructB8ne180100IxJEEEvPT_DpOT0_, symObjAddr: 0xA5AC, symBinAddr: 0x10000D144, symSize: 0x1C }
  - { offset: 0x3666D, size: 0x8, addend: 0x0, symName: __ZNSt3__16vectorIxNS_9allocatorIxEEE21_ConstructTransactionD2B8ne180100Ev, symObjAddr: 0xA5C8, symBinAddr: 0x10000D160, symSize: 0x20 }
  - { offset: 0x36697, size: 0x8, addend: 0x0, symName: __ZNSt3__128__exception_guard_exceptionsINS_6vectorIxNS_9allocatorIxEEE16__destroy_vectorEED2B8ne180100Ev, symObjAddr: 0xA5E8, symBinAddr: 0x10000D180, symSize: 0x48 }
  - { offset: 0x366C1, size: 0x8, addend: 0x0, symName: __ZNSt3__16vectorIxNS_9allocatorIxEEE3endB8ne180100Ev, symObjAddr: 0xA630, symBinAddr: 0x10000D1C8, symSize: 0x30 }
  - { offset: 0x366E9, size: 0x8, addend: 0x0, symName: __ZNSt3__116reverse_iteratorINS_11__wrap_iterIPxEEEC1B8ne180100ES3_, symObjAddr: 0xA660, symBinAddr: 0x10000D1F8, symSize: 0x34 }
  - { offset: 0x36721, size: 0x8, addend: 0x0, symName: __ZNSt3__16vectorIxNS_9allocatorIxEEE11__make_iterB8ne180100EPx, symObjAddr: 0xA694, symBinAddr: 0x10000D22C, symSize: 0x30 }
  - { offset: 0x36756, size: 0x8, addend: 0x0, symName: __ZNSt3__111__wrap_iterIPxEC1B8ne180100ES1_, symObjAddr: 0xA6C4, symBinAddr: 0x10000D25C, symSize: 0x34 }
  - { offset: 0x3678E, size: 0x8, addend: 0x0, symName: __ZNSt3__111__wrap_iterIPxEC2B8ne180100ES1_, symObjAddr: 0xA6F8, symBinAddr: 0x10000D290, symSize: 0x20 }
  - { offset: 0x367C6, size: 0x8, addend: 0x0, symName: __ZNSt3__116reverse_iteratorINS_11__wrap_iterIPxEEEC2B8ne180100ES3_, symObjAddr: 0xA718, symBinAddr: 0x10000D2B0, symSize: 0x28 }
  - { offset: 0x367FE, size: 0x8, addend: 0x0, symName: __ZNK6ripserI26compressed_distance_matrixIL24compressed_matrix_layout0EEE14get_max_vertexExxx, symObjAddr: 0xA740, symBinAddr: 0x10000D2D8, symSize: 0x54 }
  - { offset: 0x36899, size: 0x8, addend: 0x0, symName: __ZNSt3__116reverse_iteratorINS_11__wrap_iterIPxEEEppB8ne180100Ei, symObjAddr: 0xA794, symBinAddr: 0x10000D32C, symSize: 0x3C }
  - { offset: 0x368D7, size: 0x8, addend: 0x0, symName: __ZNKSt3__116reverse_iteratorINS_11__wrap_iterIPxEEEdeB8ne180100Ev, symObjAddr: 0xA7D0, symBinAddr: 0x10000D368, symSize: 0x34 }
  - { offset: 0x3690A, size: 0x8, addend: 0x0, symName: __Z7get_maxIZNK6ripserI26compressed_distance_matrixIL24compressed_matrix_layout0EEE14get_max_vertexExxxEUlxE_ExxxT_, symObjAddr: 0xA804, symBinAddr: 0x10000D39C, symSize: 0xD8 }
  - { offset: 0x369B9, size: 0x8, addend: 0x0, symName: __ZZNK6ripserI26compressed_distance_matrixIL24compressed_matrix_layout0EEE14get_max_vertexExxxENKUlxE_clEx, symObjAddr: 0xA8DC, symBinAddr: 0x10000D474, symSize: 0x58 }
  - { offset: 0x369F2, size: 0x8, addend: 0x0, symName: __ZNSt3__111__wrap_iterIPxEmmB8ne180100Ev, symObjAddr: 0xA934, symBinAddr: 0x10000D4CC, symSize: 0x20 }
  - { offset: 0x36A18, size: 0x8, addend: 0x0, symName: __ZNKSt3__111__wrap_iterIPxEdeB8ne180100Ev, symObjAddr: 0xA954, symBinAddr: 0x10000D4EC, symSize: 0x18 }
  - { offset: 0x36A3E, size: 0x8, addend: 0x0, symName: __ZNKSt3__16__lessIvvEclB8ne180100IffEEbRKT_RKT0_, symObjAddr: 0xA9C0, symBinAddr: 0x10000D558, symSize: 0x34 }
  - { offset: 0x36A92, size: 0x8, addend: 0x0, symName: __ZNSt3__16vectorINS_4pairIfxEENS_9allocatorIS2_EEEC2B8ne180100Ev, symObjAddr: 0xA9F4, symBinAddr: 0x10000D58C, symSize: 0x4C }
  - { offset: 0x36ABC, size: 0x8, addend: 0x0, symName: __ZNSt3__117__compressed_pairIPNS_4pairIfxEENS_9allocatorIS2_EEEC1B8ne180100IDnNS_18__default_init_tagEEEOT_OT0_, symObjAddr: 0xAA40, symBinAddr: 0x10000D5D8, symSize: 0x3C }
  - { offset: 0x36B14, size: 0x8, addend: 0x0, symName: __ZNSt3__117__compressed_pairIPNS_4pairIfxEENS_9allocatorIS2_EEEC2B8ne180100IDnNS_18__default_init_tagEEEOT_OT0_, symObjAddr: 0xAA7C, symBinAddr: 0x10000D614, symSize: 0x40 }
  - { offset: 0x36B6C, size: 0x8, addend: 0x0, symName: __ZNSt3__122__compressed_pair_elemIPNS_4pairIfxEELi0ELb0EEC2B8ne180100IDnvEEOT_, symObjAddr: 0xAABC, symBinAddr: 0x10000D654, symSize: 0x1C }
  - { offset: 0x36BAE, size: 0x8, addend: 0x0, symName: __ZNSt3__122__compressed_pair_elemINS_9allocatorINS_4pairIfxEEEELi1ELb1EEC2B8ne180100ENS_18__default_init_tagE, symObjAddr: 0xAAD8, symBinAddr: 0x10000D670, symSize: 0x2C }
  - { offset: 0x36BE2, size: 0x8, addend: 0x0, symName: __ZNSt3__19allocatorINS_4pairIfxEEEC2B8ne180100Ev, symObjAddr: 0xAB04, symBinAddr: 0x10000D69C, symSize: 0x2C }
  - { offset: 0x36C0C, size: 0x8, addend: 0x0, symName: __ZNSt3__116__non_trivial_ifILb1ENS_9allocatorINS_4pairIfxEEEEEC2B8ne180100Ev, symObjAddr: 0xAB30, symBinAddr: 0x10000D6C8, symSize: 0x14 }
  - { offset: 0x36C36, size: 0x8, addend: 0x0, symName: __ZNSt3__16vectorINS_4pairIfxEENS_9allocatorIS2_EEED2B8ne180100Ev, symObjAddr: 0xAB44, symBinAddr: 0x10000D6DC, symSize: 0x44 }
  - { offset: 0x36C60, size: 0x8, addend: 0x0, symName: __ZNSt3__16vectorINS_4pairIfxEENS_9allocatorIS2_EEE16__destroy_vectorC1B8ne180100ERS5_, symObjAddr: 0xAB88, symBinAddr: 0x10000D720, symSize: 0x34 }
  - { offset: 0x36C99, size: 0x8, addend: 0x0, symName: __ZNSt3__16vectorINS_4pairIfxEENS_9allocatorIS2_EEE16__destroy_vectorclB8ne180100Ev, symObjAddr: 0xABBC, symBinAddr: 0x10000D754, symSize: 0x90 }
  - { offset: 0x36CBF, size: 0x8, addend: 0x0, symName: __ZNSt3__16vectorINS_4pairIfxEENS_9allocatorIS2_EEE16__destroy_vectorC2B8ne180100ERS5_, symObjAddr: 0xAC4C, symBinAddr: 0x10000D7E4, symSize: 0x20 }
  - { offset: 0x36CF8, size: 0x8, addend: 0x0, symName: __ZNSt3__16vectorINS_4pairIfxEENS_9allocatorIS2_EEE7__clearB8ne180100Ev, symObjAddr: 0xAC6C, symBinAddr: 0x10000D804, symSize: 0x28 }
  - { offset: 0x36D1E, size: 0x8, addend: 0x0, symName: __ZNKSt3__16vectorINS_4pairIfxEENS_9allocatorIS2_EEE17__annotate_deleteB8ne180100Ev, symObjAddr: 0xAC94, symBinAddr: 0x10000D82C, symSize: 0x10 }
  - { offset: 0x36D44, size: 0x8, addend: 0x0, symName: __ZNSt3__116allocator_traitsINS_9allocatorINS_4pairIfxEEEEE10deallocateB8ne180100ERS4_PS3_m, symObjAddr: 0xACA4, symBinAddr: 0x10000D83C, symSize: 0x34 }
  - { offset: 0x36D86, size: 0x8, addend: 0x0, symName: __ZNSt3__16vectorINS_4pairIfxEENS_9allocatorIS2_EEE7__allocB8ne180100Ev, symObjAddr: 0xACD8, symBinAddr: 0x10000D870, symSize: 0x28 }
  - { offset: 0x36DAC, size: 0x8, addend: 0x0, symName: __ZNKSt3__16vectorINS_4pairIfxEENS_9allocatorIS2_EEE8capacityB8ne180100Ev, symObjAddr: 0xAD00, symBinAddr: 0x10000D898, symSize: 0x40 }
  - { offset: 0x36DD2, size: 0x8, addend: 0x0, symName: __ZNSt3__16vectorINS_4pairIfxEENS_9allocatorIS2_EEE22__base_destruct_at_endB8ne180100EPS2_, symObjAddr: 0xAD40, symBinAddr: 0x10000D8D8, symSize: 0x8C }
  - { offset: 0x36E16, size: 0x8, addend: 0x0, symName: __ZNSt3__116allocator_traitsINS_9allocatorINS_4pairIfxEEEEE7destroyB8ne180100IS3_vEEvRS4_PT_, symObjAddr: 0xADCC, symBinAddr: 0x10000D964, symSize: 0x2C }
  - { offset: 0x36E53, size: 0x8, addend: 0x0, symName: __ZNSt3__19allocatorINS_4pairIfxEEE7destroyB8ne180100EPS2_, symObjAddr: 0xAE0C, symBinAddr: 0x10000D9A4, symSize: 0x14 }
  - { offset: 0x36E87, size: 0x8, addend: 0x0, symName: __ZNSt3__19allocatorINS_4pairIfxEEE10deallocateB8ne180100EPS2_m, symObjAddr: 0xAE20, symBinAddr: 0x10000D9B8, symSize: 0x40 }
  - { offset: 0x36EC9, size: 0x8, addend: 0x0, symName: __ZNSt3__117__compressed_pairIPNS_4pairIfxEENS_9allocatorIS2_EEE6secondB8ne180100Ev, symObjAddr: 0xAE60, symBinAddr: 0x10000D9F8, symSize: 0x24 }
  - { offset: 0x36EEF, size: 0x8, addend: 0x0, symName: __ZNSt3__122__compressed_pair_elemINS_9allocatorINS_4pairIfxEEEELi1ELb1EE5__getB8ne180100Ev, symObjAddr: 0xAE84, symBinAddr: 0x10000DA1C, symSize: 0x14 }
  - { offset: 0x36F15, size: 0x8, addend: 0x0, symName: __ZNKSt3__16vectorINS_4pairIfxEENS_9allocatorIS2_EEE9__end_capB8ne180100Ev, symObjAddr: 0xAE98, symBinAddr: 0x10000DA30, symSize: 0x28 }
  - { offset: 0x36F3B, size: 0x8, addend: 0x0, symName: __ZNKSt3__117__compressed_pairIPNS_4pairIfxEENS_9allocatorIS2_EEE5firstB8ne180100Ev, symObjAddr: 0xAEC0, symBinAddr: 0x10000DA58, symSize: 0x24 }
  - { offset: 0x36F61, size: 0x8, addend: 0x0, symName: __ZNKSt3__122__compressed_pair_elemIPNS_4pairIfxEELi0ELb0EE5__getB8ne180100Ev, symObjAddr: 0xAEE4, symBinAddr: 0x10000DA7C, symSize: 0x14 }
  - { offset: 0x36F87, size: 0x8, addend: 0x0, symName: __ZNSt3__16vectorINS_4pairIfxEENS_9allocatorIS2_EEE9__end_capB8ne180100Ev, symObjAddr: 0xAEF8, symBinAddr: 0x10000DA90, symSize: 0x28 }
  - { offset: 0x36FAD, size: 0x8, addend: 0x0, symName: __ZNSt3__16vectorINS_4pairIfxEENS_9allocatorIS2_EEE22__construct_one_at_endB8ne180100IJS2_EEEvDpOT_, symObjAddr: 0xAF20, symBinAddr: 0x10000DAB8, symSize: 0x90 }
  - { offset: 0x36FFC, size: 0x8, addend: 0x0, symName: __ZNSt3__16vectorINS_4pairIfxEENS_9allocatorIS2_EEE21__push_back_slow_pathIS2_EEPS2_OT_, symObjAddr: 0xAFB0, symBinAddr: 0x10000DB48, symSize: 0xE8 }
  - { offset: 0x3705A, size: 0x8, addend: 0x0, symName: __ZNSt3__117__compressed_pairIPNS_4pairIfxEENS_9allocatorIS2_EEE5firstB8ne180100Ev, symObjAddr: 0xB098, symBinAddr: 0x10000DC30, symSize: 0x24 }
  - { offset: 0x37080, size: 0x8, addend: 0x0, symName: __ZNSt3__122__compressed_pair_elemIPNS_4pairIfxEELi0ELb0EE5__getB8ne180100Ev, symObjAddr: 0xB0BC, symBinAddr: 0x10000DC54, symSize: 0x14 }
  - { offset: 0x370BF, size: 0x8, addend: 0x0, symName: __ZNSt3__16vectorINS_4pairIfxEENS_9allocatorIS2_EEE21_ConstructTransactionC1B8ne180100ERS5_m, symObjAddr: 0xB0D0, symBinAddr: 0x10000DC68, symSize: 0x3C }
  - { offset: 0x37107, size: 0x8, addend: 0x0, symName: __ZNSt3__116allocator_traitsINS_9allocatorINS_4pairIfxEEEEE9constructB8ne180100IS3_JS3_EvEEvRS4_PT_DpOT0_, symObjAddr: 0xB10C, symBinAddr: 0x10000DCA4, symSize: 0x34 }
  - { offset: 0x3715E, size: 0x8, addend: 0x0, symName: __ZNSt3__16vectorINS_4pairIfxEENS_9allocatorIS2_EEE21_ConstructTransactionD1B8ne180100Ev, symObjAddr: 0xB140, symBinAddr: 0x10000DCD8, symSize: 0x2C }
  - { offset: 0x37188, size: 0x8, addend: 0x0, symName: __ZNSt3__16vectorINS_4pairIfxEENS_9allocatorIS2_EEE21_ConstructTransactionC2B8ne180100ERS5_m, symObjAddr: 0xB16C, symBinAddr: 0x10000DD04, symSize: 0x44 }
  - { offset: 0x371D0, size: 0x8, addend: 0x0, symName: __ZNSt3__19allocatorINS_4pairIfxEEE9constructB8ne180100IS2_JS2_EEEvPT_DpOT0_, symObjAddr: 0xB1B0, symBinAddr: 0x10000DD48, symSize: 0x28 }
  - { offset: 0x37226, size: 0x8, addend: 0x0, symName: __ZNSt3__16vectorINS_4pairIfxEENS_9allocatorIS2_EEE21_ConstructTransactionD2B8ne180100Ev, symObjAddr: 0xB1D8, symBinAddr: 0x10000DD70, symSize: 0x20 }
  - { offset: 0x37250, size: 0x8, addend: 0x0, symName: __ZNKSt3__16vectorINS_4pairIfxEENS_9allocatorIS2_EEE11__recommendB8ne180100Em, symObjAddr: 0xB1F8, symBinAddr: 0x10000DD90, symSize: 0xB4 }
  - { offset: 0x372A5, size: 0x8, addend: 0x0, symName: __ZNKSt3__16vectorINS_4pairIfxEENS_9allocatorIS2_EEE4sizeB8ne180100Ev, symObjAddr: 0xB2AC, symBinAddr: 0x10000DE44, symSize: 0x28 }
  - { offset: 0x372CB, size: 0x8, addend: 0x0, symName: __ZNSt3__114__split_bufferINS_4pairIfxEERNS_9allocatorIS2_EEEC1EmmS5_, symObjAddr: 0xB2D4, symBinAddr: 0x10000DE6C, symSize: 0x44 }
  - { offset: 0x37321, size: 0x8, addend: 0x0, symName: __ZNSt3__114__split_bufferINS_4pairIfxEERNS_9allocatorIS2_EEED1Ev, symObjAddr: 0xB428, symBinAddr: 0x10000DFC0, symSize: 0x2C }
  - { offset: 0x3734D, size: 0x8, addend: 0x0, symName: __ZNKSt3__16vectorINS_4pairIfxEENS_9allocatorIS2_EEE8max_sizeEv, symObjAddr: 0xB454, symBinAddr: 0x10000DFEC, symSize: 0x60 }
  - { offset: 0x37375, size: 0x8, addend: 0x0, symName: __ZNKSt3__16vectorINS_4pairIfxEENS_9allocatorIS2_EEE20__throw_length_errorB8ne180100Ev, symObjAddr: 0xB4B4, symBinAddr: 0x10000E04C, symSize: 0x1C }
  - { offset: 0x373A5, size: 0x8, addend: 0x0, symName: __ZNSt3__116allocator_traitsINS_9allocatorINS_4pairIfxEEEEE8max_sizeB8ne180100IS4_vEEmRKS4_, symObjAddr: 0xB4FC, symBinAddr: 0x10000E094, symSize: 0x24 }
  - { offset: 0x373D3, size: 0x8, addend: 0x0, symName: __ZNKSt3__16vectorINS_4pairIfxEENS_9allocatorIS2_EEE7__allocB8ne180100Ev, symObjAddr: 0xB520, symBinAddr: 0x10000E0B8, symSize: 0x28 }
  - { offset: 0x373F9, size: 0x8, addend: 0x0, symName: __ZNKSt3__19allocatorINS_4pairIfxEEE8max_sizeB8ne180100Ev, symObjAddr: 0xB548, symBinAddr: 0x10000E0E0, symSize: 0x14 }
  - { offset: 0x3741F, size: 0x8, addend: 0x0, symName: __ZNKSt3__117__compressed_pairIPNS_4pairIfxEENS_9allocatorIS2_EEE6secondB8ne180100Ev, symObjAddr: 0xB55C, symBinAddr: 0x10000E0F4, symSize: 0x24 }
  - { offset: 0x37445, size: 0x8, addend: 0x0, symName: __ZNKSt3__122__compressed_pair_elemINS_9allocatorINS_4pairIfxEEEELi1ELb1EE5__getB8ne180100Ev, symObjAddr: 0xB580, symBinAddr: 0x10000E118, symSize: 0x14 }
  - { offset: 0x3746B, size: 0x8, addend: 0x0, symName: __ZNSt3__114__split_bufferINS_4pairIfxEERNS_9allocatorIS2_EEEC2EmmS5_, symObjAddr: 0xB5E8, symBinAddr: 0x10000E180, symSize: 0xD4 }
  - { offset: 0x374DE, size: 0x8, addend: 0x0, symName: __ZNSt3__117__compressed_pairIPNS_4pairIfxEERNS_9allocatorIS2_EEEC1B8ne180100IDnS6_EEOT_OT0_, symObjAddr: 0xB6BC, symBinAddr: 0x10000E254, symSize: 0x3C }
  - { offset: 0x37536, size: 0x8, addend: 0x0, symName: __ZNSt3__114__split_bufferINS_4pairIfxEERNS_9allocatorIS2_EEE7__allocB8ne180100Ev, symObjAddr: 0xB738, symBinAddr: 0x10000E2D0, symSize: 0x28 }
  - { offset: 0x3755C, size: 0x8, addend: 0x0, symName: __ZNSt3__114__split_bufferINS_4pairIfxEERNS_9allocatorIS2_EEE9__end_capB8ne180100Ev, symObjAddr: 0xB760, symBinAddr: 0x10000E2F8, symSize: 0x28 }
  - { offset: 0x37582, size: 0x8, addend: 0x0, symName: __ZNSt3__117__compressed_pairIPNS_4pairIfxEERNS_9allocatorIS2_EEEC2B8ne180100IDnS6_EEOT_OT0_, symObjAddr: 0xB788, symBinAddr: 0x10000E320, symSize: 0x48 }
  - { offset: 0x375DA, size: 0x8, addend: 0x0, symName: __ZNSt3__122__compressed_pair_elemIRNS_9allocatorINS_4pairIfxEEEELi1ELb0EEC2B8ne180100IS5_vEEOT_, symObjAddr: 0xB7D0, symBinAddr: 0x10000E368, symSize: 0x20 }
  - { offset: 0x3761C, size: 0x8, addend: 0x0, symName: __ZNSt3__19allocatorINS_4pairIfxEEE8allocateB8ne180100Em, symObjAddr: 0xB7F0, symBinAddr: 0x10000E388, symSize: 0x58 }
  - { offset: 0x37650, size: 0x8, addend: 0x0, symName: __ZNSt3__117__compressed_pairIPNS_4pairIfxEERNS_9allocatorIS2_EEE6secondB8ne180100Ev, symObjAddr: 0xB848, symBinAddr: 0x10000E3E0, symSize: 0x28 }
  - { offset: 0x37676, size: 0x8, addend: 0x0, symName: __ZNSt3__122__compressed_pair_elemIRNS_9allocatorINS_4pairIfxEEEELi1ELb0EE5__getB8ne180100Ev, symObjAddr: 0xB870, symBinAddr: 0x10000E408, symSize: 0x18 }
  - { offset: 0x3769C, size: 0x8, addend: 0x0, symName: __ZNSt3__117__compressed_pairIPNS_4pairIfxEERNS_9allocatorIS2_EEE5firstB8ne180100Ev, symObjAddr: 0xB888, symBinAddr: 0x10000E420, symSize: 0x24 }
  - { offset: 0x376C2, size: 0x8, addend: 0x0, symName: __ZNSt3__116reverse_iteratorIPNS_4pairIfxEEEC1B8ne180100ES3_, symObjAddr: 0xB9D8, symBinAddr: 0x10000E570, symSize: 0x34 }
  - { offset: 0x376FA, size: 0x8, addend: 0x0, symName: __ZNKSt3__116reverse_iteratorIPNS_4pairIfxEEE4baseB8ne180100Ev, symObjAddr: 0xBA0C, symBinAddr: 0x10000E5A4, symSize: 0x18 }
  - { offset: 0x37720, size: 0x8, addend: 0x0, symName: __ZNKSt3__16vectorINS_4pairIfxEENS_9allocatorIS2_EEE14__annotate_newB8ne180100Em, symObjAddr: 0xBA60, symBinAddr: 0x10000E5F8, symSize: 0x14 }
  - { offset: 0x37755, size: 0x8, addend: 0x0, symName: __ZNSt3__129_AllocatorDestroyRangeReverseINS_9allocatorINS_4pairIfxEEEENS_16reverse_iteratorIPS3_EEEC1B8ne180100ERS4_RS7_SA_, symObjAddr: 0xBAC0, symBinAddr: 0x10000E658, symSize: 0x44 }
  - { offset: 0x377AC, size: 0x8, addend: 0x0, symName: __ZNKSt3__116reverse_iteratorIPNS_4pairIfxEEEdeB8ne180100Ev, symObjAddr: 0xBB70, symBinAddr: 0x10000E708, symSize: 0x28 }
  - { offset: 0x377E0, size: 0x8, addend: 0x0, symName: __ZNSt3__116reverse_iteratorIPNS_4pairIfxEEEppB8ne180100Ev, symObjAddr: 0xBB98, symBinAddr: 0x10000E730, symSize: 0x20 }
  - { offset: 0x37806, size: 0x8, addend: 0x0, symName: __ZNSt3__128__exception_guard_exceptionsINS_29_AllocatorDestroyRangeReverseINS_9allocatorINS_4pairIfxEEEENS_16reverse_iteratorIPS4_EEEEE10__completeB8ne180100Ev, symObjAddr: 0xBBB8, symBinAddr: 0x10000E750, symSize: 0x1C }
  - { offset: 0x3782C, size: 0x8, addend: 0x0, symName: __ZNSt3__128__exception_guard_exceptionsINS_29_AllocatorDestroyRangeReverseINS_9allocatorINS_4pairIfxEEEENS_16reverse_iteratorIPS4_EEEEED1B8ne180100Ev, symObjAddr: 0xBBD4, symBinAddr: 0x10000E76C, symSize: 0x2C }
  - { offset: 0x37856, size: 0x8, addend: 0x0, symName: __ZNSt3__128__exception_guard_exceptionsINS_29_AllocatorDestroyRangeReverseINS_9allocatorINS_4pairIfxEEEENS_16reverse_iteratorIPS4_EEEEEC1B8ne180100ES9_, symObjAddr: 0xBC00, symBinAddr: 0x10000E798, symSize: 0x34 }
  - { offset: 0x3788F, size: 0x8, addend: 0x0, symName: __ZNSt3__128__exception_guard_exceptionsINS_29_AllocatorDestroyRangeReverseINS_9allocatorINS_4pairIfxEEEENS_16reverse_iteratorIPS4_EEEEEC2B8ne180100ES9_, symObjAddr: 0xBC34, symBinAddr: 0x10000E7CC, symSize: 0x30 }
  - { offset: 0x378C8, size: 0x8, addend: 0x0, symName: __ZNSt3__129_AllocatorDestroyRangeReverseINS_9allocatorINS_4pairIfxEEEENS_16reverse_iteratorIPS3_EEEC2B8ne180100ERS4_RS7_SA_, symObjAddr: 0xBC64, symBinAddr: 0x10000E7FC, symSize: 0x38 }
  - { offset: 0x37924, size: 0x8, addend: 0x0, symName: __ZNSt3__119__to_address_helperINS_16reverse_iteratorIPNS_4pairIfxEEEEvE6__callB8ne180100ERKS5_, symObjAddr: 0xBC9C, symBinAddr: 0x10000E834, symSize: 0x38 }
  - { offset: 0x37947, size: 0x8, addend: 0x0, symName: __ZNKSt3__116reverse_iteratorIPNS_4pairIfxEEEptB8ne180100Ev, symObjAddr: 0xBCD4, symBinAddr: 0x10000E86C, symSize: 0x24 }
  - { offset: 0x3796D, size: 0x8, addend: 0x0, symName: __ZNSt3__128__exception_guard_exceptionsINS_29_AllocatorDestroyRangeReverseINS_9allocatorINS_4pairIfxEEEENS_16reverse_iteratorIPS4_EEEEED2B8ne180100Ev, symObjAddr: 0xBCF8, symBinAddr: 0x10000E890, symSize: 0x50 }
  - { offset: 0x37997, size: 0x8, addend: 0x0, symName: __ZNKSt3__129_AllocatorDestroyRangeReverseINS_9allocatorINS_4pairIfxEEEENS_16reverse_iteratorIPS3_EEEclB8ne180100Ev, symObjAddr: 0xBD48, symBinAddr: 0x10000E8E0, symSize: 0xB4 }
  - { offset: 0x379BE, size: 0x8, addend: 0x0, symName: __ZNSt3__116reverse_iteratorINS0_IPNS_4pairIfxEEEEEC1B8ne180100ES4_, symObjAddr: 0xBE6C, symBinAddr: 0x10000EA04, symSize: 0x3C }
  - { offset: 0x379F6, size: 0x8, addend: 0x0, symName: __ZNSt3__116reverse_iteratorINS0_IPNS_4pairIfxEEEEEppB8ne180100Ev, symObjAddr: 0xBF2C, symBinAddr: 0x10000EAC4, symSize: 0x30 }
  - { offset: 0x37A1C, size: 0x8, addend: 0x0, symName: __ZNKSt3__116reverse_iteratorINS0_IPNS_4pairIfxEEEEE4baseB8ne180100Ev, symObjAddr: 0xBF5C, symBinAddr: 0x10000EAF4, symSize: 0x24 }
  - { offset: 0x37A47, size: 0x8, addend: 0x0, symName: __ZNSt3__119__to_address_helperINS_16reverse_iteratorINS1_IPNS_4pairIfxEEEEEEvE6__callB8ne180100ERKS6_, symObjAddr: 0xBF80, symBinAddr: 0x10000EB18, symSize: 0x38 }
  - { offset: 0x37A6A, size: 0x8, addend: 0x0, symName: __ZNKSt3__116reverse_iteratorINS0_IPNS_4pairIfxEEEEEptB8ne180100Ev, symObjAddr: 0xBFB8, symBinAddr: 0x10000EB50, symSize: 0x24 }
  - { offset: 0x37A90, size: 0x8, addend: 0x0, symName: __ZNKSt3__116reverse_iteratorINS0_IPNS_4pairIfxEEEEEdeB8ne180100Ev, symObjAddr: 0xBFDC, symBinAddr: 0x10000EB74, symSize: 0x34 }
  - { offset: 0x37AC4, size: 0x8, addend: 0x0, symName: __ZNSt3__116reverse_iteratorIPNS_4pairIfxEEEmmB8ne180100Ev, symObjAddr: 0xC010, symBinAddr: 0x10000EBA8, symSize: 0x20 }
  - { offset: 0x37AEA, size: 0x8, addend: 0x0, symName: __ZNSt3__116reverse_iteratorINS0_IPNS_4pairIfxEEEEEC2B8ne180100ES4_, symObjAddr: 0xC030, symBinAddr: 0x10000EBC8, symSize: 0x2C }
  - { offset: 0x37B22, size: 0x8, addend: 0x0, symName: __ZNSt3__116reverse_iteratorIPNS_4pairIfxEEEC2B8ne180100ES3_, symObjAddr: 0xC05C, symBinAddr: 0x10000EBF4, symSize: 0x28 }
  - { offset: 0x37B5A, size: 0x8, addend: 0x0, symName: __ZNSt3__114__split_bufferINS_4pairIfxEERNS_9allocatorIS2_EEED2Ev, symObjAddr: 0xC084, symBinAddr: 0x10000EC1C, symSize: 0x8C }
  - { offset: 0x37B86, size: 0x8, addend: 0x0, symName: __ZNSt3__114__split_bufferINS_4pairIfxEERNS_9allocatorIS2_EEE5clearB8ne180100Ev, symObjAddr: 0xC110, symBinAddr: 0x10000ECA8, symSize: 0x28 }
  - { offset: 0x37BAC, size: 0x8, addend: 0x0, symName: __ZNKSt3__114__split_bufferINS_4pairIfxEERNS_9allocatorIS2_EEE8capacityB8ne180100Ev, symObjAddr: 0xC138, symBinAddr: 0x10000ECD0, symSize: 0x40 }
  - { offset: 0x37BD2, size: 0x8, addend: 0x0, symName: __ZNSt3__114__split_bufferINS_4pairIfxEERNS_9allocatorIS2_EEE17__destruct_at_endB8ne180100EPS2_, symObjAddr: 0xC178, symBinAddr: 0x10000ED10, symSize: 0x2C }
  - { offset: 0x37C06, size: 0x8, addend: 0x0, symName: __ZNSt3__114__split_bufferINS_4pairIfxEERNS_9allocatorIS2_EEE17__destruct_at_endB8ne180100EPS2_NS_17integral_constantIbLb0EEE, symObjAddr: 0xC1A4, symBinAddr: 0x10000ED3C, symSize: 0x80 }
  - { offset: 0x37C46, size: 0x8, addend: 0x0, symName: __ZNKSt3__114__split_bufferINS_4pairIfxEERNS_9allocatorIS2_EEE9__end_capB8ne180100Ev, symObjAddr: 0xC224, symBinAddr: 0x10000EDBC, symSize: 0x28 }
  - { offset: 0x37C6C, size: 0x8, addend: 0x0, symName: __ZNKSt3__117__compressed_pairIPNS_4pairIfxEERNS_9allocatorIS2_EEE5firstB8ne180100Ev, symObjAddr: 0xC24C, symBinAddr: 0x10000EDE4, symSize: 0x24 }
  - { offset: 0x37C92, size: 0x8, addend: 0x0, symName: __ZNSt3__14pairIfxEC2B8ne180100IRfRxLi0EEEOT_OT0_, symObjAddr: 0xC270, symBinAddr: 0x10000EE08, symSize: 0x34 }
  - { offset: 0x37CF0, size: 0x8, addend: 0x0, symName: __ZNSt3__16vectorINS0_IfNS_9allocatorIfEEEENS1_IS3_EEEC2B8ne180100Ev, symObjAddr: 0xC2A4, symBinAddr: 0x10000EE3C, symSize: 0x4C }
  - { offset: 0x37D1A, size: 0x8, addend: 0x0, symName: __ZNSt3__117__compressed_pairIPNS_6vectorIfNS_9allocatorIfEEEENS2_IS4_EEEC1B8ne180100IDnNS_18__default_init_tagEEEOT_OT0_, symObjAddr: 0xC2F0, symBinAddr: 0x10000EE88, symSize: 0x3C }
  - { offset: 0x37D72, size: 0x8, addend: 0x0, symName: __ZNSt3__117__compressed_pairIPNS_6vectorIfNS_9allocatorIfEEEENS2_IS4_EEEC2B8ne180100IDnNS_18__default_init_tagEEEOT_OT0_, symObjAddr: 0xC32C, symBinAddr: 0x10000EEC4, symSize: 0x40 }
  - { offset: 0x37DCA, size: 0x8, addend: 0x0, symName: __ZNSt3__122__compressed_pair_elemINS_9allocatorINS_6vectorIfNS1_IfEEEEEELi1ELb1EEC2B8ne180100ENS_18__default_init_tagE, symObjAddr: 0xC36C, symBinAddr: 0x10000EF04, symSize: 0x2C }
  - { offset: 0x37DFE, size: 0x8, addend: 0x0, symName: __ZNSt3__19allocatorINS_6vectorIfNS0_IfEEEEEC2B8ne180100Ev, symObjAddr: 0xC398, symBinAddr: 0x10000EF30, symSize: 0x2C }
  - { offset: 0x37E28, size: 0x8, addend: 0x0, symName: __ZNSt3__116__non_trivial_ifILb1ENS_9allocatorINS_6vectorIfNS1_IfEEEEEEEC2B8ne180100Ev, symObjAddr: 0xC3C4, symBinAddr: 0x10000EF5C, symSize: 0x14 }
  - { offset: 0x37E52, size: 0x8, addend: 0x0, symName: __ZNSt3__112basic_stringIcNS_11char_traitsIcEENS_9allocatorIcEEEC2B8ne180100Ev, symObjAddr: 0xC3D8, symBinAddr: 0x10000EF70, symSize: 0x48 }
  - { offset: 0x37E82, size: 0x8, addend: 0x0, symName: __ZNSt3__117__compressed_pairINS_12basic_stringIcNS_11char_traitsIcEENS_9allocatorIcEEE5__repES5_EC1B8ne180100INS_16__value_init_tagENS_18__default_init_tagEEEOT_OT0_, symObjAddr: 0xC420, symBinAddr: 0x10000EFB8, symSize: 0x3C }
  - { offset: 0x37EDA, size: 0x8, addend: 0x0, symName: __ZNSt3__117__compressed_pairINS_12basic_stringIcNS_11char_traitsIcEENS_9allocatorIcEEE5__repES5_EC2B8ne180100INS_16__value_init_tagENS_18__default_init_tagEEEOT_OT0_, symObjAddr: 0xC45C, symBinAddr: 0x10000EFF4, symSize: 0x3C }
  - { offset: 0x37F32, size: 0x8, addend: 0x0, symName: __ZNSt3__122__compressed_pair_elemINS_12basic_stringIcNS_11char_traitsIcEENS_9allocatorIcEEE5__repELi0ELb0EEC2B8ne180100ENS_16__value_init_tagE, symObjAddr: 0xC498, symBinAddr: 0x10000F030, symSize: 0x20 }
  - { offset: 0x37F84, size: 0x8, addend: 0x0, symName: __ZNKSt3__113basic_istreamIcNS_11char_traitsIcEEE6sentrycvbB8ne180100Ev, symObjAddr: 0xC6F0, symBinAddr: 0x10000F288, symSize: 0x1C }
  - { offset: 0x37FAA, size: 0x8, addend: 0x0, symName: __ZNSt3__112basic_stringIcNS_11char_traitsIcEENS_9allocatorIcEEE5clearB8ne180100Ev, symObjAddr: 0xC70C, symBinAddr: 0x10000F2A4, symSize: 0x94 }
  - { offset: 0x37FE1, size: 0x8, addend: 0x0, symName: __ZNSt3__115basic_streambufIcNS_11char_traitsIcEEE6sbumpcB8ne180100Ev, symObjAddr: 0xC7A0, symBinAddr: 0x10000F338, symSize: 0x78 }
  - { offset: 0x38007, size: 0x8, addend: 0x0, symName: __ZNSt3__111char_traitsIcE12to_char_typeB8ne180100Ei, symObjAddr: 0xC818, symBinAddr: 0x10000F3B0, symSize: 0x18 }
  - { offset: 0x3802B, size: 0x8, addend: 0x0, symName: __ZNSt3__111char_traitsIcE2eqEcc, symObjAddr: 0xC830, symBinAddr: 0x10000F3C8, symSize: 0x28 }
  - { offset: 0x3805C, size: 0x8, addend: 0x0, symName: __ZNKSt3__112basic_stringIcNS_11char_traitsIcEENS_9allocatorIcEEE8max_sizeB8ne180100Ev, symObjAddr: 0xC858, symBinAddr: 0x10000F3F0, symSize: 0xAC }
  - { offset: 0x380AE, size: 0x8, addend: 0x0, symName: __ZNSt3__18ios_base18__setstate_nothrowB8ne180100Ej, symObjAddr: 0xC904, symBinAddr: 0x10000F49C, symSize: 0x64 }
  - { offset: 0x380E3, size: 0x8, addend: 0x0, symName: __ZNKSt3__19basic_iosIcNS_11char_traitsIcEEE10exceptionsB8ne180100Ev, symObjAddr: 0xC968, symBinAddr: 0x10000F500, symSize: 0x24 }
  - { offset: 0x38109, size: 0x8, addend: 0x0, symName: __ZNSt3__111char_traitsIcE6assignB8ne180100ERcRKc, symObjAddr: 0xC98C, symBinAddr: 0x10000F524, symSize: 0x24 }
  - { offset: 0x3813A, size: 0x8, addend: 0x0, symName: __ZNSt3__112basic_stringIcNS_11char_traitsIcEENS_9allocatorIcEEE18__get_long_pointerB8ne180100Ev, symObjAddr: 0xC9B0, symBinAddr: 0x10000F548, symSize: 0x28 }
  - { offset: 0x38160, size: 0x8, addend: 0x0, symName: __ZNSt3__112basic_stringIcNS_11char_traitsIcEENS_9allocatorIcEEE15__set_long_sizeB8ne180100Em, symObjAddr: 0xC9D8, symBinAddr: 0x10000F570, symSize: 0x38 }
  - { offset: 0x38195, size: 0x8, addend: 0x0, symName: __ZNSt3__112basic_stringIcNS_11char_traitsIcEENS_9allocatorIcEEE19__get_short_pointerB8ne180100Ev, symObjAddr: 0xCA10, symBinAddr: 0x10000F5A8, symSize: 0x28 }
  - { offset: 0x381BB, size: 0x8, addend: 0x0, symName: __ZNSt3__112basic_stringIcNS_11char_traitsIcEENS_9allocatorIcEEE16__set_short_sizeB8ne180100Em, symObjAddr: 0xCA38, symBinAddr: 0x10000F5D0, symSize: 0x78 }
  - { offset: 0x381F0, size: 0x8, addend: 0x0, symName: __ZNKSt3__112basic_stringIcNS_11char_traitsIcEENS_9allocatorIcEEE17__annotate_shrinkB8ne180100Em, symObjAddr: 0xCAB0, symBinAddr: 0x10000F648, symSize: 0x14 }
  - { offset: 0x38225, size: 0x8, addend: 0x0, symName: __ZNSt3__114pointer_traitsIPcE10pointer_toB8ne180100ERc, symObjAddr: 0xCAC4, symBinAddr: 0x10000F65C, symSize: 0x14 }
  - { offset: 0x38248, size: 0x8, addend: 0x0, symName: __ZNSt3__111char_traitsIcE11to_int_typeB8ne180100Ec, symObjAddr: 0xCAD8, symBinAddr: 0x10000F670, symSize: 0x14 }
  - { offset: 0x38276, size: 0x8, addend: 0x0, symName: __ZNSt3__116allocator_traitsINS_9allocatorIcEEE8max_sizeB8ne180100IS2_vEEmRKS2_, symObjAddr: 0xCAEC, symBinAddr: 0x10000F684, symSize: 0x24 }
  - { offset: 0x382A4, size: 0x8, addend: 0x0, symName: __ZNKSt3__112basic_stringIcNS_11char_traitsIcEENS_9allocatorIcEEE7__allocB8ne180100Ev, symObjAddr: 0xCB10, symBinAddr: 0x10000F6A8, symSize: 0x24 }
  - { offset: 0x382CA, size: 0x8, addend: 0x0, symName: __ZNSt3__114numeric_limitsImE3maxB8ne180100Ev, symObjAddr: 0xCB34, symBinAddr: 0x10000F6CC, symSize: 0x14 }
  - { offset: 0x382DE, size: 0x8, addend: 0x0, symName: __ZNKSt3__19allocatorIcE8max_sizeB8ne180100Ev, symObjAddr: 0xCB48, symBinAddr: 0x10000F6E0, symSize: 0x14 }
  - { offset: 0x38304, size: 0x8, addend: 0x0, symName: __ZNKSt3__117__compressed_pairINS_12basic_stringIcNS_11char_traitsIcEENS_9allocatorIcEEE5__repES5_E6secondB8ne180100Ev, symObjAddr: 0xCB5C, symBinAddr: 0x10000F6F4, symSize: 0x24 }
  - { offset: 0x3832A, size: 0x8, addend: 0x0, symName: __ZNKSt3__122__compressed_pair_elemINS_9allocatorIcEELi1ELb1EE5__getB8ne180100Ev, symObjAddr: 0xCB80, symBinAddr: 0x10000F718, symSize: 0x14 }
  - { offset: 0x38350, size: 0x8, addend: 0x0, symName: __ZNSt3__123__libcpp_numeric_limitsImLb1EE3maxB8ne180100Ev, symObjAddr: 0xCB94, symBinAddr: 0x10000F72C, symSize: 0x8 }
  - { offset: 0x38364, size: 0x8, addend: 0x0, symName: __ZNKSt3__18ios_base10exceptionsB8ne180100Ev, symObjAddr: 0xCB9C, symBinAddr: 0x10000F734, symSize: 0x18 }
  - { offset: 0x3838C, size: 0x8, addend: 0x0, symName: __ZNSt3__16vectorIfNS_9allocatorIfEEEC2B8ne180100Ev, symObjAddr: 0xCBB4, symBinAddr: 0x10000F74C, symSize: 0x4C }
  - { offset: 0x383B6, size: 0x8, addend: 0x0, symName: __ZNSt3__117__compressed_pairIPfNS_9allocatorIfEEEC1B8ne180100IDnNS_18__default_init_tagEEEOT_OT0_, symObjAddr: 0xCC00, symBinAddr: 0x10000F798, symSize: 0x3C }
  - { offset: 0x3840E, size: 0x8, addend: 0x0, symName: __ZNSt3__117__compressed_pairIPfNS_9allocatorIfEEEC2B8ne180100IDnNS_18__default_init_tagEEEOT_OT0_, symObjAddr: 0xCC3C, symBinAddr: 0x10000F7D4, symSize: 0x40 }
  - { offset: 0x38466, size: 0x8, addend: 0x0, symName: __ZNSt3__122__compressed_pair_elemINS_9allocatorIfEELi1ELb1EEC2B8ne180100ENS_18__default_init_tagE, symObjAddr: 0xCC7C, symBinAddr: 0x10000F814, symSize: 0x2C }
  - { offset: 0x3849A, size: 0x8, addend: 0x0, symName: __ZNSt3__19allocatorIfEC2B8ne180100Ev, symObjAddr: 0xCCA8, symBinAddr: 0x10000F840, symSize: 0x2C }
  - { offset: 0x384C4, size: 0x8, addend: 0x0, symName: __ZNSt3__116__non_trivial_ifILb1ENS_9allocatorIfEEEC2B8ne180100Ev, symObjAddr: 0xCCD4, symBinAddr: 0x10000F86C, symSize: 0x14 }
  - { offset: 0x384EE, size: 0x8, addend: 0x0, symName: __ZNSt3__19basic_iosIcNS_11char_traitsIcEEEC2B8ne180100Ev, symObjAddr: 0xCCE8, symBinAddr: 0x10000F880, symSize: 0x3C }
  - { offset: 0x38518, size: 0x8, addend: 0x0, symName: __ZNSt3__113basic_istreamIcNS_11char_traitsIcEEEC2B8ne180100EPNS_15basic_streambufIcS2_EE, symObjAddr: 0xCD24, symBinAddr: 0x10000F8BC, symSize: 0x64 }
  - { offset: 0x3855D, size: 0x8, addend: 0x0, symName: __ZNSt3__115basic_stringbufIcNS_11char_traitsIcEENS_9allocatorIcEEEC1B8ne180100ERKNS_12basic_stringIcS2_S4_EEj, symObjAddr: 0xCD88, symBinAddr: 0x10000F920, symSize: 0x3C }
  - { offset: 0x385A5, size: 0x8, addend: 0x0, symName: __ZNSt3__18ios_baseC2B8ne180100Ev, symObjAddr: 0xCDC4, symBinAddr: 0x10000F95C, symSize: 0x24 }
  - { offset: 0x385CF, size: 0x8, addend: 0x0, symName: __ZNSt3__19basic_iosIcNS_11char_traitsIcEEE4initB8ne180100EPNS_15basic_streambufIcS2_EE, symObjAddr: 0xCDE8, symBinAddr: 0x10000F980, symSize: 0x44 }
  - { offset: 0x38606, size: 0x8, addend: 0x0, symName: __ZNSt3__115basic_stringbufIcNS_11char_traitsIcEENS_9allocatorIcEEEC2B8ne180100ERKNS_12basic_stringIcS2_S4_EEj, symObjAddr: 0xCE2C, symBinAddr: 0x10000F9C4, symSize: 0xA8 }
  - { offset: 0x3864E, size: 0x8, addend: 0x0, symName: __ZNKSt3__112basic_stringIcNS_11char_traitsIcEENS_9allocatorIcEEE13get_allocatorB8ne180100Ev, symObjAddr: 0xCED4, symBinAddr: 0x10000FA6C, symSize: 0x24 }
  - { offset: 0x38674, size: 0x8, addend: 0x0, symName: __ZNSt3__112basic_stringIcNS_11char_traitsIcEENS_9allocatorIcEEEC1B8ne180100ERKS4_, symObjAddr: 0xCEF8, symBinAddr: 0x10000FA90, symSize: 0x34 }
  - { offset: 0x386AD, size: 0x8, addend: 0x0, symName: __ZNSt3__112basic_stringIcNS_11char_traitsIcEENS_9allocatorIcEEEC2B8ne180100ERKS4_, symObjAddr: 0xCF2C, symBinAddr: 0x10000FAC4, symSize: 0x4C }
  - { offset: 0x386E6, size: 0x8, addend: 0x0, symName: __ZNSt3__117__compressed_pairINS_12basic_stringIcNS_11char_traitsIcEENS_9allocatorIcEEE5__repES5_EC1B8ne180100INS_16__value_init_tagERKS5_EEOT_OT0_, symObjAddr: 0xCF78, symBinAddr: 0x10000FB10, symSize: 0x3C }
  - { offset: 0x3873E, size: 0x8, addend: 0x0, symName: __ZNSt3__117__compressed_pairINS_12basic_stringIcNS_11char_traitsIcEENS_9allocatorIcEEE5__repES5_EC2B8ne180100INS_16__value_init_tagERKS5_EEOT_OT0_, symObjAddr: 0xCFB4, symBinAddr: 0x10000FB4C, symSize: 0x40 }
  - { offset: 0x38796, size: 0x8, addend: 0x0, symName: __ZNSt3__122__compressed_pair_elemINS_9allocatorIcEELi1ELb1EEC2B8ne180100IRKS2_vEEOT_, symObjAddr: 0xCFF4, symBinAddr: 0x10000FB8C, symSize: 0x18 }
  - { offset: 0x387D8, size: 0x8, addend: 0x0, symName: __ZNSt3__16vectorIfNS_9allocatorIfEEE22__construct_one_at_endB8ne180100IJRKfEEEvDpOT_, symObjAddr: 0xD00C, symBinAddr: 0x10000FBA4, symSize: 0x90 }
  - { offset: 0x38827, size: 0x8, addend: 0x0, symName: __ZNSt3__16vectorIfNS_9allocatorIfEEE21__push_back_slow_pathIRKfEEPfOT_, symObjAddr: 0xD09C, symBinAddr: 0x10000FC34, symSize: 0xE8 }
  - { offset: 0x38885, size: 0x8, addend: 0x0, symName: __ZNSt3__116allocator_traitsINS_9allocatorIfEEE9constructB8ne180100IfJRKfEvEEvRS2_PT_DpOT0_, symObjAddr: 0xD184, symBinAddr: 0x10000FD1C, symSize: 0x34 }
  - { offset: 0x388DC, size: 0x8, addend: 0x0, symName: __ZNSt3__19allocatorIfE9constructB8ne180100IfJRKfEEEvPT_DpOT0_, symObjAddr: 0xD1B8, symBinAddr: 0x10000FD50, symSize: 0x28 }
  - { offset: 0x38932, size: 0x8, addend: 0x0, symName: __ZNKSt3__16vectorIfNS_9allocatorIfEEE11__recommendB8ne180100Em, symObjAddr: 0xD1E0, symBinAddr: 0x10000FD78, symSize: 0xB4 }
  - { offset: 0x38987, size: 0x8, addend: 0x0, symName: __ZNSt3__114__split_bufferIfRNS_9allocatorIfEEEC1EmmS3_, symObjAddr: 0xD294, symBinAddr: 0x10000FE2C, symSize: 0x44 }
  - { offset: 0x389DD, size: 0x8, addend: 0x0, symName: __ZNSt3__114__split_bufferIfRNS_9allocatorIfEEED1Ev, symObjAddr: 0xD3E8, symBinAddr: 0x10000FF80, symSize: 0x2C }
  - { offset: 0x38A09, size: 0x8, addend: 0x0, symName: __ZNSt3__114__split_bufferIfRNS_9allocatorIfEEEC2EmmS3_, symObjAddr: 0xD414, symBinAddr: 0x10000FFAC, symSize: 0xD4 }
  - { offset: 0x38A7C, size: 0x8, addend: 0x0, symName: __ZNSt3__117__compressed_pairIPfRNS_9allocatorIfEEEC1B8ne180100IDnS4_EEOT_OT0_, symObjAddr: 0xD4E8, symBinAddr: 0x100010080, symSize: 0x3C }
  - { offset: 0x38AD4, size: 0x8, addend: 0x0, symName: __ZNSt3__114__split_bufferIfRNS_9allocatorIfEEE7__allocB8ne180100Ev, symObjAddr: 0xD524, symBinAddr: 0x1000100BC, symSize: 0x28 }
  - { offset: 0x38AFA, size: 0x8, addend: 0x0, symName: __ZNSt3__114__split_bufferIfRNS_9allocatorIfEEE9__end_capB8ne180100Ev, symObjAddr: 0xD54C, symBinAddr: 0x1000100E4, symSize: 0x28 }
  - { offset: 0x38B20, size: 0x8, addend: 0x0, symName: __ZNSt3__117__compressed_pairIPfRNS_9allocatorIfEEEC2B8ne180100IDnS4_EEOT_OT0_, symObjAddr: 0xD574, symBinAddr: 0x10001010C, symSize: 0x48 }
  - { offset: 0x38B78, size: 0x8, addend: 0x0, symName: __ZNSt3__122__compressed_pair_elemIRNS_9allocatorIfEELi1ELb0EEC2B8ne180100IS3_vEEOT_, symObjAddr: 0xD5BC, symBinAddr: 0x100010154, symSize: 0x20 }
  - { offset: 0x38BBA, size: 0x8, addend: 0x0, symName: __ZNSt3__117__compressed_pairIPfRNS_9allocatorIfEEE6secondB8ne180100Ev, symObjAddr: 0xD5DC, symBinAddr: 0x100010174, symSize: 0x28 }
  - { offset: 0x38BE0, size: 0x8, addend: 0x0, symName: __ZNSt3__122__compressed_pair_elemIRNS_9allocatorIfEELi1ELb0EE5__getB8ne180100Ev, symObjAddr: 0xD604, symBinAddr: 0x10001019C, symSize: 0x18 }
  - { offset: 0x38C06, size: 0x8, addend: 0x0, symName: __ZNSt3__117__compressed_pairIPfRNS_9allocatorIfEEE5firstB8ne180100Ev, symObjAddr: 0xD61C, symBinAddr: 0x1000101B4, symSize: 0x24 }
  - { offset: 0x38C2C, size: 0x8, addend: 0x0, symName: __ZNSt3__116reverse_iteratorIPfEC1B8ne180100ES1_, symObjAddr: 0xD6B8, symBinAddr: 0x100010250, symSize: 0x34 }
  - { offset: 0x38C64, size: 0x8, addend: 0x0, symName: __ZNKSt3__116reverse_iteratorIPfE4baseB8ne180100Ev, symObjAddr: 0xD6EC, symBinAddr: 0x100010284, symSize: 0x18 }
  - { offset: 0x38CAE, size: 0x8, addend: 0x0, symName: __ZNKSt3__111__move_loopINS_17_ClassicAlgPolicyEEclB8ne180100INS_16reverse_iteratorIPfEES6_S6_EENS_4pairIT_T1_EES8_T0_S9_, symObjAddr: 0xDA30, symBinAddr: 0x1000105C8, symSize: 0xA0 }
  - { offset: 0x38D1F, size: 0x8, addend: 0x0, symName: __ZNSt3__18_IterOpsINS_17_ClassicAlgPolicyEE11__iter_moveB8ne180100IRNS_16reverse_iteratorIPfEELi0EEEDTclsr3stdE4movedeclsr3stdE7declvalIRT_EEEEOS8_, symObjAddr: 0xDC64, symBinAddr: 0x1000107FC, symSize: 0x28 }
  - { offset: 0x38D51, size: 0x8, addend: 0x0, symName: __ZNKSt3__116reverse_iteratorIPfEdeB8ne180100Ev, symObjAddr: 0xDC8C, symBinAddr: 0x100010824, symSize: 0x28 }
  - { offset: 0x38D85, size: 0x8, addend: 0x0, symName: __ZNSt3__116reverse_iteratorIPfEppB8ne180100Ev, symObjAddr: 0xDCB4, symBinAddr: 0x10001084C, symSize: 0x20 }
  - { offset: 0x38DAB, size: 0x8, addend: 0x0, symName: __ZNSt3__18_IterOpsINS_17_ClassicAlgPolicyEE25__validate_iter_referenceB8ne180100IRNS_16reverse_iteratorIPfEEEEvv, symObjAddr: 0xDCD4, symBinAddr: 0x10001086C, symSize: 0x4 }
  - { offset: 0x38DC9, size: 0x8, addend: 0x0, symName: __ZNSt3__118__unwrap_iter_implINS_16reverse_iteratorIPfEELb0EE8__unwrapB8ne180100ES3_, symObjAddr: 0xDCD8, symBinAddr: 0x100010870, symSize: 0x24 }
  - { offset: 0x38DF2, size: 0x8, addend: 0x0, symName: __ZNSt3__14pairINS_16reverse_iteratorIPfEES3_EC1B8ne180100IS3_S3_Li0EEEOT_OT0_, symObjAddr: 0xDCFC, symBinAddr: 0x100010894, symSize: 0x3C }
  - { offset: 0x38E50, size: 0x8, addend: 0x0, symName: __ZNSt3__14pairINS_16reverse_iteratorIPfEES3_EC2B8ne180100IS3_S3_Li0EEEOT_OT0_, symObjAddr: 0xDD38, symBinAddr: 0x1000108D0, symSize: 0x34 }
  - { offset: 0x38EAE, size: 0x8, addend: 0x0, symName: __ZNSt3__118__unwrap_iter_implINS_16reverse_iteratorIPfEELb0EE8__rewrapB8ne180100ES3_S3_, symObjAddr: 0xDD6C, symBinAddr: 0x100010904, symSize: 0x2C }
  - { offset: 0x38EDB, size: 0x8, addend: 0x0, symName: __ZNSt3__116reverse_iteratorIPfEC2B8ne180100ES1_, symObjAddr: 0xDD98, symBinAddr: 0x100010930, symSize: 0x28 }
  - { offset: 0x38F13, size: 0x8, addend: 0x0, symName: __ZNSt3__114__split_bufferIfRNS_9allocatorIfEEED2Ev, symObjAddr: 0xDDC0, symBinAddr: 0x100010958, symSize: 0x8C }
  - { offset: 0x38F3F, size: 0x8, addend: 0x0, symName: __ZNSt3__114__split_bufferIfRNS_9allocatorIfEEE5clearB8ne180100Ev, symObjAddr: 0xDE4C, symBinAddr: 0x1000109E4, symSize: 0x28 }
  - { offset: 0x38F65, size: 0x8, addend: 0x0, symName: __ZNKSt3__114__split_bufferIfRNS_9allocatorIfEEE8capacityB8ne180100Ev, symObjAddr: 0xDE74, symBinAddr: 0x100010A0C, symSize: 0x40 }
  - { offset: 0x38F8B, size: 0x8, addend: 0x0, symName: __ZNSt3__114__split_bufferIfRNS_9allocatorIfEEE17__destruct_at_endB8ne180100EPf, symObjAddr: 0xDEB4, symBinAddr: 0x100010A4C, symSize: 0x2C }
  - { offset: 0x38FBF, size: 0x8, addend: 0x0, symName: __ZNSt3__114__split_bufferIfRNS_9allocatorIfEEE17__destruct_at_endB8ne180100EPfNS_17integral_constantIbLb0EEE, symObjAddr: 0xDEE0, symBinAddr: 0x100010A78, symSize: 0x80 }
  - { offset: 0x38FFF, size: 0x8, addend: 0x0, symName: __ZNKSt3__114__split_bufferIfRNS_9allocatorIfEEE9__end_capB8ne180100Ev, symObjAddr: 0xDF60, symBinAddr: 0x100010AF8, symSize: 0x28 }
  - { offset: 0x39025, size: 0x8, addend: 0x0, symName: __ZNKSt3__117__compressed_pairIPfRNS_9allocatorIfEEE5firstB8ne180100Ev, symObjAddr: 0xDF88, symBinAddr: 0x100010B20, symSize: 0x24 }
  - { offset: 0x3904B, size: 0x8, addend: 0x0, symName: __ZNSt3__16vectorINS0_IfNS_9allocatorIfEEEENS1_IS3_EEE22__construct_one_at_endB8ne180100IJRKS3_EEEvDpOT_, symObjAddr: 0xDFAC, symBinAddr: 0x100010B44, symSize: 0x90 }
  - { offset: 0x3909A, size: 0x8, addend: 0x0, symName: __ZNSt3__16vectorINS0_IfNS_9allocatorIfEEEENS1_IS3_EEE21__push_back_slow_pathIRKS3_EEPS3_OT_, symObjAddr: 0xE03C, symBinAddr: 0x100010BD4, symSize: 0xE8 }
  - { offset: 0x39111, size: 0x8, addend: 0x0, symName: __ZNSt3__16vectorINS0_IfNS_9allocatorIfEEEENS1_IS3_EEE21_ConstructTransactionC1B8ne180100ERS5_m, symObjAddr: 0xE124, symBinAddr: 0x100010CBC, symSize: 0x3C }
  - { offset: 0x39159, size: 0x8, addend: 0x0, symName: __ZNSt3__116allocator_traitsINS_9allocatorINS_6vectorIfNS1_IfEEEEEEE9constructB8ne180100IS4_JRKS4_EvEEvRS5_PT_DpOT0_, symObjAddr: 0xE160, symBinAddr: 0x100010CF8, symSize: 0x34 }
  - { offset: 0x391B0, size: 0x8, addend: 0x0, symName: __ZNSt3__16vectorINS0_IfNS_9allocatorIfEEEENS1_IS3_EEE21_ConstructTransactionD1B8ne180100Ev, symObjAddr: 0xE194, symBinAddr: 0x100010D2C, symSize: 0x2C }
  - { offset: 0x391DA, size: 0x8, addend: 0x0, symName: __ZNSt3__16vectorINS0_IfNS_9allocatorIfEEEENS1_IS3_EEE21_ConstructTransactionC2B8ne180100ERS5_m, symObjAddr: 0xE1C0, symBinAddr: 0x100010D58, symSize: 0x4C }
  - { offset: 0x39222, size: 0x8, addend: 0x0, symName: __ZNSt3__19allocatorINS_6vectorIfNS0_IfEEEEE9constructB8ne180100IS3_JRKS3_EEEvPT_DpOT0_, symObjAddr: 0xE20C, symBinAddr: 0x100010DA4, symSize: 0x30 }
  - { offset: 0x39278, size: 0x8, addend: 0x0, symName: __ZNSt3__16vectorINS0_IfNS_9allocatorIfEEEENS1_IS3_EEE21_ConstructTransactionD2B8ne180100Ev, symObjAddr: 0xE23C, symBinAddr: 0x100010DD4, symSize: 0x20 }
  - { offset: 0x392A2, size: 0x8, addend: 0x0, symName: __ZNKSt3__16vectorINS0_IfNS_9allocatorIfEEEENS1_IS3_EEE11__recommendB8ne180100Em, symObjAddr: 0xE25C, symBinAddr: 0x100010DF4, symSize: 0xB4 }
  - { offset: 0x392F7, size: 0x8, addend: 0x0, symName: __ZNSt3__114__split_bufferINS_6vectorIfNS_9allocatorIfEEEERNS2_IS4_EEEC1EmmS6_, symObjAddr: 0xE310, symBinAddr: 0x100010EA8, symSize: 0x44 }
  - { offset: 0x3934D, size: 0x8, addend: 0x0, symName: __ZNSt3__114__split_bufferINS_6vectorIfNS_9allocatorIfEEEERNS2_IS4_EEED1Ev, symObjAddr: 0xE464, symBinAddr: 0x100010FFC, symSize: 0x2C }
  - { offset: 0x39379, size: 0x8, addend: 0x0, symName: __ZNKSt3__16vectorINS0_IfNS_9allocatorIfEEEENS1_IS3_EEE8max_sizeEv, symObjAddr: 0xE490, symBinAddr: 0x100011028, symSize: 0x60 }
  - { offset: 0x393A1, size: 0x8, addend: 0x0, symName: __ZNKSt3__16vectorINS0_IfNS_9allocatorIfEEEENS1_IS3_EEE20__throw_length_errorB8ne180100Ev, symObjAddr: 0xE4F0, symBinAddr: 0x100011088, symSize: 0x1C }
  - { offset: 0x393D1, size: 0x8, addend: 0x0, symName: __ZNSt3__116allocator_traitsINS_9allocatorINS_6vectorIfNS1_IfEEEEEEE8max_sizeB8ne180100IS5_vEEmRKS5_, symObjAddr: 0xE50C, symBinAddr: 0x1000110A4, symSize: 0x24 }
  - { offset: 0x393FF, size: 0x8, addend: 0x0, symName: __ZNKSt3__16vectorINS0_IfNS_9allocatorIfEEEENS1_IS3_EEE7__allocB8ne180100Ev, symObjAddr: 0xE530, symBinAddr: 0x1000110C8, symSize: 0x28 }
  - { offset: 0x39425, size: 0x8, addend: 0x0, symName: __ZNKSt3__19allocatorINS_6vectorIfNS0_IfEEEEE8max_sizeB8ne180100Ev, symObjAddr: 0xE558, symBinAddr: 0x1000110F0, symSize: 0x18 }
  - { offset: 0x3944B, size: 0x8, addend: 0x0, symName: __ZNKSt3__117__compressed_pairIPNS_6vectorIfNS_9allocatorIfEEEENS2_IS4_EEE6secondB8ne180100Ev, symObjAddr: 0xE570, symBinAddr: 0x100011108, symSize: 0x24 }
  - { offset: 0x39471, size: 0x8, addend: 0x0, symName: __ZNKSt3__122__compressed_pair_elemINS_9allocatorINS_6vectorIfNS1_IfEEEEEELi1ELb1EE5__getB8ne180100Ev, symObjAddr: 0xE594, symBinAddr: 0x10001112C, symSize: 0x14 }
  - { offset: 0x39497, size: 0x8, addend: 0x0, symName: __ZNSt3__114__split_bufferINS_6vectorIfNS_9allocatorIfEEEERNS2_IS4_EEEC2EmmS6_, symObjAddr: 0xE5A8, symBinAddr: 0x100011140, symSize: 0xE0 }
  - { offset: 0x3950A, size: 0x8, addend: 0x0, symName: __ZNSt3__117__compressed_pairIPNS_6vectorIfNS_9allocatorIfEEEERNS2_IS4_EEEC1B8ne180100IDnS7_EEOT_OT0_, symObjAddr: 0xE688, symBinAddr: 0x100011220, symSize: 0x3C }
  - { offset: 0x39562, size: 0x8, addend: 0x0, symName: __ZNSt3__114__split_bufferINS_6vectorIfNS_9allocatorIfEEEERNS2_IS4_EEE7__allocB8ne180100Ev, symObjAddr: 0xE704, symBinAddr: 0x10001129C, symSize: 0x28 }
  - { offset: 0x39588, size: 0x8, addend: 0x0, symName: __ZNSt3__114__split_bufferINS_6vectorIfNS_9allocatorIfEEEERNS2_IS4_EEE9__end_capB8ne180100Ev, symObjAddr: 0xE72C, symBinAddr: 0x1000112C4, symSize: 0x28 }
  - { offset: 0x395AE, size: 0x8, addend: 0x0, symName: __ZNSt3__117__compressed_pairIPNS_6vectorIfNS_9allocatorIfEEEERNS2_IS4_EEEC2B8ne180100IDnS7_EEOT_OT0_, symObjAddr: 0xE754, symBinAddr: 0x1000112EC, symSize: 0x48 }
  - { offset: 0x39606, size: 0x8, addend: 0x0, symName: __ZNSt3__122__compressed_pair_elemIRNS_9allocatorINS_6vectorIfNS1_IfEEEEEELi1ELb0EEC2B8ne180100IS6_vEEOT_, symObjAddr: 0xE79C, symBinAddr: 0x100011334, symSize: 0x20 }
  - { offset: 0x39648, size: 0x8, addend: 0x0, symName: __ZNSt3__19allocatorINS_6vectorIfNS0_IfEEEEE8allocateB8ne180100Em, symObjAddr: 0xE7BC, symBinAddr: 0x100011354, symSize: 0x5C }
  - { offset: 0x3967C, size: 0x8, addend: 0x0, symName: __ZNSt3__117__compressed_pairIPNS_6vectorIfNS_9allocatorIfEEEERNS2_IS4_EEE6secondB8ne180100Ev, symObjAddr: 0xE818, symBinAddr: 0x1000113B0, symSize: 0x28 }
  - { offset: 0x396A2, size: 0x8, addend: 0x0, symName: __ZNSt3__122__compressed_pair_elemIRNS_9allocatorINS_6vectorIfNS1_IfEEEEEELi1ELb0EE5__getB8ne180100Ev, symObjAddr: 0xE840, symBinAddr: 0x1000113D8, symSize: 0x18 }
  - { offset: 0x396C8, size: 0x8, addend: 0x0, symName: __ZNSt3__117__compressed_pairIPNS_6vectorIfNS_9allocatorIfEEEERNS2_IS4_EEE5firstB8ne180100Ev, symObjAddr: 0xE858, symBinAddr: 0x1000113F0, symSize: 0x24 }
  - { offset: 0x396EE, size: 0x8, addend: 0x0, symName: __ZNSt3__116reverse_iteratorIPNS_6vectorIfNS_9allocatorIfEEEEEC1B8ne180100ES5_, symObjAddr: 0xE9A8, symBinAddr: 0x100011540, symSize: 0x34 }
  - { offset: 0x39726, size: 0x8, addend: 0x0, symName: __ZNKSt3__116reverse_iteratorIPNS_6vectorIfNS_9allocatorIfEEEEE4baseB8ne180100Ev, symObjAddr: 0xE9DC, symBinAddr: 0x100011574, symSize: 0x18 }
  - { offset: 0x3974C, size: 0x8, addend: 0x0, symName: __ZNKSt3__16vectorINS0_IfNS_9allocatorIfEEEENS1_IS3_EEE14__annotate_newB8ne180100Em, symObjAddr: 0xEA30, symBinAddr: 0x1000115C8, symSize: 0x14 }
  - { offset: 0x39781, size: 0x8, addend: 0x0, symName: __ZNSt3__129_AllocatorDestroyRangeReverseINS_9allocatorINS_6vectorIfNS1_IfEEEEEENS_16reverse_iteratorIPS4_EEEC1B8ne180100ERS5_RS8_SB_, symObjAddr: 0xEA90, symBinAddr: 0x100011628, symSize: 0x44 }
  - { offset: 0x397D8, size: 0x8, addend: 0x0, symName: __ZNSt3__116allocator_traitsINS_9allocatorINS_6vectorIfNS1_IfEEEEEEE9constructB8ne180100IS4_JS4_EvEEvRS5_PT_DpOT0_, symObjAddr: 0xEB1C, symBinAddr: 0x1000116B4, symSize: 0x34 }
  - { offset: 0x3982F, size: 0x8, addend: 0x0, symName: __ZNKSt3__116reverse_iteratorIPNS_6vectorIfNS_9allocatorIfEEEEEdeB8ne180100Ev, symObjAddr: 0xEB74, symBinAddr: 0x10001170C, symSize: 0x28 }
  - { offset: 0x39863, size: 0x8, addend: 0x0, symName: __ZNSt3__116reverse_iteratorIPNS_6vectorIfNS_9allocatorIfEEEEEppB8ne180100Ev, symObjAddr: 0xEB9C, symBinAddr: 0x100011734, symSize: 0x20 }
  - { offset: 0x39889, size: 0x8, addend: 0x0, symName: __ZNSt3__128__exception_guard_exceptionsINS_29_AllocatorDestroyRangeReverseINS_9allocatorINS_6vectorIfNS2_IfEEEEEENS_16reverse_iteratorIPS5_EEEEE10__completeB8ne180100Ev, symObjAddr: 0xEBBC, symBinAddr: 0x100011754, symSize: 0x1C }
  - { offset: 0x398AF, size: 0x8, addend: 0x0, symName: __ZNSt3__128__exception_guard_exceptionsINS_29_AllocatorDestroyRangeReverseINS_9allocatorINS_6vectorIfNS2_IfEEEEEENS_16reverse_iteratorIPS5_EEEEED1B8ne180100Ev, symObjAddr: 0xEBD8, symBinAddr: 0x100011770, symSize: 0x2C }
  - { offset: 0x398D9, size: 0x8, addend: 0x0, symName: __ZNSt3__128__exception_guard_exceptionsINS_29_AllocatorDestroyRangeReverseINS_9allocatorINS_6vectorIfNS2_IfEEEEEENS_16reverse_iteratorIPS5_EEEEEC1B8ne180100ESA_, symObjAddr: 0xEC04, symBinAddr: 0x10001179C, symSize: 0x34 }
  - { offset: 0x39912, size: 0x8, addend: 0x0, symName: __ZNSt3__128__exception_guard_exceptionsINS_29_AllocatorDestroyRangeReverseINS_9allocatorINS_6vectorIfNS2_IfEEEEEENS_16reverse_iteratorIPS5_EEEEEC2B8ne180100ESA_, symObjAddr: 0xEC38, symBinAddr: 0x1000117D0, symSize: 0x30 }
  - { offset: 0x3994B, size: 0x8, addend: 0x0, symName: __ZNSt3__129_AllocatorDestroyRangeReverseINS_9allocatorINS_6vectorIfNS1_IfEEEEEENS_16reverse_iteratorIPS4_EEEC2B8ne180100ERS5_RS8_SB_, symObjAddr: 0xEC68, symBinAddr: 0x100011800, symSize: 0x38 }
  - { offset: 0x399A2, size: 0x8, addend: 0x0, symName: __ZNSt3__19allocatorINS_6vectorIfNS0_IfEEEEE9constructB8ne180100IS3_JS3_EEEvPT_DpOT0_, symObjAddr: 0xECA0, symBinAddr: 0x100011838, symSize: 0x30 }
  - { offset: 0x399F8, size: 0x8, addend: 0x0, symName: __ZNSt3__16vectorIfNS_9allocatorIfEEEC1B8ne180100EOS3_, symObjAddr: 0xECD0, symBinAddr: 0x100011868, symSize: 0x34 }
  - { offset: 0x39A33, size: 0x8, addend: 0x0, symName: __ZNSt3__16vectorIfNS_9allocatorIfEEEC2B8ne180100EOS3_, symObjAddr: 0xED04, symBinAddr: 0x10001189C, symSize: 0xC4 }
  - { offset: 0x39A73, size: 0x8, addend: 0x0, symName: __ZNSt3__119__to_address_helperINS_16reverse_iteratorIPNS_6vectorIfNS_9allocatorIfEEEEEEvE6__callB8ne180100ERKS7_, symObjAddr: 0xEDC8, symBinAddr: 0x100011960, symSize: 0x38 }
  - { offset: 0x39A96, size: 0x8, addend: 0x0, symName: __ZNKSt3__116reverse_iteratorIPNS_6vectorIfNS_9allocatorIfEEEEEptB8ne180100Ev, symObjAddr: 0xEE00, symBinAddr: 0x100011998, symSize: 0x24 }
  - { offset: 0x39ABC, size: 0x8, addend: 0x0, symName: __ZNSt3__128__exception_guard_exceptionsINS_29_AllocatorDestroyRangeReverseINS_9allocatorINS_6vectorIfNS2_IfEEEEEENS_16reverse_iteratorIPS5_EEEEED2B8ne180100Ev, symObjAddr: 0xEE24, symBinAddr: 0x1000119BC, symSize: 0x50 }
  - { offset: 0x39AE6, size: 0x8, addend: 0x0, symName: __ZNKSt3__129_AllocatorDestroyRangeReverseINS_9allocatorINS_6vectorIfNS1_IfEEEEEENS_16reverse_iteratorIPS4_EEEclB8ne180100Ev, symObjAddr: 0xEE74, symBinAddr: 0x100011A0C, symSize: 0xB4 }
  - { offset: 0x39B0D, size: 0x8, addend: 0x0, symName: __ZNSt3__116reverse_iteratorINS0_IPNS_6vectorIfNS_9allocatorIfEEEEEEEC1B8ne180100ES6_, symObjAddr: 0xEF98, symBinAddr: 0x100011B30, symSize: 0x3C }
  - { offset: 0x39B45, size: 0x8, addend: 0x0, symName: __ZNSt3__116reverse_iteratorINS0_IPNS_6vectorIfNS_9allocatorIfEEEEEEEppB8ne180100Ev, symObjAddr: 0xF058, symBinAddr: 0x100011BF0, symSize: 0x30 }
  - { offset: 0x39B6B, size: 0x8, addend: 0x0, symName: __ZNKSt3__116reverse_iteratorINS0_IPNS_6vectorIfNS_9allocatorIfEEEEEEE4baseB8ne180100Ev, symObjAddr: 0xF088, symBinAddr: 0x100011C20, symSize: 0x24 }
  - { offset: 0x39B96, size: 0x8, addend: 0x0, symName: __ZNSt3__119__to_address_helperINS_16reverse_iteratorINS1_IPNS_6vectorIfNS_9allocatorIfEEEEEEEEvE6__callB8ne180100ERKS8_, symObjAddr: 0xF0AC, symBinAddr: 0x100011C44, symSize: 0x38 }
  - { offset: 0x39BB9, size: 0x8, addend: 0x0, symName: __ZNKSt3__116reverse_iteratorINS0_IPNS_6vectorIfNS_9allocatorIfEEEEEEEptB8ne180100Ev, symObjAddr: 0xF0E4, symBinAddr: 0x100011C7C, symSize: 0x24 }
  - { offset: 0x39BDF, size: 0x8, addend: 0x0, symName: __ZNKSt3__116reverse_iteratorINS0_IPNS_6vectorIfNS_9allocatorIfEEEEEEEdeB8ne180100Ev, symObjAddr: 0xF108, symBinAddr: 0x100011CA0, symSize: 0x34 }
  - { offset: 0x39C13, size: 0x8, addend: 0x0, symName: __ZNSt3__116reverse_iteratorIPNS_6vectorIfNS_9allocatorIfEEEEEmmB8ne180100Ev, symObjAddr: 0xF13C, symBinAddr: 0x100011CD4, symSize: 0x20 }
  - { offset: 0x39C39, size: 0x8, addend: 0x0, symName: __ZNSt3__116reverse_iteratorINS0_IPNS_6vectorIfNS_9allocatorIfEEEEEEEC2B8ne180100ES6_, symObjAddr: 0xF15C, symBinAddr: 0x100011CF4, symSize: 0x2C }
  - { offset: 0x39C71, size: 0x8, addend: 0x0, symName: __ZNSt3__116reverse_iteratorIPNS_6vectorIfNS_9allocatorIfEEEEEC2B8ne180100ES5_, symObjAddr: 0xF188, symBinAddr: 0x100011D20, symSize: 0x28 }
  - { offset: 0x39CA9, size: 0x8, addend: 0x0, symName: __ZNSt3__114__split_bufferINS_6vectorIfNS_9allocatorIfEEEERNS2_IS4_EEED2Ev, symObjAddr: 0xF1B0, symBinAddr: 0x100011D48, symSize: 0x8C }
  - { offset: 0x39CD5, size: 0x8, addend: 0x0, symName: __ZNSt3__114__split_bufferINS_6vectorIfNS_9allocatorIfEEEERNS2_IS4_EEE5clearB8ne180100Ev, symObjAddr: 0xF23C, symBinAddr: 0x100011DD4, symSize: 0x28 }
  - { offset: 0x39CFB, size: 0x8, addend: 0x0, symName: __ZNKSt3__114__split_bufferINS_6vectorIfNS_9allocatorIfEEEERNS2_IS4_EEE8capacityB8ne180100Ev, symObjAddr: 0xF264, symBinAddr: 0x100011DFC, symSize: 0x40 }
  - { offset: 0x39D21, size: 0x8, addend: 0x0, symName: __ZNSt3__114__split_bufferINS_6vectorIfNS_9allocatorIfEEEERNS2_IS4_EEE17__destruct_at_endB8ne180100EPS4_, symObjAddr: 0xF2A4, symBinAddr: 0x100011E3C, symSize: 0x2C }
  - { offset: 0x39D55, size: 0x8, addend: 0x0, symName: __ZNSt3__114__split_bufferINS_6vectorIfNS_9allocatorIfEEEERNS2_IS4_EEE17__destruct_at_endB8ne180100EPS4_NS_17integral_constantIbLb0EEE, symObjAddr: 0xF2D0, symBinAddr: 0x100011E68, symSize: 0x80 }
  - { offset: 0x39D95, size: 0x8, addend: 0x0, symName: __ZNKSt3__114__split_bufferINS_6vectorIfNS_9allocatorIfEEEERNS2_IS4_EEE9__end_capB8ne180100Ev, symObjAddr: 0xF350, symBinAddr: 0x100011EE8, symSize: 0x28 }
  - { offset: 0x39DBB, size: 0x8, addend: 0x0, symName: __ZNKSt3__117__compressed_pairIPNS_6vectorIfNS_9allocatorIfEEEERNS2_IS4_EEE5firstB8ne180100Ev, symObjAddr: 0xF378, symBinAddr: 0x100011F10, symSize: 0x24 }
  - { offset: 0x39DE1, size: 0x8, addend: 0x0, symName: __ZNSt3__16vectorINS0_INS_4pairIxfEENS_9allocatorIS2_EEEENS3_IS5_EEEC2B8ne180100Ev, symObjAddr: 0xF39C, symBinAddr: 0x100011F34, symSize: 0x4C }
  - { offset: 0x39E0B, size: 0x8, addend: 0x0, symName: __ZNSt3__117__compressed_pairIPNS_6vectorINS_4pairIxfEENS_9allocatorIS3_EEEENS4_IS6_EEEC1B8ne180100IDnNS_18__default_init_tagEEEOT_OT0_, symObjAddr: 0xF3E8, symBinAddr: 0x100011F80, symSize: 0x3C }
  - { offset: 0x39E63, size: 0x8, addend: 0x0, symName: __ZNSt3__117__compressed_pairIPNS_6vectorINS_4pairIxfEENS_9allocatorIS3_EEEENS4_IS6_EEEC2B8ne180100IDnNS_18__default_init_tagEEEOT_OT0_, symObjAddr: 0xF424, symBinAddr: 0x100011FBC, symSize: 0x40 }
  - { offset: 0x39EBB, size: 0x8, addend: 0x0, symName: __ZNSt3__122__compressed_pair_elemINS_9allocatorINS_6vectorINS_4pairIxfEENS1_IS4_EEEEEELi1ELb1EEC2B8ne180100ENS_18__default_init_tagE, symObjAddr: 0xF464, symBinAddr: 0x100011FFC, symSize: 0x2C }
  - { offset: 0x39EEF, size: 0x8, addend: 0x0, symName: __ZNSt3__19allocatorINS_6vectorINS_4pairIxfEENS0_IS3_EEEEEC2B8ne180100Ev, symObjAddr: 0xF490, symBinAddr: 0x100012028, symSize: 0x2C }
  - { offset: 0x39F19, size: 0x8, addend: 0x0, symName: __ZNSt3__116__non_trivial_ifILb1ENS_9allocatorINS_6vectorINS_4pairIxfEENS1_IS4_EEEEEEEC2B8ne180100Ev, symObjAddr: 0xF4BC, symBinAddr: 0x100012054, symSize: 0x14 }
  - { offset: 0x39F43, size: 0x8, addend: 0x0, symName: __ZNKSt16initializer_listImE5beginB8ne180100Ev, symObjAddr: 0xF500, symBinAddr: 0x100012098, symSize: 0x18 }
  - { offset: 0x39F69, size: 0x8, addend: 0x0, symName: __ZNKSt16initializer_listImE3endB8ne180100Ev, symObjAddr: 0xF518, symBinAddr: 0x1000120B0, symSize: 0x20 }
  - { offset: 0x39F8F, size: 0x8, addend: 0x0, symName: __ZNSt3__16vectorINS0_INS_4pairIxfEENS_9allocatorIS2_EEEENS3_IS5_EEE8__appendEm, symObjAddr: 0xF5D4, symBinAddr: 0x10001216C, symSize: 0x108 }
  - { offset: 0x39FEA, size: 0x8, addend: 0x0, symName: __ZNSt3__16vectorINS0_INS_4pairIxfEENS_9allocatorIS2_EEEENS3_IS5_EEE17__destruct_at_endB8ne180100EPS5_, symObjAddr: 0xF6DC, symBinAddr: 0x100012274, symSize: 0x4C }
  - { offset: 0x3A02E, size: 0x8, addend: 0x0, symName: __ZNSt3__16vectorINS0_INS_4pairIxfEENS_9allocatorIS2_EEEENS3_IS5_EEE18__construct_at_endEm, symObjAddr: 0xF728, symBinAddr: 0x1000122C0, symSize: 0xC8 }
  - { offset: 0x3A0A0, size: 0x8, addend: 0x0, symName: __ZNKSt3__16vectorINS0_INS_4pairIxfEENS_9allocatorIS2_EEEENS3_IS5_EEE11__recommendB8ne180100Em, symObjAddr: 0xF7F0, symBinAddr: 0x100012388, symSize: 0xB4 }
  - { offset: 0x3A0F5, size: 0x8, addend: 0x0, symName: __ZNSt3__114__split_bufferINS_6vectorINS_4pairIxfEENS_9allocatorIS3_EEEERNS4_IS6_EEEC1EmmS8_, symObjAddr: 0xF8A4, symBinAddr: 0x10001243C, symSize: 0x44 }
  - { offset: 0x3A14B, size: 0x8, addend: 0x0, symName: __ZNSt3__114__split_bufferINS_6vectorINS_4pairIxfEENS_9allocatorIS3_EEEERNS4_IS6_EEE18__construct_at_endEm, symObjAddr: 0xF8E8, symBinAddr: 0x100012480, symSize: 0xB4 }
  - { offset: 0x3A18E, size: 0x8, addend: 0x0, symName: __ZNSt3__114__split_bufferINS_6vectorINS_4pairIxfEENS_9allocatorIS3_EEEERNS4_IS6_EEED1Ev, symObjAddr: 0xFAAC, symBinAddr: 0x100012644, symSize: 0x2C }
  - { offset: 0x3A1D3, size: 0x8, addend: 0x0, symName: __ZNSt3__16vectorINS0_INS_4pairIxfEENS_9allocatorIS2_EEEENS3_IS5_EEE21_ConstructTransactionC1B8ne180100ERS7_m, symObjAddr: 0xFAD8, symBinAddr: 0x100012670, symSize: 0x3C }
  - { offset: 0x3A21B, size: 0x8, addend: 0x0, symName: __ZNSt3__116allocator_traitsINS_9allocatorINS_6vectorINS_4pairIxfEENS1_IS4_EEEEEEE9constructB8ne180100IS6_JEvEEvRS7_PT_DpOT0_, symObjAddr: 0xFB14, symBinAddr: 0x1000126AC, symSize: 0x2C }
  - { offset: 0x3A25D, size: 0x8, addend: 0x0, symName: __ZNSt3__16vectorINS0_INS_4pairIxfEENS_9allocatorIS2_EEEENS3_IS5_EEE21_ConstructTransactionD1B8ne180100Ev, symObjAddr: 0xFB40, symBinAddr: 0x1000126D8, symSize: 0x2C }
  - { offset: 0x3A287, size: 0x8, addend: 0x0, symName: __ZNSt3__16vectorINS0_INS_4pairIxfEENS_9allocatorIS2_EEEENS3_IS5_EEE21_ConstructTransactionC2B8ne180100ERS7_m, symObjAddr: 0xFB6C, symBinAddr: 0x100012704, symSize: 0x4C }
  - { offset: 0x3A2CF, size: 0x8, addend: 0x0, symName: __ZNSt3__19allocatorINS_6vectorINS_4pairIxfEENS0_IS3_EEEEE9constructB8ne180100IS5_JEEEvPT_DpOT0_, symObjAddr: 0xFBB8, symBinAddr: 0x100012750, symSize: 0x28 }
  - { offset: 0x3A311, size: 0x8, addend: 0x0, symName: __ZNSt3__16vectorINS_4pairIxfEENS_9allocatorIS2_EEEC1B8ne180100Ev, symObjAddr: 0xFBE0, symBinAddr: 0x100012778, symSize: 0x2C }
  - { offset: 0x3A33B, size: 0x8, addend: 0x0, symName: __ZNSt3__16vectorINS_4pairIxfEENS_9allocatorIS2_EEEC2B8ne180100Ev, symObjAddr: 0xFC0C, symBinAddr: 0x1000127A4, symSize: 0x4C }
  - { offset: 0x3A365, size: 0x8, addend: 0x0, symName: __ZNSt3__117__compressed_pairIPNS_4pairIxfEENS_9allocatorIS2_EEEC1B8ne180100IDnNS_18__default_init_tagEEEOT_OT0_, symObjAddr: 0xFC58, symBinAddr: 0x1000127F0, symSize: 0x3C }
  - { offset: 0x3A3BD, size: 0x8, addend: 0x0, symName: __ZNSt3__117__compressed_pairIPNS_4pairIxfEENS_9allocatorIS2_EEEC2B8ne180100IDnNS_18__default_init_tagEEEOT_OT0_, symObjAddr: 0xFC94, symBinAddr: 0x10001282C, symSize: 0x40 }
  - { offset: 0x3A415, size: 0x8, addend: 0x0, symName: __ZNSt3__122__compressed_pair_elemIPNS_4pairIxfEELi0ELb0EEC2B8ne180100IDnvEEOT_, symObjAddr: 0xFCD4, symBinAddr: 0x10001286C, symSize: 0x1C }
  - { offset: 0x3A457, size: 0x8, addend: 0x0, symName: __ZNSt3__122__compressed_pair_elemINS_9allocatorINS_4pairIxfEEEELi1ELb1EEC2B8ne180100ENS_18__default_init_tagE, symObjAddr: 0xFCF0, symBinAddr: 0x100012888, symSize: 0x2C }
  - { offset: 0x3A48B, size: 0x8, addend: 0x0, symName: __ZNSt3__19allocatorINS_4pairIxfEEEC2B8ne180100Ev, symObjAddr: 0xFD1C, symBinAddr: 0x1000128B4, symSize: 0x2C }
  - { offset: 0x3A4B5, size: 0x8, addend: 0x0, symName: __ZNSt3__116__non_trivial_ifILb1ENS_9allocatorINS_4pairIxfEEEEEC2B8ne180100Ev, symObjAddr: 0xFD48, symBinAddr: 0x1000128E0, symSize: 0x14 }
  - { offset: 0x3A4DF, size: 0x8, addend: 0x0, symName: __ZNSt3__16vectorINS0_INS_4pairIxfEENS_9allocatorIS2_EEEENS3_IS5_EEE21_ConstructTransactionD2B8ne180100Ev, symObjAddr: 0xFD5C, symBinAddr: 0x1000128F4, symSize: 0x20 }
  - { offset: 0x3A509, size: 0x8, addend: 0x0, symName: __ZNKSt3__16vectorINS0_INS_4pairIxfEENS_9allocatorIS2_EEEENS3_IS5_EEE8max_sizeEv, symObjAddr: 0xFD7C, symBinAddr: 0x100012914, symSize: 0x60 }
  - { offset: 0x3A531, size: 0x8, addend: 0x0, symName: __ZNKSt3__16vectorINS0_INS_4pairIxfEENS_9allocatorIS2_EEEENS3_IS5_EEE20__throw_length_errorB8ne180100Ev, symObjAddr: 0xFDDC, symBinAddr: 0x100012974, symSize: 0x1C }
  - { offset: 0x3A561, size: 0x8, addend: 0x0, symName: __ZNSt3__116allocator_traitsINS_9allocatorINS_6vectorINS_4pairIxfEENS1_IS4_EEEEEEE8max_sizeB8ne180100IS7_vEEmRKS7_, symObjAddr: 0xFDF8, symBinAddr: 0x100012990, symSize: 0x24 }
  - { offset: 0x3A58F, size: 0x8, addend: 0x0, symName: __ZNKSt3__16vectorINS0_INS_4pairIxfEENS_9allocatorIS2_EEEENS3_IS5_EEE7__allocB8ne180100Ev, symObjAddr: 0xFE1C, symBinAddr: 0x1000129B4, symSize: 0x28 }
  - { offset: 0x3A5B5, size: 0x8, addend: 0x0, symName: __ZNKSt3__19allocatorINS_6vectorINS_4pairIxfEENS0_IS3_EEEEE8max_sizeB8ne180100Ev, symObjAddr: 0xFE44, symBinAddr: 0x1000129DC, symSize: 0x18 }
  - { offset: 0x3A5DB, size: 0x8, addend: 0x0, symName: __ZNKSt3__117__compressed_pairIPNS_6vectorINS_4pairIxfEENS_9allocatorIS3_EEEENS4_IS6_EEE6secondB8ne180100Ev, symObjAddr: 0xFE5C, symBinAddr: 0x1000129F4, symSize: 0x24 }
  - { offset: 0x3A601, size: 0x8, addend: 0x0, symName: __ZNKSt3__122__compressed_pair_elemINS_9allocatorINS_6vectorINS_4pairIxfEENS1_IS4_EEEEEELi1ELb1EE5__getB8ne180100Ev, symObjAddr: 0xFE80, symBinAddr: 0x100012A18, symSize: 0x14 }
  - { offset: 0x3A627, size: 0x8, addend: 0x0, symName: __ZNSt3__114__split_bufferINS_6vectorINS_4pairIxfEENS_9allocatorIS3_EEEERNS4_IS6_EEEC2EmmS8_, symObjAddr: 0xFE94, symBinAddr: 0x100012A2C, symSize: 0xE0 }
  - { offset: 0x3A69A, size: 0x8, addend: 0x0, symName: __ZNSt3__117__compressed_pairIPNS_6vectorINS_4pairIxfEENS_9allocatorIS3_EEEERNS4_IS6_EEEC1B8ne180100IDnS9_EEOT_OT0_, symObjAddr: 0xFF74, symBinAddr: 0x100012B0C, symSize: 0x3C }
  - { offset: 0x3A6F2, size: 0x8, addend: 0x0, symName: __ZNSt3__114__split_bufferINS_6vectorINS_4pairIxfEENS_9allocatorIS3_EEEERNS4_IS6_EEE7__allocB8ne180100Ev, symObjAddr: 0xFFF0, symBinAddr: 0x100012B88, symSize: 0x28 }
  - { offset: 0x3A718, size: 0x8, addend: 0x0, symName: __ZNSt3__114__split_bufferINS_6vectorINS_4pairIxfEENS_9allocatorIS3_EEEERNS4_IS6_EEE9__end_capB8ne180100Ev, symObjAddr: 0x10018, symBinAddr: 0x100012BB0, symSize: 0x28 }
  - { offset: 0x3A73E, size: 0x8, addend: 0x0, symName: __ZNSt3__117__compressed_pairIPNS_6vectorINS_4pairIxfEENS_9allocatorIS3_EEEERNS4_IS6_EEEC2B8ne180100IDnS9_EEOT_OT0_, symObjAddr: 0x10040, symBinAddr: 0x100012BD8, symSize: 0x48 }
  - { offset: 0x3A796, size: 0x8, addend: 0x0, symName: __ZNSt3__122__compressed_pair_elemIRNS_9allocatorINS_6vectorINS_4pairIxfEENS1_IS4_EEEEEELi1ELb0EEC2B8ne180100IS8_vEEOT_, symObjAddr: 0x10088, symBinAddr: 0x100012C20, symSize: 0x20 }
  - { offset: 0x3A7D8, size: 0x8, addend: 0x0, symName: __ZNSt3__19allocatorINS_6vectorINS_4pairIxfEENS0_IS3_EEEEE8allocateB8ne180100Em, symObjAddr: 0x100A8, symBinAddr: 0x100012C40, symSize: 0x5C }
  - { offset: 0x3A80C, size: 0x8, addend: 0x0, symName: __ZNSt3__117__compressed_pairIPNS_6vectorINS_4pairIxfEENS_9allocatorIS3_EEEERNS4_IS6_EEE6secondB8ne180100Ev, symObjAddr: 0x10104, symBinAddr: 0x100012C9C, symSize: 0x28 }
  - { offset: 0x3A832, size: 0x8, addend: 0x0, symName: __ZNSt3__122__compressed_pair_elemIRNS_9allocatorINS_6vectorINS_4pairIxfEENS1_IS4_EEEEEELi1ELb0EE5__getB8ne180100Ev, symObjAddr: 0x1012C, symBinAddr: 0x100012CC4, symSize: 0x18 }
  - { offset: 0x3A858, size: 0x8, addend: 0x0, symName: __ZNSt3__117__compressed_pairIPNS_6vectorINS_4pairIxfEENS_9allocatorIS3_EEEERNS4_IS6_EEE5firstB8ne180100Ev, symObjAddr: 0x10144, symBinAddr: 0x100012CDC, symSize: 0x24 }
  - { offset: 0x3A888, size: 0x8, addend: 0x0, symName: __ZNSt3__114__split_bufferINS_6vectorINS_4pairIxfEENS_9allocatorIS3_EEEERNS4_IS6_EEE21_ConstructTransactionC1B8ne180100EPPS6_m, symObjAddr: 0x10168, symBinAddr: 0x100012D00, symSize: 0x3C }
  - { offset: 0x3A8CE, size: 0x8, addend: 0x0, symName: __ZNSt3__114__split_bufferINS_6vectorINS_4pairIxfEENS_9allocatorIS3_EEEERNS4_IS6_EEE21_ConstructTransactionD1B8ne180100Ev, symObjAddr: 0x101A4, symBinAddr: 0x100012D3C, symSize: 0x2C }
  - { offset: 0x3A8F8, size: 0x8, addend: 0x0, symName: __ZNSt3__114__split_bufferINS_6vectorINS_4pairIxfEENS_9allocatorIS3_EEEERNS4_IS6_EEE21_ConstructTransactionC2B8ne180100EPPS6_m, symObjAddr: 0x101D0, symBinAddr: 0x100012D68, symSize: 0x4C }
  - { offset: 0x3A93E, size: 0x8, addend: 0x0, symName: __ZNSt3__114__split_bufferINS_6vectorINS_4pairIxfEENS_9allocatorIS3_EEEERNS4_IS6_EEE21_ConstructTransactionD2B8ne180100Ev, symObjAddr: 0x1021C, symBinAddr: 0x100012DB4, symSize: 0x20 }
  - { offset: 0x3A968, size: 0x8, addend: 0x0, symName: __ZNSt3__116reverse_iteratorIPNS_6vectorINS_4pairIxfEENS_9allocatorIS3_EEEEEC1B8ne180100ES7_, symObjAddr: 0x10368, symBinAddr: 0x100012F00, symSize: 0x34 }
  - { offset: 0x3A9A0, size: 0x8, addend: 0x0, symName: __ZNKSt3__116reverse_iteratorIPNS_6vectorINS_4pairIxfEENS_9allocatorIS3_EEEEE4baseB8ne180100Ev, symObjAddr: 0x1039C, symBinAddr: 0x100012F34, symSize: 0x18 }
  - { offset: 0x3A9C6, size: 0x8, addend: 0x0, symName: __ZNKSt3__16vectorINS0_INS_4pairIxfEENS_9allocatorIS2_EEEENS3_IS5_EEE14__annotate_newB8ne180100Em, symObjAddr: 0x103F0, symBinAddr: 0x100012F88, symSize: 0x14 }
  - { offset: 0x3A9FB, size: 0x8, addend: 0x0, symName: __ZNSt3__129_AllocatorDestroyRangeReverseINS_9allocatorINS_6vectorINS_4pairIxfEENS1_IS4_EEEEEENS_16reverse_iteratorIPS6_EEEC1B8ne180100ERS7_RSA_SD_, symObjAddr: 0x10450, symBinAddr: 0x100012FE8, symSize: 0x44 }
  - { offset: 0x3AA52, size: 0x8, addend: 0x0, symName: __ZNSt3__116allocator_traitsINS_9allocatorINS_6vectorINS_4pairIxfEENS1_IS4_EEEEEEE9constructB8ne180100IS6_JS6_EvEEvRS7_PT_DpOT0_, symObjAddr: 0x104DC, symBinAddr: 0x100013074, symSize: 0x34 }
  - { offset: 0x3AAA9, size: 0x8, addend: 0x0, symName: __ZNKSt3__116reverse_iteratorIPNS_6vectorINS_4pairIxfEENS_9allocatorIS3_EEEEEdeB8ne180100Ev, symObjAddr: 0x10534, symBinAddr: 0x1000130CC, symSize: 0x28 }
  - { offset: 0x3AADD, size: 0x8, addend: 0x0, symName: __ZNSt3__116reverse_iteratorIPNS_6vectorINS_4pairIxfEENS_9allocatorIS3_EEEEEppB8ne180100Ev, symObjAddr: 0x1055C, symBinAddr: 0x1000130F4, symSize: 0x20 }
  - { offset: 0x3AB03, size: 0x8, addend: 0x0, symName: __ZNSt3__128__exception_guard_exceptionsINS_29_AllocatorDestroyRangeReverseINS_9allocatorINS_6vectorINS_4pairIxfEENS2_IS5_EEEEEENS_16reverse_iteratorIPS7_EEEEE10__completeB8ne180100Ev, symObjAddr: 0x1057C, symBinAddr: 0x100013114, symSize: 0x1C }
  - { offset: 0x3AB29, size: 0x8, addend: 0x0, symName: __ZNSt3__128__exception_guard_exceptionsINS_29_AllocatorDestroyRangeReverseINS_9allocatorINS_6vectorINS_4pairIxfEENS2_IS5_EEEEEENS_16reverse_iteratorIPS7_EEEEED1B8ne180100Ev, symObjAddr: 0x10598, symBinAddr: 0x100013130, symSize: 0x2C }
  - { offset: 0x3AB53, size: 0x8, addend: 0x0, symName: __ZNSt3__128__exception_guard_exceptionsINS_29_AllocatorDestroyRangeReverseINS_9allocatorINS_6vectorINS_4pairIxfEENS2_IS5_EEEEEENS_16reverse_iteratorIPS7_EEEEEC1B8ne180100ESC_, symObjAddr: 0x105C4, symBinAddr: 0x10001315C, symSize: 0x34 }
  - { offset: 0x3AB8C, size: 0x8, addend: 0x0, symName: __ZNSt3__128__exception_guard_exceptionsINS_29_AllocatorDestroyRangeReverseINS_9allocatorINS_6vectorINS_4pairIxfEENS2_IS5_EEEEEENS_16reverse_iteratorIPS7_EEEEEC2B8ne180100ESC_, symObjAddr: 0x105F8, symBinAddr: 0x100013190, symSize: 0x30 }
  - { offset: 0x3ABC5, size: 0x8, addend: 0x0, symName: __ZNSt3__129_AllocatorDestroyRangeReverseINS_9allocatorINS_6vectorINS_4pairIxfEENS1_IS4_EEEEEENS_16reverse_iteratorIPS6_EEEC2B8ne180100ERS7_RSA_SD_, symObjAddr: 0x10628, symBinAddr: 0x1000131C0, symSize: 0x38 }
  - { offset: 0x3AC1C, size: 0x8, addend: 0x0, symName: __ZNSt3__19allocatorINS_6vectorINS_4pairIxfEENS0_IS3_EEEEE9constructB8ne180100IS5_JS5_EEEvPT_DpOT0_, symObjAddr: 0x10660, symBinAddr: 0x1000131F8, symSize: 0x30 }
  - { offset: 0x3AC72, size: 0x8, addend: 0x0, symName: __ZNSt3__16vectorINS_4pairIxfEENS_9allocatorIS2_EEEC1B8ne180100EOS5_, symObjAddr: 0x10690, symBinAddr: 0x100013228, symSize: 0x34 }
  - { offset: 0x3ACAD, size: 0x8, addend: 0x0, symName: __ZNSt3__16vectorINS_4pairIxfEENS_9allocatorIS2_EEEC2B8ne180100EOS5_, symObjAddr: 0x106C4, symBinAddr: 0x10001325C, symSize: 0xC4 }
  - { offset: 0x3ACEE, size: 0x8, addend: 0x0, symName: __ZNSt3__117__compressed_pairIPNS_4pairIxfEENS_9allocatorIS2_EEEC1B8ne180100IDnS5_EEOT_OT0_, symObjAddr: 0x10788, symBinAddr: 0x100013320, symSize: 0x3C }
  - { offset: 0x3AD46, size: 0x8, addend: 0x0, symName: __ZNSt3__16vectorINS_4pairIxfEENS_9allocatorIS2_EEE9__end_capB8ne180100Ev, symObjAddr: 0x107C4, symBinAddr: 0x10001335C, symSize: 0x28 }
  - { offset: 0x3AD6C, size: 0x8, addend: 0x0, symName: __ZNSt3__117__compressed_pairIPNS_4pairIxfEENS_9allocatorIS2_EEEC2B8ne180100IDnS5_EEOT_OT0_, symObjAddr: 0x107EC, symBinAddr: 0x100013384, symSize: 0x44 }
  - { offset: 0x3ADC4, size: 0x8, addend: 0x0, symName: __ZNSt3__122__compressed_pair_elemINS_9allocatorINS_4pairIxfEEEELi1ELb1EEC2B8ne180100IS4_vEEOT_, symObjAddr: 0x10830, symBinAddr: 0x1000133C8, symSize: 0x18 }
  - { offset: 0x3AE06, size: 0x8, addend: 0x0, symName: __ZNSt3__117__compressed_pairIPNS_4pairIxfEENS_9allocatorIS2_EEE5firstB8ne180100Ev, symObjAddr: 0x10848, symBinAddr: 0x1000133E0, symSize: 0x24 }
  - { offset: 0x3AE2C, size: 0x8, addend: 0x0, symName: __ZNSt3__122__compressed_pair_elemIPNS_4pairIxfEELi0ELb0EE5__getB8ne180100Ev, symObjAddr: 0x1086C, symBinAddr: 0x100013404, symSize: 0x14 }
  - { offset: 0x3AE57, size: 0x8, addend: 0x0, symName: __ZNSt3__119__to_address_helperINS_16reverse_iteratorIPNS_6vectorINS_4pairIxfEENS_9allocatorIS4_EEEEEEvE6__callB8ne180100ERKS9_, symObjAddr: 0x10880, symBinAddr: 0x100013418, symSize: 0x38 }
  - { offset: 0x3AE7A, size: 0x8, addend: 0x0, symName: __ZNKSt3__116reverse_iteratorIPNS_6vectorINS_4pairIxfEENS_9allocatorIS3_EEEEEptB8ne180100Ev, symObjAddr: 0x108B8, symBinAddr: 0x100013450, symSize: 0x24 }
  - { offset: 0x3AEA0, size: 0x8, addend: 0x0, symName: __ZNSt3__128__exception_guard_exceptionsINS_29_AllocatorDestroyRangeReverseINS_9allocatorINS_6vectorINS_4pairIxfEENS2_IS5_EEEEEENS_16reverse_iteratorIPS7_EEEEED2B8ne180100Ev, symObjAddr: 0x108DC, symBinAddr: 0x100013474, symSize: 0x50 }
  - { offset: 0x3AECA, size: 0x8, addend: 0x0, symName: __ZNKSt3__129_AllocatorDestroyRangeReverseINS_9allocatorINS_6vectorINS_4pairIxfEENS1_IS4_EEEEEENS_16reverse_iteratorIPS6_EEEclB8ne180100Ev, symObjAddr: 0x1092C, symBinAddr: 0x1000134C4, symSize: 0xB4 }
  - { offset: 0x3AEF1, size: 0x8, addend: 0x0, symName: __ZNSt3__116reverse_iteratorINS0_IPNS_6vectorINS_4pairIxfEENS_9allocatorIS3_EEEEEEEC1B8ne180100ES8_, symObjAddr: 0x10A50, symBinAddr: 0x1000135E8, symSize: 0x3C }
  - { offset: 0x3AF29, size: 0x8, addend: 0x0, symName: __ZNSt3__116reverse_iteratorINS0_IPNS_6vectorINS_4pairIxfEENS_9allocatorIS3_EEEEEEEppB8ne180100Ev, symObjAddr: 0x10B10, symBinAddr: 0x1000136A8, symSize: 0x30 }
  - { offset: 0x3AF4F, size: 0x8, addend: 0x0, symName: __ZNKSt3__116reverse_iteratorINS0_IPNS_6vectorINS_4pairIxfEENS_9allocatorIS3_EEEEEEE4baseB8ne180100Ev, symObjAddr: 0x10B40, symBinAddr: 0x1000136D8, symSize: 0x24 }
  - { offset: 0x3AF7A, size: 0x8, addend: 0x0, symName: __ZNSt3__119__to_address_helperINS_16reverse_iteratorINS1_IPNS_6vectorINS_4pairIxfEENS_9allocatorIS4_EEEEEEEEvE6__callB8ne180100ERKSA_, symObjAddr: 0x10B64, symBinAddr: 0x1000136FC, symSize: 0x38 }
  - { offset: 0x3AF9D, size: 0x8, addend: 0x0, symName: __ZNKSt3__116reverse_iteratorINS0_IPNS_6vectorINS_4pairIxfEENS_9allocatorIS3_EEEEEEEptB8ne180100Ev, symObjAddr: 0x10B9C, symBinAddr: 0x100013734, symSize: 0x24 }
  - { offset: 0x3AFC3, size: 0x8, addend: 0x0, symName: __ZNKSt3__116reverse_iteratorINS0_IPNS_6vectorINS_4pairIxfEENS_9allocatorIS3_EEEEEEEdeB8ne180100Ev, symObjAddr: 0x10BC0, symBinAddr: 0x100013758, symSize: 0x34 }
  - { offset: 0x3AFF7, size: 0x8, addend: 0x0, symName: __ZNSt3__116reverse_iteratorIPNS_6vectorINS_4pairIxfEENS_9allocatorIS3_EEEEEmmB8ne180100Ev, symObjAddr: 0x10BF4, symBinAddr: 0x10001378C, symSize: 0x20 }
  - { offset: 0x3B01D, size: 0x8, addend: 0x0, symName: __ZNSt3__116reverse_iteratorINS0_IPNS_6vectorINS_4pairIxfEENS_9allocatorIS3_EEEEEEEC2B8ne180100ES8_, symObjAddr: 0x10C14, symBinAddr: 0x1000137AC, symSize: 0x2C }
  - { offset: 0x3B055, size: 0x8, addend: 0x0, symName: __ZNSt3__116reverse_iteratorIPNS_6vectorINS_4pairIxfEENS_9allocatorIS3_EEEEEC2B8ne180100ES7_, symObjAddr: 0x10C40, symBinAddr: 0x1000137D8, symSize: 0x28 }
  - { offset: 0x3B08D, size: 0x8, addend: 0x0, symName: __ZNSt3__114__split_bufferINS_6vectorINS_4pairIxfEENS_9allocatorIS3_EEEERNS4_IS6_EEED2Ev, symObjAddr: 0x10C68, symBinAddr: 0x100013800, symSize: 0x8C }
  - { offset: 0x3B0B9, size: 0x8, addend: 0x0, symName: __ZNSt3__114__split_bufferINS_6vectorINS_4pairIxfEENS_9allocatorIS3_EEEERNS4_IS6_EEE5clearB8ne180100Ev, symObjAddr: 0x10CF4, symBinAddr: 0x10001388C, symSize: 0x28 }
  - { offset: 0x3B0DF, size: 0x8, addend: 0x0, symName: __ZNKSt3__114__split_bufferINS_6vectorINS_4pairIxfEENS_9allocatorIS3_EEEERNS4_IS6_EEE8capacityB8ne180100Ev, symObjAddr: 0x10D1C, symBinAddr: 0x1000138B4, symSize: 0x40 }
  - { offset: 0x3B105, size: 0x8, addend: 0x0, symName: __ZNSt3__114__split_bufferINS_6vectorINS_4pairIxfEENS_9allocatorIS3_EEEERNS4_IS6_EEE17__destruct_at_endB8ne180100EPS6_, symObjAddr: 0x10D5C, symBinAddr: 0x1000138F4, symSize: 0x2C }
  - { offset: 0x3B139, size: 0x8, addend: 0x0, symName: __ZNSt3__114__split_bufferINS_6vectorINS_4pairIxfEENS_9allocatorIS3_EEEERNS4_IS6_EEE17__destruct_at_endB8ne180100EPS6_NS_17integral_constantIbLb0EEE, symObjAddr: 0x10D88, symBinAddr: 0x100013920, symSize: 0x80 }
  - { offset: 0x3B179, size: 0x8, addend: 0x0, symName: __ZNKSt3__114__split_bufferINS_6vectorINS_4pairIxfEENS_9allocatorIS3_EEEERNS4_IS6_EEE9__end_capB8ne180100Ev, symObjAddr: 0x10E08, symBinAddr: 0x1000139A0, symSize: 0x28 }
  - { offset: 0x3B19F, size: 0x8, addend: 0x0, symName: __ZNKSt3__117__compressed_pairIPNS_6vectorINS_4pairIxfEENS_9allocatorIS3_EEEERNS4_IS6_EEE5firstB8ne180100Ev, symObjAddr: 0x10E30, symBinAddr: 0x1000139C8, symSize: 0x24 }
  - { offset: 0x3B1C5, size: 0x8, addend: 0x0, symName: __ZNKSt3__16vectorINS0_INS_4pairIxfEENS_9allocatorIS2_EEEENS3_IS5_EEE17__annotate_shrinkB8ne180100Em, symObjAddr: 0x10E54, symBinAddr: 0x1000139EC, symSize: 0x14 }
  - { offset: 0x3B1FA, size: 0x8, addend: 0x0, symName: __ZNSt3__16vectorINS_4pairIxfEENS_9allocatorIS2_EEE22__construct_one_at_endB8ne180100IJS2_EEEvDpOT_, symObjAddr: 0x10E68, symBinAddr: 0x100013A00, symSize: 0x90 }
  - { offset: 0x3B249, size: 0x8, addend: 0x0, symName: __ZNSt3__16vectorINS_4pairIxfEENS_9allocatorIS2_EEE21__push_back_slow_pathIS2_EEPS2_OT_, symObjAddr: 0x10EF8, symBinAddr: 0x100013A90, symSize: 0xE8 }
  - { offset: 0x3B2C0, size: 0x8, addend: 0x0, symName: __ZNSt3__16vectorINS_4pairIxfEENS_9allocatorIS2_EEE21_ConstructTransactionC1B8ne180100ERS5_m, symObjAddr: 0x10FE0, symBinAddr: 0x100013B78, symSize: 0x3C }
  - { offset: 0x3B308, size: 0x8, addend: 0x0, symName: __ZNSt3__116allocator_traitsINS_9allocatorINS_4pairIxfEEEEE9constructB8ne180100IS3_JS3_EvEEvRS4_PT_DpOT0_, symObjAddr: 0x1101C, symBinAddr: 0x100013BB4, symSize: 0x34 }
  - { offset: 0x3B35F, size: 0x8, addend: 0x0, symName: __ZNSt3__16vectorINS_4pairIxfEENS_9allocatorIS2_EEE21_ConstructTransactionD1B8ne180100Ev, symObjAddr: 0x11050, symBinAddr: 0x100013BE8, symSize: 0x2C }
  - { offset: 0x3B389, size: 0x8, addend: 0x0, symName: __ZNSt3__16vectorINS_4pairIxfEENS_9allocatorIS2_EEE21_ConstructTransactionC2B8ne180100ERS5_m, symObjAddr: 0x1107C, symBinAddr: 0x100013C14, symSize: 0x44 }
  - { offset: 0x3B3D1, size: 0x8, addend: 0x0, symName: __ZNSt3__19allocatorINS_4pairIxfEEE9constructB8ne180100IS2_JS2_EEEvPT_DpOT0_, symObjAddr: 0x110C0, symBinAddr: 0x100013C58, symSize: 0x28 }
  - { offset: 0x3B427, size: 0x8, addend: 0x0, symName: __ZNSt3__16vectorINS_4pairIxfEENS_9allocatorIS2_EEE21_ConstructTransactionD2B8ne180100Ev, symObjAddr: 0x110E8, symBinAddr: 0x100013C80, symSize: 0x20 }
  - { offset: 0x3B451, size: 0x8, addend: 0x0, symName: __ZNKSt3__16vectorINS_4pairIxfEENS_9allocatorIS2_EEE11__recommendB8ne180100Em, symObjAddr: 0x11108, symBinAddr: 0x100013CA0, symSize: 0xB4 }
  - { offset: 0x3B4A6, size: 0x8, addend: 0x0, symName: __ZNKSt3__16vectorINS_4pairIxfEENS_9allocatorIS2_EEE4sizeB8ne180100Ev, symObjAddr: 0x111BC, symBinAddr: 0x100013D54, symSize: 0x28 }
  - { offset: 0x3B4CC, size: 0x8, addend: 0x0, symName: __ZNSt3__114__split_bufferINS_4pairIxfEERNS_9allocatorIS2_EEEC1EmmS5_, symObjAddr: 0x111E4, symBinAddr: 0x100013D7C, symSize: 0x44 }
  - { offset: 0x3B522, size: 0x8, addend: 0x0, symName: __ZNSt3__114__split_bufferINS_4pairIxfEERNS_9allocatorIS2_EEED1Ev, symObjAddr: 0x11338, symBinAddr: 0x100013ED0, symSize: 0x2C }
  - { offset: 0x3B54E, size: 0x8, addend: 0x0, symName: __ZNKSt3__16vectorINS_4pairIxfEENS_9allocatorIS2_EEE8max_sizeEv, symObjAddr: 0x11364, symBinAddr: 0x100013EFC, symSize: 0x60 }
  - { offset: 0x3B576, size: 0x8, addend: 0x0, symName: __ZNKSt3__16vectorINS_4pairIxfEENS_9allocatorIS2_EEE20__throw_length_errorB8ne180100Ev, symObjAddr: 0x113C4, symBinAddr: 0x100013F5C, symSize: 0x1C }
  - { offset: 0x3B5A6, size: 0x8, addend: 0x0, symName: __ZNSt3__116allocator_traitsINS_9allocatorINS_4pairIxfEEEEE8max_sizeB8ne180100IS4_vEEmRKS4_, symObjAddr: 0x113E0, symBinAddr: 0x100013F78, symSize: 0x24 }
  - { offset: 0x3B5D4, size: 0x8, addend: 0x0, symName: __ZNKSt3__16vectorINS_4pairIxfEENS_9allocatorIS2_EEE7__allocB8ne180100Ev, symObjAddr: 0x11404, symBinAddr: 0x100013F9C, symSize: 0x28 }
  - { offset: 0x3B5FA, size: 0x8, addend: 0x0, symName: __ZNKSt3__19allocatorINS_4pairIxfEEE8max_sizeB8ne180100Ev, symObjAddr: 0x1142C, symBinAddr: 0x100013FC4, symSize: 0x14 }
  - { offset: 0x3B620, size: 0x8, addend: 0x0, symName: __ZNKSt3__117__compressed_pairIPNS_4pairIxfEENS_9allocatorIS2_EEE6secondB8ne180100Ev, symObjAddr: 0x11440, symBinAddr: 0x100013FD8, symSize: 0x24 }
  - { offset: 0x3B646, size: 0x8, addend: 0x0, symName: __ZNKSt3__122__compressed_pair_elemINS_9allocatorINS_4pairIxfEEEELi1ELb1EE5__getB8ne180100Ev, symObjAddr: 0x11464, symBinAddr: 0x100013FFC, symSize: 0x14 }
  - { offset: 0x3B66C, size: 0x8, addend: 0x0, symName: __ZNSt3__114__split_bufferINS_4pairIxfEERNS_9allocatorIS2_EEEC2EmmS5_, symObjAddr: 0x11478, symBinAddr: 0x100014010, symSize: 0xD4 }
  - { offset: 0x3B6DF, size: 0x8, addend: 0x0, symName: __ZNSt3__117__compressed_pairIPNS_4pairIxfEERNS_9allocatorIS2_EEEC1B8ne180100IDnS6_EEOT_OT0_, symObjAddr: 0x1154C, symBinAddr: 0x1000140E4, symSize: 0x3C }
  - { offset: 0x3B737, size: 0x8, addend: 0x0, symName: __ZNSt3__114__split_bufferINS_4pairIxfEERNS_9allocatorIS2_EEE7__allocB8ne180100Ev, symObjAddr: 0x115C8, symBinAddr: 0x100014160, symSize: 0x28 }
  - { offset: 0x3B75D, size: 0x8, addend: 0x0, symName: __ZNSt3__114__split_bufferINS_4pairIxfEERNS_9allocatorIS2_EEE9__end_capB8ne180100Ev, symObjAddr: 0x115F0, symBinAddr: 0x100014188, symSize: 0x28 }
  - { offset: 0x3B783, size: 0x8, addend: 0x0, symName: __ZNSt3__117__compressed_pairIPNS_4pairIxfEERNS_9allocatorIS2_EEEC2B8ne180100IDnS6_EEOT_OT0_, symObjAddr: 0x11618, symBinAddr: 0x1000141B0, symSize: 0x48 }
  - { offset: 0x3B7DB, size: 0x8, addend: 0x0, symName: __ZNSt3__122__compressed_pair_elemIRNS_9allocatorINS_4pairIxfEEEELi1ELb0EEC2B8ne180100IS5_vEEOT_, symObjAddr: 0x11660, symBinAddr: 0x1000141F8, symSize: 0x20 }
  - { offset: 0x3B81D, size: 0x8, addend: 0x0, symName: __ZNSt3__19allocatorINS_4pairIxfEEE8allocateB8ne180100Em, symObjAddr: 0x11680, symBinAddr: 0x100014218, symSize: 0x58 }
  - { offset: 0x3B851, size: 0x8, addend: 0x0, symName: __ZNSt3__117__compressed_pairIPNS_4pairIxfEERNS_9allocatorIS2_EEE6secondB8ne180100Ev, symObjAddr: 0x116D8, symBinAddr: 0x100014270, symSize: 0x28 }
  - { offset: 0x3B877, size: 0x8, addend: 0x0, symName: __ZNSt3__122__compressed_pair_elemIRNS_9allocatorINS_4pairIxfEEEELi1ELb0EE5__getB8ne180100Ev, symObjAddr: 0x11700, symBinAddr: 0x100014298, symSize: 0x18 }
  - { offset: 0x3B89D, size: 0x8, addend: 0x0, symName: __ZNSt3__117__compressed_pairIPNS_4pairIxfEERNS_9allocatorIS2_EEE5firstB8ne180100Ev, symObjAddr: 0x11718, symBinAddr: 0x1000142B0, symSize: 0x24 }
  - { offset: 0x3B8C3, size: 0x8, addend: 0x0, symName: __ZNSt3__116reverse_iteratorIPNS_4pairIxfEEEC1B8ne180100ES3_, symObjAddr: 0x11868, symBinAddr: 0x100014400, symSize: 0x34 }
  - { offset: 0x3B8FB, size: 0x8, addend: 0x0, symName: __ZNKSt3__116reverse_iteratorIPNS_4pairIxfEEE4baseB8ne180100Ev, symObjAddr: 0x1189C, symBinAddr: 0x100014434, symSize: 0x18 }
  - { offset: 0x3B921, size: 0x8, addend: 0x0, symName: __ZNKSt3__16vectorINS_4pairIxfEENS_9allocatorIS2_EEE14__annotate_newB8ne180100Em, symObjAddr: 0x118F0, symBinAddr: 0x100014488, symSize: 0x14 }
  - { offset: 0x3B956, size: 0x8, addend: 0x0, symName: __ZNSt3__129_AllocatorDestroyRangeReverseINS_9allocatorINS_4pairIxfEEEENS_16reverse_iteratorIPS3_EEEC1B8ne180100ERS4_RS7_SA_, symObjAddr: 0x11950, symBinAddr: 0x1000144E8, symSize: 0x44 }
  - { offset: 0x3B9AD, size: 0x8, addend: 0x0, symName: __ZNKSt3__116reverse_iteratorIPNS_4pairIxfEEEdeB8ne180100Ev, symObjAddr: 0x11A00, symBinAddr: 0x100014598, symSize: 0x28 }
  - { offset: 0x3B9E1, size: 0x8, addend: 0x0, symName: __ZNSt3__116reverse_iteratorIPNS_4pairIxfEEEppB8ne180100Ev, symObjAddr: 0x11A28, symBinAddr: 0x1000145C0, symSize: 0x20 }
  - { offset: 0x3BA07, size: 0x8, addend: 0x0, symName: __ZNSt3__128__exception_guard_exceptionsINS_29_AllocatorDestroyRangeReverseINS_9allocatorINS_4pairIxfEEEENS_16reverse_iteratorIPS4_EEEEE10__completeB8ne180100Ev, symObjAddr: 0x11A48, symBinAddr: 0x1000145E0, symSize: 0x1C }
  - { offset: 0x3BA2D, size: 0x8, addend: 0x0, symName: __ZNSt3__128__exception_guard_exceptionsINS_29_AllocatorDestroyRangeReverseINS_9allocatorINS_4pairIxfEEEENS_16reverse_iteratorIPS4_EEEEED1B8ne180100Ev, symObjAddr: 0x11A64, symBinAddr: 0x1000145FC, symSize: 0x2C }
  - { offset: 0x3BA57, size: 0x8, addend: 0x0, symName: __ZNSt3__128__exception_guard_exceptionsINS_29_AllocatorDestroyRangeReverseINS_9allocatorINS_4pairIxfEEEENS_16reverse_iteratorIPS4_EEEEEC1B8ne180100ES9_, symObjAddr: 0x11A90, symBinAddr: 0x100014628, symSize: 0x34 }
  - { offset: 0x3BA90, size: 0x8, addend: 0x0, symName: __ZNSt3__128__exception_guard_exceptionsINS_29_AllocatorDestroyRangeReverseINS_9allocatorINS_4pairIxfEEEENS_16reverse_iteratorIPS4_EEEEEC2B8ne180100ES9_, symObjAddr: 0x11AC4, symBinAddr: 0x10001465C, symSize: 0x30 }
  - { offset: 0x3BAC9, size: 0x8, addend: 0x0, symName: __ZNSt3__129_AllocatorDestroyRangeReverseINS_9allocatorINS_4pairIxfEEEENS_16reverse_iteratorIPS3_EEEC2B8ne180100ERS4_RS7_SA_, symObjAddr: 0x11AF4, symBinAddr: 0x10001468C, symSize: 0x38 }
  - { offset: 0x3BB25, size: 0x8, addend: 0x0, symName: __ZNSt3__119__to_address_helperINS_16reverse_iteratorIPNS_4pairIxfEEEEvE6__callB8ne180100ERKS5_, symObjAddr: 0x11B2C, symBinAddr: 0x1000146C4, symSize: 0x38 }
  - { offset: 0x3BB48, size: 0x8, addend: 0x0, symName: __ZNKSt3__116reverse_iteratorIPNS_4pairIxfEEEptB8ne180100Ev, symObjAddr: 0x11B64, symBinAddr: 0x1000146FC, symSize: 0x24 }
  - { offset: 0x3BB6E, size: 0x8, addend: 0x0, symName: __ZNSt3__128__exception_guard_exceptionsINS_29_AllocatorDestroyRangeReverseINS_9allocatorINS_4pairIxfEEEENS_16reverse_iteratorIPS4_EEEEED2B8ne180100Ev, symObjAddr: 0x11B88, symBinAddr: 0x100014720, symSize: 0x50 }
  - { offset: 0x3BB98, size: 0x8, addend: 0x0, symName: __ZNKSt3__129_AllocatorDestroyRangeReverseINS_9allocatorINS_4pairIxfEEEENS_16reverse_iteratorIPS3_EEEclB8ne180100Ev, symObjAddr: 0x11BD8, symBinAddr: 0x100014770, symSize: 0xB4 }
  - { offset: 0x3BBBF, size: 0x8, addend: 0x0, symName: __ZNSt3__116reverse_iteratorINS0_IPNS_4pairIxfEEEEEC1B8ne180100ES4_, symObjAddr: 0x11CFC, symBinAddr: 0x100014894, symSize: 0x3C }
  - { offset: 0x3BBF7, size: 0x8, addend: 0x0, symName: __ZNSt3__116reverse_iteratorINS0_IPNS_4pairIxfEEEEEppB8ne180100Ev, symObjAddr: 0x11DBC, symBinAddr: 0x100014954, symSize: 0x30 }
  - { offset: 0x3BC1D, size: 0x8, addend: 0x0, symName: __ZNKSt3__116reverse_iteratorINS0_IPNS_4pairIxfEEEEE4baseB8ne180100Ev, symObjAddr: 0x11DEC, symBinAddr: 0x100014984, symSize: 0x24 }
  - { offset: 0x3BC48, size: 0x8, addend: 0x0, symName: __ZNSt3__119__to_address_helperINS_16reverse_iteratorINS1_IPNS_4pairIxfEEEEEEvE6__callB8ne180100ERKS6_, symObjAddr: 0x11E10, symBinAddr: 0x1000149A8, symSize: 0x38 }
  - { offset: 0x3BC6B, size: 0x8, addend: 0x0, symName: __ZNKSt3__116reverse_iteratorINS0_IPNS_4pairIxfEEEEEptB8ne180100Ev, symObjAddr: 0x11E48, symBinAddr: 0x1000149E0, symSize: 0x24 }
  - { offset: 0x3BC91, size: 0x8, addend: 0x0, symName: __ZNKSt3__116reverse_iteratorINS0_IPNS_4pairIxfEEEEEdeB8ne180100Ev, symObjAddr: 0x11E6C, symBinAddr: 0x100014A04, symSize: 0x34 }
  - { offset: 0x3BCC5, size: 0x8, addend: 0x0, symName: __ZNSt3__116reverse_iteratorIPNS_4pairIxfEEEmmB8ne180100Ev, symObjAddr: 0x11EA0, symBinAddr: 0x100014A38, symSize: 0x20 }
  - { offset: 0x3BCEB, size: 0x8, addend: 0x0, symName: __ZNSt3__116reverse_iteratorINS0_IPNS_4pairIxfEEEEEC2B8ne180100ES4_, symObjAddr: 0x11EC0, symBinAddr: 0x100014A58, symSize: 0x2C }
  - { offset: 0x3BD23, size: 0x8, addend: 0x0, symName: __ZNSt3__116reverse_iteratorIPNS_4pairIxfEEEC2B8ne180100ES3_, symObjAddr: 0x11EEC, symBinAddr: 0x100014A84, symSize: 0x28 }
  - { offset: 0x3BD5B, size: 0x8, addend: 0x0, symName: __ZNSt3__114__split_bufferINS_4pairIxfEERNS_9allocatorIS2_EEED2Ev, symObjAddr: 0x11F14, symBinAddr: 0x100014AAC, symSize: 0x8C }
  - { offset: 0x3BD87, size: 0x8, addend: 0x0, symName: __ZNSt3__114__split_bufferINS_4pairIxfEERNS_9allocatorIS2_EEE5clearB8ne180100Ev, symObjAddr: 0x11FA0, symBinAddr: 0x100014B38, symSize: 0x28 }
  - { offset: 0x3BDAD, size: 0x8, addend: 0x0, symName: __ZNKSt3__114__split_bufferINS_4pairIxfEERNS_9allocatorIS2_EEE8capacityB8ne180100Ev, symObjAddr: 0x11FC8, symBinAddr: 0x100014B60, symSize: 0x40 }
  - { offset: 0x3BDD3, size: 0x8, addend: 0x0, symName: __ZNSt3__114__split_bufferINS_4pairIxfEERNS_9allocatorIS2_EEE17__destruct_at_endB8ne180100EPS2_, symObjAddr: 0x12008, symBinAddr: 0x100014BA0, symSize: 0x2C }
  - { offset: 0x3BE07, size: 0x8, addend: 0x0, symName: __ZNSt3__114__split_bufferINS_4pairIxfEERNS_9allocatorIS2_EEE17__destruct_at_endB8ne180100EPS2_NS_17integral_constantIbLb0EEE, symObjAddr: 0x12034, symBinAddr: 0x100014BCC, symSize: 0x80 }
  - { offset: 0x3BE47, size: 0x8, addend: 0x0, symName: __ZNKSt3__114__split_bufferINS_4pairIxfEERNS_9allocatorIS2_EEE9__end_capB8ne180100Ev, symObjAddr: 0x120B4, symBinAddr: 0x100014C4C, symSize: 0x28 }
  - { offset: 0x3BE6D, size: 0x8, addend: 0x0, symName: __ZNKSt3__117__compressed_pairIPNS_4pairIxfEERNS_9allocatorIS2_EEE5firstB8ne180100Ev, symObjAddr: 0x120DC, symBinAddr: 0x100014C74, symSize: 0x24 }
  - { offset: 0x3BE93, size: 0x8, addend: 0x0, symName: __ZNSt3__14pairIxfEC2B8ne180100IRmRfLi0EEEOT_OT0_, symObjAddr: 0x12100, symBinAddr: 0x100014C98, symSize: 0x34 }
  - { offset: 0x3BEF1, size: 0x8, addend: 0x0, symName: __ZNSt3__16vectorINS_4pairIxfEENS_9allocatorIS2_EEE11__make_iterB8ne180100EPS2_, symObjAddr: 0x12134, symBinAddr: 0x100014CCC, symSize: 0x30 }
  - { offset: 0x3BF26, size: 0x8, addend: 0x0, symName: __ZNSt3__111__wrap_iterIPNS_4pairIxfEEEC1B8ne180100ES3_, symObjAddr: 0x12164, symBinAddr: 0x100014CFC, symSize: 0x34 }
  - { offset: 0x3BF5E, size: 0x8, addend: 0x0, symName: __ZNSt3__111__wrap_iterIPNS_4pairIxfEEEC2B8ne180100ES3_, symObjAddr: 0x12198, symBinAddr: 0x100014D30, symSize: 0x20 }
  - { offset: 0x3BF96, size: 0x8, addend: 0x0, symName: __ZNKSt3__16__lessIvvEclB8ne180100INS_4pairIxfEES4_EEbRKT_RKT0_, symObjAddr: 0x12818, symBinAddr: 0x1000153B0, symSize: 0x34 }
  - { offset: 0x3BFEA, size: 0x8, addend: 0x0, symName: __ZNSt3__18_IterOpsINS_17_ClassicAlgPolicyEE9iter_swapB8ne180100IRPNS_4pairIxfEES7_EEvOT_OT0_, symObjAddr: 0x1284C, symBinAddr: 0x1000153E4, symSize: 0x34 }
  - { offset: 0x3C033, size: 0x8, addend: 0x0, symName: __ZNSt3__18_IterOpsINS_17_ClassicAlgPolicyEE9iter_swapB8ne180100IRPNS_4pairIxfEES6_EEvOT_OT0_, symObjAddr: 0x12D94, symBinAddr: 0x10001592C, symSize: 0x34 }
  - { offset: 0x3C076, size: 0x8, addend: 0x0, symName: __ZNSt3__14pairIxfE4swapB8ne180100ERS1_, symObjAddr: 0x13930, symBinAddr: 0x1000164C8, symSize: 0x44 }
  - { offset: 0x3C0B1, size: 0x8, addend: 0x0, symName: __ZNSt3__18_IterOpsINS_17_ClassicAlgPolicyEE11__iter_moveB8ne180100IRPNS_4pairIxfEELi0EEEDTclsr3stdE4movedeclsr3stdE7declvalIRT_EEEEOS8_, symObjAddr: 0x13B8C, symBinAddr: 0x100016724, symSize: 0x28 }
  - { offset: 0x3C0E3, size: 0x8, addend: 0x0, symName: __ZNSt3__14pairIxfEaSB8ne180100EOS1_, symObjAddr: 0x13BB4, symBinAddr: 0x10001674C, symSize: 0x30 }
  - { offset: 0x3C118, size: 0x8, addend: 0x0, symName: __ZNSt3__18_IterOpsINS_17_ClassicAlgPolicyEE25__validate_iter_referenceB8ne180100IRPNS_4pairIxfEEEEvv, symObjAddr: 0x13BE4, symBinAddr: 0x10001677C, symSize: 0x4 }
  - { offset: 0x3C136, size: 0x8, addend: 0x0, symName: __ZNSt3__18_IterOpsINS_17_ClassicAlgPolicyEE4nextB8ne180100IPNS_4pairIxfEEEET_S7_S7_, symObjAddr: 0x13BE8, symBinAddr: 0x100016780, symSize: 0x18 }
  - { offset: 0x3C16C, size: 0x8, addend: 0x0, symName: __ZNSt3__18_IterOpsINS_17_ClassicAlgPolicyEE9iter_swapB8ne180100IPNS_4pairIxfEES6_EEvOT_OT0_, symObjAddr: 0x14B38, symBinAddr: 0x1000176D0, symSize: 0x34 }
  - { offset: 0x3C1C9, size: 0x8, addend: 0x0, symName: __ZNSt3__14pairIPNS0_IxfEEbEC1B8ne180100IRS2_RbLi0EEEOT_OT0_, symObjAddr: 0x14B88, symBinAddr: 0x100017720, symSize: 0x3C }
  - { offset: 0x3C227, size: 0x8, addend: 0x0, symName: __ZNSt3__14pairIPNS0_IxfEEbEC2B8ne180100IRS2_RbLi0EEEOT_OT0_, symObjAddr: 0x14BC4, symBinAddr: 0x10001775C, symSize: 0x38 }
  - { offset: 0x3C285, size: 0x8, addend: 0x0, symName: __ZNSt3__118__unwrap_iter_implINS_11__wrap_iterIPNS_4pairIxfEEEELb1EE8__unwrapB8ne180100ES5_, symObjAddr: 0x14BFC, symBinAddr: 0x100017794, symSize: 0x28 }
  - { offset: 0x3C2B2, size: 0x8, addend: 0x0, symName: __ZNSt3__119__to_address_helperINS_11__wrap_iterIPNS_4pairIxfEEEEvE6__callB8ne180100ERKS5_, symObjAddr: 0x14C48, symBinAddr: 0x1000177E0, symSize: 0x30 }
  - { offset: 0x3C2D5, size: 0x8, addend: 0x0, symName: __ZNSt3__114pointer_traitsINS_11__wrap_iterIPNS_4pairIxfEEEEE10to_addressB8ne180100ES5_, symObjAddr: 0x14C78, symBinAddr: 0x100017810, symSize: 0x2C }
  - { offset: 0x3C2F8, size: 0x8, addend: 0x0, symName: __ZNKSt3__111__wrap_iterIPNS_4pairIxfEEE4baseB8ne180100Ev, symObjAddr: 0x14CA4, symBinAddr: 0x10001783C, symSize: 0x18 }
  - { offset: 0x3C31E, size: 0x8, addend: 0x0, symName: __ZN26compressed_distance_matrixIL24compressed_matrix_layout0EEC2EONSt3__16vectorIfNS2_9allocatorIfEEEE, symObjAddr: 0x14CBC, symBinAddr: 0x100017854, symSize: 0x144 }
  - { offset: 0x3C356, size: 0x8, addend: 0x0, symName: __ZNSt3__16vectorIPfNS_9allocatorIS1_EEEC1Em, symObjAddr: 0x14E1C, symBinAddr: 0x1000179B4, symSize: 0x34 }
  - { offset: 0x3C391, size: 0x8, addend: 0x0, symName: __ZNSt3__16vectorIPfNS_9allocatorIS1_EEEC2Em, symObjAddr: 0x14E50, symBinAddr: 0x1000179E8, symSize: 0xD4 }
  - { offset: 0x3C3E1, size: 0x8, addend: 0x0, symName: __ZNSt3__117__compressed_pairIPPfNS_9allocatorIS1_EEEC1B8ne180100IDnNS_18__default_init_tagEEEOT_OT0_, symObjAddr: 0x14F24, symBinAddr: 0x100017ABC, symSize: 0x3C }
  - { offset: 0x3C439, size: 0x8, addend: 0x0, symName: __ZNSt3__16vectorIPfNS_9allocatorIS1_EEE11__vallocateB8ne180100Em, symObjAddr: 0x14FA0, symBinAddr: 0x100017B38, symSize: 0xAC }
  - { offset: 0x3C47D, size: 0x8, addend: 0x0, symName: __ZNSt3__16vectorIPfNS_9allocatorIS1_EEE18__construct_at_endEm, symObjAddr: 0x1504C, symBinAddr: 0x100017BE4, symSize: 0xC8 }
  - { offset: 0x3C4EF, size: 0x8, addend: 0x0, symName: __ZNSt3__128__exception_guard_exceptionsINS_6vectorIPfNS_9allocatorIS2_EEE16__destroy_vectorEE10__completeB8ne180100Ev, symObjAddr: 0x15114, symBinAddr: 0x100017CAC, symSize: 0x1C }
  - { offset: 0x3C515, size: 0x8, addend: 0x0, symName: __ZNSt3__128__exception_guard_exceptionsINS_6vectorIPfNS_9allocatorIS2_EEE16__destroy_vectorEED1B8ne180100Ev, symObjAddr: 0x15130, symBinAddr: 0x100017CC8, symSize: 0x2C }
  - { offset: 0x3C53F, size: 0x8, addend: 0x0, symName: __ZNSt3__117__compressed_pairIPPfNS_9allocatorIS1_EEEC2B8ne180100IDnNS_18__default_init_tagEEEOT_OT0_, symObjAddr: 0x1515C, symBinAddr: 0x100017CF4, symSize: 0x40 }
  - { offset: 0x3C597, size: 0x8, addend: 0x0, symName: __ZNSt3__122__compressed_pair_elemIPPfLi0ELb0EEC2B8ne180100IDnvEEOT_, symObjAddr: 0x1519C, symBinAddr: 0x100017D34, symSize: 0x1C }
  - { offset: 0x3C5D9, size: 0x8, addend: 0x0, symName: __ZNSt3__122__compressed_pair_elemINS_9allocatorIPfEELi1ELb1EEC2B8ne180100ENS_18__default_init_tagE, symObjAddr: 0x151B8, symBinAddr: 0x100017D50, symSize: 0x2C }
  - { offset: 0x3C60D, size: 0x8, addend: 0x0, symName: __ZNSt3__19allocatorIPfEC2B8ne180100Ev, symObjAddr: 0x151E4, symBinAddr: 0x100017D7C, symSize: 0x2C }
  - { offset: 0x3C637, size: 0x8, addend: 0x0, symName: __ZNSt3__116__non_trivial_ifILb1ENS_9allocatorIPfEEEC2B8ne180100Ev, symObjAddr: 0x15210, symBinAddr: 0x100017DA8, symSize: 0x14 }
  - { offset: 0x3C661, size: 0x8, addend: 0x0, symName: __ZNSt3__128__exception_guard_exceptionsINS_6vectorIPfNS_9allocatorIS2_EEE16__destroy_vectorEEC1B8ne180100ES6_, symObjAddr: 0x15224, symBinAddr: 0x100017DBC, symSize: 0x34 }
  - { offset: 0x3C699, size: 0x8, addend: 0x0, symName: __ZNSt3__128__exception_guard_exceptionsINS_6vectorIPfNS_9allocatorIS2_EEE16__destroy_vectorEEC2B8ne180100ES6_, symObjAddr: 0x15258, symBinAddr: 0x100017DF0, symSize: 0x24 }
  - { offset: 0x3C6D1, size: 0x8, addend: 0x0, symName: __ZNKSt3__16vectorIPfNS_9allocatorIS1_EEE8max_sizeEv, symObjAddr: 0x1527C, symBinAddr: 0x100017E14, symSize: 0x60 }
  - { offset: 0x3C6F9, size: 0x8, addend: 0x0, symName: __ZNKSt3__16vectorIPfNS_9allocatorIS1_EEE20__throw_length_errorB8ne180100Ev, symObjAddr: 0x152DC, symBinAddr: 0x100017E74, symSize: 0x1C }
  - { offset: 0x3C71F, size: 0x8, addend: 0x0, symName: __ZNSt3__16vectorIPfNS_9allocatorIS1_EEE9__end_capB8ne180100Ev, symObjAddr: 0x15338, symBinAddr: 0x100017ED0, symSize: 0x28 }
  - { offset: 0x3C745, size: 0x8, addend: 0x0, symName: __ZNKSt3__16vectorIPfNS_9allocatorIS1_EEE14__annotate_newB8ne180100Em, symObjAddr: 0x15360, symBinAddr: 0x100017EF8, symSize: 0x14 }
  - { offset: 0x3C784, size: 0x8, addend: 0x0, symName: __ZNSt3__116allocator_traitsINS_9allocatorIPfEEE8max_sizeB8ne180100IS3_vEEmRKS3_, symObjAddr: 0x15374, symBinAddr: 0x100017F0C, symSize: 0x24 }
  - { offset: 0x3C7B2, size: 0x8, addend: 0x0, symName: __ZNKSt3__16vectorIPfNS_9allocatorIS1_EEE7__allocB8ne180100Ev, symObjAddr: 0x15398, symBinAddr: 0x100017F30, symSize: 0x28 }
  - { offset: 0x3C7D8, size: 0x8, addend: 0x0, symName: __ZNKSt3__19allocatorIPfE8max_sizeB8ne180100Ev, symObjAddr: 0x153C0, symBinAddr: 0x100017F58, symSize: 0x14 }
  - { offset: 0x3C7FE, size: 0x8, addend: 0x0, symName: __ZNKSt3__117__compressed_pairIPPfNS_9allocatorIS1_EEE6secondB8ne180100Ev, symObjAddr: 0x153D4, symBinAddr: 0x100017F6C, symSize: 0x24 }
  - { offset: 0x3C824, size: 0x8, addend: 0x0, symName: __ZNKSt3__122__compressed_pair_elemINS_9allocatorIPfEELi1ELb1EE5__getB8ne180100Ev, symObjAddr: 0x153F8, symBinAddr: 0x100017F90, symSize: 0x14 }
  - { offset: 0x3C84A, size: 0x8, addend: 0x0, symName: __ZNSt3__19allocatorIPfE8allocateB8ne180100Em, symObjAddr: 0x1540C, symBinAddr: 0x100017FA4, symSize: 0x58 }
  - { offset: 0x3C87E, size: 0x8, addend: 0x0, symName: __ZNSt3__117__compressed_pairIPPfNS_9allocatorIS1_EEE5firstB8ne180100Ev, symObjAddr: 0x15464, symBinAddr: 0x100017FFC, symSize: 0x24 }
  - { offset: 0x3C8A4, size: 0x8, addend: 0x0, symName: __ZNSt3__122__compressed_pair_elemIPPfLi0ELb0EE5__getB8ne180100Ev, symObjAddr: 0x15488, symBinAddr: 0x100018020, symSize: 0x14 }
  - { offset: 0x3C8E3, size: 0x8, addend: 0x0, symName: __ZNSt3__16vectorIPfNS_9allocatorIS1_EEE21_ConstructTransactionC1B8ne180100ERS4_m, symObjAddr: 0x1549C, symBinAddr: 0x100018034, symSize: 0x3C }
  - { offset: 0x3C92B, size: 0x8, addend: 0x0, symName: __ZNSt3__116allocator_traitsINS_9allocatorIPfEEE9constructB8ne180100IS2_JEvEEvRS3_PT_DpOT0_, symObjAddr: 0x154D8, symBinAddr: 0x100018070, symSize: 0x2C }
  - { offset: 0x3C96D, size: 0x8, addend: 0x0, symName: __ZNSt3__16vectorIPfNS_9allocatorIS1_EEE21_ConstructTransactionD1B8ne180100Ev, symObjAddr: 0x15504, symBinAddr: 0x10001809C, symSize: 0x2C }
  - { offset: 0x3C997, size: 0x8, addend: 0x0, symName: __ZNSt3__16vectorIPfNS_9allocatorIS1_EEE21_ConstructTransactionC2B8ne180100ERS4_m, symObjAddr: 0x15530, symBinAddr: 0x1000180C8, symSize: 0x44 }
  - { offset: 0x3C9DF, size: 0x8, addend: 0x0, symName: __ZNSt3__19allocatorIPfE9constructB8ne180100IS1_JEEEvPT_DpOT0_, symObjAddr: 0x15574, symBinAddr: 0x10001810C, symSize: 0x1C }
  - { offset: 0x3CA21, size: 0x8, addend: 0x0, symName: __ZNSt3__16vectorIPfNS_9allocatorIS1_EEE21_ConstructTransactionD2B8ne180100Ev, symObjAddr: 0x15590, symBinAddr: 0x100018128, symSize: 0x20 }
  - { offset: 0x3CA4B, size: 0x8, addend: 0x0, symName: __ZNSt3__128__exception_guard_exceptionsINS_6vectorIPfNS_9allocatorIS2_EEE16__destroy_vectorEED2B8ne180100Ev, symObjAddr: 0x155B0, symBinAddr: 0x100018148, symSize: 0x48 }
  - { offset: 0x3CA75, size: 0x8, addend: 0x0, symName: __ZN26compressed_distance_matrixIL24compressed_matrix_layout1EEC2EONSt3__16vectorIfNS2_9allocatorIfEEEE, symObjAddr: 0x155F8, symBinAddr: 0x100018190, symSize: 0x144 }
  - { offset: 0x3CAAD, size: 0x8, addend: 0x0, symName: __ZN26compressed_distance_matrixIL24compressed_matrix_layout0EEC2IS_ILS0_1EEEERKT_, symObjAddr: 0x1573C, symBinAddr: 0x1000182D4, symSize: 0x178 }
  - { offset: 0x3CB16, size: 0x8, addend: 0x0, symName: __ZNSt3__16vectorIfNS_9allocatorIfEEEC1Em, symObjAddr: 0x158B4, symBinAddr: 0x10001844C, symSize: 0x34 }
  - { offset: 0x3CB51, size: 0x8, addend: 0x0, symName: __ZNSt3__16vectorIfNS_9allocatorIfEEEC2Em, symObjAddr: 0x158E8, symBinAddr: 0x100018480, symSize: 0xD4 }
  - { offset: 0x3CBA1, size: 0x8, addend: 0x0, symName: __ZNSt3__16vectorIfNS_9allocatorIfEEE18__construct_at_endEm, symObjAddr: 0x159BC, symBinAddr: 0x100018554, symSize: 0xC8 }
  - { offset: 0x3CC13, size: 0x8, addend: 0x0, symName: __ZNSt3__116allocator_traitsINS_9allocatorIfEEE9constructB8ne180100IfJEvEEvRS2_PT_DpOT0_, symObjAddr: 0x15A84, symBinAddr: 0x10001861C, symSize: 0x2C }
  - { offset: 0x3CC55, size: 0x8, addend: 0x0, symName: __ZNSt3__19allocatorIfE9constructB8ne180100IfJEEEvPT_DpOT0_, symObjAddr: 0x15AB0, symBinAddr: 0x100018648, symSize: 0x20 }
  - { offset: 0x3CC97, size: 0x8, addend: 0x0, symName: __ZNKSt3__113basic_istreamIcNS_11char_traitsIcEEE6gcountB8ne180100Ev, symObjAddr: 0x15AD0, symBinAddr: 0x100018668, symSize: 0x18 }
  - { offset: 0x3CCC2, size: 0x8, addend: 0x0, symName: __ZNSt3__18_IterOpsINS_17_ClassicAlgPolicyEE9iter_swapB8ne180100IRPcS5_EEvOT_OT0_, symObjAddr: 0x15BC0, symBinAddr: 0x100018758, symSize: 0x34 }
  - { offset: 0x3CD05, size: 0x8, addend: 0x0, symName: __ZNSt3__16vectorIfNS_9allocatorIfEEE22__construct_one_at_endB8ne180100IJfEEEvDpOT_, symObjAddr: 0x15C5C, symBinAddr: 0x1000187F4, symSize: 0x90 }
  - { offset: 0x3CD54, size: 0x8, addend: 0x0, symName: __ZNSt3__16vectorIfNS_9allocatorIfEEE21__push_back_slow_pathIfEEPfOT_, symObjAddr: 0x15CEC, symBinAddr: 0x100018884, symSize: 0xE8 }
  - { offset: 0x3CDB2, size: 0x8, addend: 0x0, symName: __ZNSt3__116allocator_traitsINS_9allocatorIfEEE9constructB8ne180100IfJfEvEEvRS2_PT_DpOT0_, symObjAddr: 0x15DD4, symBinAddr: 0x10001896C, symSize: 0x34 }
  - { offset: 0x3CE09, size: 0x8, addend: 0x0, symName: __ZNSt3__19allocatorIfE9constructB8ne180100IfJfEEEvPT_DpOT0_, symObjAddr: 0x15E08, symBinAddr: 0x1000189A0, symSize: 0x28 }
  - { offset: 0x3CE5F, size: 0x8, addend: 0x0, symName: __ZNKSt3__18ios_base3eofB8ne180100Ev, symObjAddr: 0x15E30, symBinAddr: 0x1000189C8, symSize: 0x24 }
  - { offset: 0x3CE87, size: 0x8, addend: 0x0, symName: __ZN26compressed_distance_matrixIL24compressed_matrix_layout0EEC2I25euclidean_distance_matrixEERKT_, symObjAddr: 0x15E54, symBinAddr: 0x1000189EC, symSize: 0x17C }
  - { offset: 0x3CEF0, size: 0x8, addend: 0x0, symName: __ZNK25euclidean_distance_matrixclExx, symObjAddr: 0x15FD0, symBinAddr: 0x100018B68, symSize: 0x114 }
  - { offset: 0x3CF5A, size: 0x8, addend: 0x0, symName: __ZNKSt3__16vectorINS0_IfNS_9allocatorIfEEEENS1_IS3_EEEixB8ne180100Em, symObjAddr: 0x16198, symBinAddr: 0x100018D30, symSize: 0x2C }
  - { offset: 0x3CF91, size: 0x8, addend: 0x0, symName: __ZNKSt3__16vectorIfNS_9allocatorIfEEE5beginB8ne180100Ev, symObjAddr: 0x161C4, symBinAddr: 0x100018D5C, symSize: 0x30 }
  - { offset: 0x3CFB9, size: 0x8, addend: 0x0, symName: __ZNKSt3__16vectorIfNS_9allocatorIfEEE3endB8ne180100Ev, symObjAddr: 0x161F4, symBinAddr: 0x100018D8C, symSize: 0x30 }
  - { offset: 0x3CFEB, size: 0x8, addend: 0x0, symName: __ZNKSt3__14plusIfEclB8ne180100ERKfS3_, symObjAddr: 0x16258, symBinAddr: 0x100018DF0, symSize: 0x2C }
  - { offset: 0x3D037, size: 0x8, addend: 0x0, symName: __ZZNK25euclidean_distance_matrixclExxENKUlffE_clEff, symObjAddr: 0x16284, symBinAddr: 0x100018E1C, symSize: 0x34 }
  - { offset: 0x3D07F, size: 0x8, addend: 0x0, symName: __ZNKSt3__111__wrap_iterIPKfEdeB8ne180100Ev, symObjAddr: 0x162B8, symBinAddr: 0x100018E50, symSize: 0x18 }
  - { offset: 0x3D0A5, size: 0x8, addend: 0x0, symName: __ZNSt3__111__wrap_iterIPKfEppB8ne180100Ev, symObjAddr: 0x162D0, symBinAddr: 0x100018E68, symSize: 0x20 }
  - { offset: 0x3D0CB, size: 0x8, addend: 0x0, symName: __ZNKSt3__111__wrap_iterIPKfE4baseB8ne180100Ev, symObjAddr: 0x16338, symBinAddr: 0x100018ED0, symSize: 0x18 }
  - { offset: 0x3D0F1, size: 0x8, addend: 0x0, symName: __ZNKSt3__16vectorIfNS_9allocatorIfEEE11__make_iterB8ne180100EPKf, symObjAddr: 0x16350, symBinAddr: 0x100018EE8, symSize: 0x30 }
  - { offset: 0x3D126, size: 0x8, addend: 0x0, symName: __ZNSt3__111__wrap_iterIPKfEC1B8ne180100ES2_, symObjAddr: 0x16380, symBinAddr: 0x100018F18, symSize: 0x34 }
  - { offset: 0x3D15E, size: 0x8, addend: 0x0, symName: __ZNSt3__111__wrap_iterIPKfEC2B8ne180100ES2_, symObjAddr: 0x163B4, symBinAddr: 0x100018F4C, symSize: 0x20 }
  - { offset: 0x3D196, size: 0x8, addend: 0x0, symName: __ZNKSt3__112basic_stringIcNS_11char_traitsIcEENS_9allocatorIcEEE15__get_long_sizeB8ne180100Ev, symObjAddr: 0x163D4, symBinAddr: 0x100018F6C, symSize: 0x28 }
  - { offset: 0x3D1BC, size: 0x8, addend: 0x0, symName: __ZNKSt3__112basic_stringIcNS_11char_traitsIcEENS_9allocatorIcEEE16__get_short_sizeB8ne180100Ev, symObjAddr: 0x163FC, symBinAddr: 0x100018F94, symSize: 0x34 }
  - { offset: 0x3D1E2, size: 0x8, addend: 0x0, symName: __ZNSt3__18_IterOpsINS_17_ClassicAlgPolicyEE4nextB8ne180100IPKcEET_S6_S6_, symObjAddr: 0x167A8, symBinAddr: 0x100019340, symSize: 0x18 }
  - { offset: 0x3D237, size: 0x8, addend: 0x0, symName: __ZNSt3__14pairIPKcS2_EC1B8ne180100IRS2_S5_Li0EEEOT_OT0_, symObjAddr: 0x167C0, symBinAddr: 0x100019358, symSize: 0x3C }
  - { offset: 0x3D295, size: 0x8, addend: 0x0, symName: __ZNSt3__14pairIPKcS2_EC2B8ne180100IRS2_S5_Li0EEEOT_OT0_, symObjAddr: 0x16868, symBinAddr: 0x100019400, symSize: 0x34 }
  - { offset: 0x3D2FD, size: 0x8, addend: 0x0, symName: __ZNKSt3__110__identityclB8ne180100IRKcEEOT_S5_, symObjAddr: 0x1689C, symBinAddr: 0x100019434, symSize: 0x18 }
  - { offset: 0x3D33A, size: 0x8, addend: 0x0, symName: __ZNKSt3__18ios_base4failB8ne180100Ev, symObjAddr: 0x168B4, symBinAddr: 0x10001944C, symSize: 0x28 }
  - { offset: 0x3D362, size: 0x8, addend: 0x0, symName: __ZN6ripserI22sparse_distance_matrixEC2EOS0_xfft, symObjAddr: 0x168DC, symBinAddr: 0x100019474, symSize: 0x134 }
  - { offset: 0x3D3D7, size: 0x8, addend: 0x0, symName: __ZN22sparse_distance_matrixC1EOS_, symObjAddr: 0x16A10, symBinAddr: 0x1000195A8, symSize: 0x34 }
  - { offset: 0x3D40D, size: 0x8, addend: 0x0, symName: __ZN20binomial_coeff_tableC1Exx, symObjAddr: 0x16A70, symBinAddr: 0x100019608, symSize: 0x3C }
  - { offset: 0x3D453, size: 0x8, addend: 0x0, symName: __ZNSt3__16vectorI16diameter_entry_tNS_9allocatorIS1_EEEC1B8ne180100Ev, symObjAddr: 0x16AAC, symBinAddr: 0x100019644, symSize: 0x2C }
  - { offset: 0x3D47D, size: 0x8, addend: 0x0, symName: __ZNSt3__16vectorIxNS_9allocatorIxEEEC1B8ne180100Ev, symObjAddr: 0x16AD8, symBinAddr: 0x100019670, symSize: 0x2C }
  - { offset: 0x3D4A7, size: 0x8, addend: 0x0, symName: __ZN22sparse_distance_matrixC2EOS_, symObjAddr: 0x16B04, symBinAddr: 0x10001969C, symSize: 0x40 }
  - { offset: 0x3D4DD, size: 0x8, addend: 0x0, symName: __ZNKSt3__16__lessIvvEclB8ne180100IxxEEbRKT_RKT0_, symObjAddr: 0x16B98, symBinAddr: 0x100019730, symSize: 0x34 }
  - { offset: 0x3D531, size: 0x8, addend: 0x0, symName: __ZN20binomial_coeff_tableC2Exx, symObjAddr: 0x16BCC, symBinAddr: 0x100019764, symSize: 0x250 }
  - { offset: 0x3D5A1, size: 0x8, addend: 0x0, symName: __ZNSt3__16vectorIxNS_9allocatorIxEEEC1EmRKx, symObjAddr: 0x16E1C, symBinAddr: 0x1000199B4, symSize: 0x3C }
  - { offset: 0x3D5EB, size: 0x8, addend: 0x0, symName: __ZNSt3__16vectorINS0_IxNS_9allocatorIxEEEENS1_IS3_EEEC1EmRKS3_, symObjAddr: 0x16E58, symBinAddr: 0x1000199F0, symSize: 0x3C }
  - { offset: 0x3D635, size: 0x8, addend: 0x0, symName: __ZNSt3__16vectorINS0_IxNS_9allocatorIxEEEENS1_IS3_EEEixB8ne180100Em, symObjAddr: 0x16E94, symBinAddr: 0x100019A2C, symSize: 0x2C }
  - { offset: 0x3D66C, size: 0x8, addend: 0x0, symName: __ZNSt3__16vectorIxNS_9allocatorIxEEEC2EmRKx, symObjAddr: 0x16EC0, symBinAddr: 0x100019A58, symSize: 0xDC }
  - { offset: 0x3D6CB, size: 0x8, addend: 0x0, symName: __ZNSt3__16vectorIxNS_9allocatorIxEEE18__construct_at_endEmRKx, symObjAddr: 0x16F9C, symBinAddr: 0x100019B34, symSize: 0xD0 }
  - { offset: 0x3D74C, size: 0x8, addend: 0x0, symName: __ZNSt3__116allocator_traitsINS_9allocatorIxEEE9constructB8ne180100IxJRKxEvEEvRS2_PT_DpOT0_, symObjAddr: 0x1706C, symBinAddr: 0x100019C04, symSize: 0x34 }
  - { offset: 0x3D7A3, size: 0x8, addend: 0x0, symName: __ZNSt3__19allocatorIxE9constructB8ne180100IxJRKxEEEvPT_DpOT0_, symObjAddr: 0x170A0, symBinAddr: 0x100019C38, symSize: 0x28 }
  - { offset: 0x3D7F9, size: 0x8, addend: 0x0, symName: __ZNSt3__16vectorINS0_IxNS_9allocatorIxEEEENS1_IS3_EEEC2EmRKS3_, symObjAddr: 0x170C8, symBinAddr: 0x100019C60, symSize: 0xDC }
  - { offset: 0x3D858, size: 0x8, addend: 0x0, symName: __ZNSt3__117__compressed_pairIPNS_6vectorIxNS_9allocatorIxEEEENS2_IS4_EEEC1B8ne180100IDnNS_18__default_init_tagEEEOT_OT0_, symObjAddr: 0x171A4, symBinAddr: 0x100019D3C, symSize: 0x3C }
  - { offset: 0x3D8B0, size: 0x8, addend: 0x0, symName: __ZNSt3__16vectorINS0_IxNS_9allocatorIxEEEENS1_IS3_EEE11__vallocateB8ne180100Em, symObjAddr: 0x17220, symBinAddr: 0x100019DB8, symSize: 0xB4 }
  - { offset: 0x3D8F4, size: 0x8, addend: 0x0, symName: __ZNSt3__16vectorINS0_IxNS_9allocatorIxEEEENS1_IS3_EEE18__construct_at_endEmRKS3_, symObjAddr: 0x172D4, symBinAddr: 0x100019E6C, symSize: 0xD0 }
  - { offset: 0x3D975, size: 0x8, addend: 0x0, symName: __ZNSt3__128__exception_guard_exceptionsINS_6vectorINS1_IxNS_9allocatorIxEEEENS2_IS4_EEE16__destroy_vectorEE10__completeB8ne180100Ev, symObjAddr: 0x173A4, symBinAddr: 0x100019F3C, symSize: 0x1C }
  - { offset: 0x3D99B, size: 0x8, addend: 0x0, symName: __ZNSt3__128__exception_guard_exceptionsINS_6vectorINS1_IxNS_9allocatorIxEEEENS2_IS4_EEE16__destroy_vectorEED1B8ne180100Ev, symObjAddr: 0x173C0, symBinAddr: 0x100019F58, symSize: 0x2C }
  - { offset: 0x3D9C5, size: 0x8, addend: 0x0, symName: __ZNSt3__117__compressed_pairIPNS_6vectorIxNS_9allocatorIxEEEENS2_IS4_EEEC2B8ne180100IDnNS_18__default_init_tagEEEOT_OT0_, symObjAddr: 0x173EC, symBinAddr: 0x100019F84, symSize: 0x40 }
  - { offset: 0x3DA1D, size: 0x8, addend: 0x0, symName: __ZNSt3__122__compressed_pair_elemIPNS_6vectorIxNS_9allocatorIxEEEELi0ELb0EEC2B8ne180100IDnvEEOT_, symObjAddr: 0x1742C, symBinAddr: 0x100019FC4, symSize: 0x1C }
  - { offset: 0x3DA5F, size: 0x8, addend: 0x0, symName: __ZNSt3__122__compressed_pair_elemINS_9allocatorINS_6vectorIxNS1_IxEEEEEELi1ELb1EEC2B8ne180100ENS_18__default_init_tagE, symObjAddr: 0x17448, symBinAddr: 0x100019FE0, symSize: 0x2C }
  - { offset: 0x3DA93, size: 0x8, addend: 0x0, symName: __ZNSt3__19allocatorINS_6vectorIxNS0_IxEEEEEC2B8ne180100Ev, symObjAddr: 0x17474, symBinAddr: 0x10001A00C, symSize: 0x2C }
  - { offset: 0x3DABD, size: 0x8, addend: 0x0, symName: __ZNSt3__116__non_trivial_ifILb1ENS_9allocatorINS_6vectorIxNS1_IxEEEEEEEC2B8ne180100Ev, symObjAddr: 0x174A0, symBinAddr: 0x10001A038, symSize: 0x14 }
  - { offset: 0x3DAE7, size: 0x8, addend: 0x0, symName: __ZNSt3__128__exception_guard_exceptionsINS_6vectorINS1_IxNS_9allocatorIxEEEENS2_IS4_EEE16__destroy_vectorEEC1B8ne180100ES7_, symObjAddr: 0x174B4, symBinAddr: 0x10001A04C, symSize: 0x34 }
  - { offset: 0x3DB1F, size: 0x8, addend: 0x0, symName: __ZNSt3__128__exception_guard_exceptionsINS_6vectorINS1_IxNS_9allocatorIxEEEENS2_IS4_EEE16__destroy_vectorEEC2B8ne180100ES7_, symObjAddr: 0x174E8, symBinAddr: 0x10001A080, symSize: 0x24 }
  - { offset: 0x3DB57, size: 0x8, addend: 0x0, symName: __ZNKSt3__16vectorINS0_IxNS_9allocatorIxEEEENS1_IS3_EEE8max_sizeEv, symObjAddr: 0x1750C, symBinAddr: 0x10001A0A4, symSize: 0x60 }
  - { offset: 0x3DB7F, size: 0x8, addend: 0x0, symName: __ZNKSt3__16vectorINS0_IxNS_9allocatorIxEEEENS1_IS3_EEE20__throw_length_errorB8ne180100Ev, symObjAddr: 0x1756C, symBinAddr: 0x10001A104, symSize: 0x1C }
  - { offset: 0x3DBA5, size: 0x8, addend: 0x0, symName: __ZNSt3__16vectorINS0_IxNS_9allocatorIxEEEENS1_IS3_EEE9__end_capB8ne180100Ev, symObjAddr: 0x175C8, symBinAddr: 0x10001A160, symSize: 0x28 }
  - { offset: 0x3DBCB, size: 0x8, addend: 0x0, symName: __ZNKSt3__16vectorINS0_IxNS_9allocatorIxEEEENS1_IS3_EEE14__annotate_newB8ne180100Em, symObjAddr: 0x175F0, symBinAddr: 0x10001A188, symSize: 0x14 }
  - { offset: 0x3DC0A, size: 0x8, addend: 0x0, symName: __ZNSt3__116allocator_traitsINS_9allocatorINS_6vectorIxNS1_IxEEEEEEE8max_sizeB8ne180100IS5_vEEmRKS5_, symObjAddr: 0x17604, symBinAddr: 0x10001A19C, symSize: 0x24 }
  - { offset: 0x3DC38, size: 0x8, addend: 0x0, symName: __ZNKSt3__16vectorINS0_IxNS_9allocatorIxEEEENS1_IS3_EEE7__allocB8ne180100Ev, symObjAddr: 0x17628, symBinAddr: 0x10001A1C0, symSize: 0x28 }
  - { offset: 0x3DC5E, size: 0x8, addend: 0x0, symName: __ZNKSt3__19allocatorINS_6vectorIxNS0_IxEEEEE8max_sizeB8ne180100Ev, symObjAddr: 0x17650, symBinAddr: 0x10001A1E8, symSize: 0x18 }
  - { offset: 0x3DC84, size: 0x8, addend: 0x0, symName: __ZNKSt3__117__compressed_pairIPNS_6vectorIxNS_9allocatorIxEEEENS2_IS4_EEE6secondB8ne180100Ev, symObjAddr: 0x17668, symBinAddr: 0x10001A200, symSize: 0x24 }
  - { offset: 0x3DCAA, size: 0x8, addend: 0x0, symName: __ZNKSt3__122__compressed_pair_elemINS_9allocatorINS_6vectorIxNS1_IxEEEEEELi1ELb1EE5__getB8ne180100Ev, symObjAddr: 0x1768C, symBinAddr: 0x10001A224, symSize: 0x14 }
  - { offset: 0x3DCD0, size: 0x8, addend: 0x0, symName: __ZNSt3__19allocatorINS_6vectorIxNS0_IxEEEEE8allocateB8ne180100Em, symObjAddr: 0x176A0, symBinAddr: 0x10001A238, symSize: 0x5C }
  - { offset: 0x3DD04, size: 0x8, addend: 0x0, symName: __ZNSt3__117__compressed_pairIPNS_6vectorIxNS_9allocatorIxEEEENS2_IS4_EEE5firstB8ne180100Ev, symObjAddr: 0x176FC, symBinAddr: 0x10001A294, symSize: 0x24 }
  - { offset: 0x3DD2A, size: 0x8, addend: 0x0, symName: __ZNSt3__122__compressed_pair_elemIPNS_6vectorIxNS_9allocatorIxEEEELi0ELb0EE5__getB8ne180100Ev, symObjAddr: 0x17720, symBinAddr: 0x10001A2B8, symSize: 0x14 }
  - { offset: 0x3DD69, size: 0x8, addend: 0x0, symName: __ZNSt3__16vectorINS0_IxNS_9allocatorIxEEEENS1_IS3_EEE21_ConstructTransactionC1B8ne180100ERS5_m, symObjAddr: 0x17734, symBinAddr: 0x10001A2CC, symSize: 0x3C }
  - { offset: 0x3DDB1, size: 0x8, addend: 0x0, symName: __ZNSt3__116allocator_traitsINS_9allocatorINS_6vectorIxNS1_IxEEEEEEE9constructB8ne180100IS4_JRKS4_EvEEvRS5_PT_DpOT0_, symObjAddr: 0x17770, symBinAddr: 0x10001A308, symSize: 0x34 }
  - { offset: 0x3DE08, size: 0x8, addend: 0x0, symName: __ZNSt3__16vectorINS0_IxNS_9allocatorIxEEEENS1_IS3_EEE21_ConstructTransactionD1B8ne180100Ev, symObjAddr: 0x177A4, symBinAddr: 0x10001A33C, symSize: 0x2C }
  - { offset: 0x3DE32, size: 0x8, addend: 0x0, symName: __ZNSt3__16vectorINS0_IxNS_9allocatorIxEEEENS1_IS3_EEE21_ConstructTransactionC2B8ne180100ERS5_m, symObjAddr: 0x177D0, symBinAddr: 0x10001A368, symSize: 0x4C }
  - { offset: 0x3DE7A, size: 0x8, addend: 0x0, symName: __ZNSt3__19allocatorINS_6vectorIxNS0_IxEEEEE9constructB8ne180100IS3_JRKS3_EEEvPT_DpOT0_, symObjAddr: 0x1781C, symBinAddr: 0x10001A3B4, symSize: 0x30 }
  - { offset: 0x3DED0, size: 0x8, addend: 0x0, symName: __ZNSt3__16vectorIxNS_9allocatorIxEEEC1ERKS3_, symObjAddr: 0x1784C, symBinAddr: 0x10001A3E4, symSize: 0x34 }
  - { offset: 0x3DF0B, size: 0x8, addend: 0x0, symName: __ZNSt3__16vectorIxNS_9allocatorIxEEEC2ERKS3_, symObjAddr: 0x17880, symBinAddr: 0x10001A418, symSize: 0x94 }
  - { offset: 0x3DF46, size: 0x8, addend: 0x0, symName: __ZNSt3__116allocator_traitsINS_9allocatorIxEEE37select_on_container_copy_constructionB8ne180100IS2_vvEES2_RKS2_, symObjAddr: 0x17914, symBinAddr: 0x10001A4AC, symSize: 0x10 }
  - { offset: 0x3DF7B, size: 0x8, addend: 0x0, symName: __ZNSt3__117__compressed_pairIPxNS_9allocatorIxEEEC1B8ne180100IDnS3_EEOT_OT0_, symObjAddr: 0x17924, symBinAddr: 0x10001A4BC, symSize: 0x3C }
  - { offset: 0x3DFD3, size: 0x8, addend: 0x0, symName: __ZNSt3__16vectorIxNS_9allocatorIxEEE16__init_with_sizeB8ne180100IPxS5_EEvT_T0_m, symObjAddr: 0x17960, symBinAddr: 0x10001A4F8, symSize: 0xB8 }
  - { offset: 0x3E047, size: 0x8, addend: 0x0, symName: __ZNSt3__117__compressed_pairIPxNS_9allocatorIxEEEC2B8ne180100IDnS3_EEOT_OT0_, symObjAddr: 0x17A18, symBinAddr: 0x10001A5B0, symSize: 0x44 }
  - { offset: 0x3E09F, size: 0x8, addend: 0x0, symName: __ZNSt3__122__compressed_pair_elemINS_9allocatorIxEELi1ELb1EEC2B8ne180100IS2_vEEOT_, symObjAddr: 0x17A5C, symBinAddr: 0x10001A5F4, symSize: 0x18 }
  - { offset: 0x3E0E1, size: 0x8, addend: 0x0, symName: __ZNSt3__16vectorIxNS_9allocatorIxEEE18__construct_at_endIPxS5_EEvT_T0_m, symObjAddr: 0x17A74, symBinAddr: 0x10001A60C, symSize: 0x8C }
  - { offset: 0x3E177, size: 0x8, addend: 0x0, symName: __ZNSt3__14pairIPxS1_EC1B8ne180100IS1_S1_Li0EEEOT_OT0_, symObjAddr: 0x17CB0, symBinAddr: 0x10001A848, symSize: 0x3C }
  - { offset: 0x3E1D5, size: 0x8, addend: 0x0, symName: __ZNSt3__14pairIPxS1_EC2B8ne180100IS1_S1_Li0EEEOT_OT0_, symObjAddr: 0x17CEC, symBinAddr: 0x10001A884, symSize: 0x34 }
  - { offset: 0x3E233, size: 0x8, addend: 0x0, symName: __ZNKSt3__114__copy_trivialclB8ne180100IxxLi0EEENS_4pairIPT_PT0_EES4_S4_S6_, symObjAddr: 0x17E9C, symBinAddr: 0x10001AA34, symSize: 0x48 }
  - { offset: 0x3E29B, size: 0x8, addend: 0x0, symName: __ZNSt3__14pairIPxS1_EC1B8ne180100IRS1_S1_Li0EEEOT_OT0_, symObjAddr: 0x1802C, symBinAddr: 0x10001ABC4, symSize: 0x3C }
  - { offset: 0x3E2F9, size: 0x8, addend: 0x0, symName: __ZNSt3__14pairIPxS1_EC2B8ne180100IRS1_S1_Li0EEEOT_OT0_, symObjAddr: 0x18068, symBinAddr: 0x10001AC00, symSize: 0x34 }
  - { offset: 0x3E357, size: 0x8, addend: 0x0, symName: __ZNSt3__118__unwrap_iter_implIPxLb1EE8__unwrapB8ne180100ES1_, symObjAddr: 0x1809C, symBinAddr: 0x10001AC34, symSize: 0x24 }
  - { offset: 0x3E37A, size: 0x8, addend: 0x0, symName: __ZNSt3__118__unwrap_iter_implIPxLb1EE8__rewrapB8ne180100ES1_S1_, symObjAddr: 0x180C0, symBinAddr: 0x10001AC58, symSize: 0x50 }
  - { offset: 0x3E3AB, size: 0x8, addend: 0x0, symName: __ZNSt3__16vectorINS0_IxNS_9allocatorIxEEEENS1_IS3_EEE21_ConstructTransactionD2B8ne180100Ev, symObjAddr: 0x18110, symBinAddr: 0x10001ACA8, symSize: 0x20 }
  - { offset: 0x3E3D5, size: 0x8, addend: 0x0, symName: __ZNSt3__128__exception_guard_exceptionsINS_6vectorINS1_IxNS_9allocatorIxEEEENS2_IS4_EEE16__destroy_vectorEED2B8ne180100Ev, symObjAddr: 0x18130, symBinAddr: 0x10001ACC8, symSize: 0x48 }
  - { offset: 0x3E3FF, size: 0x8, addend: 0x0, symName: __ZNSt3__16vectorI16diameter_entry_tNS_9allocatorIS1_EEEC2B8ne180100Ev, symObjAddr: 0x18178, symBinAddr: 0x10001AD10, symSize: 0x4C }
  - { offset: 0x3E429, size: 0x8, addend: 0x0, symName: __ZNSt3__117__compressed_pairIP16diameter_entry_tNS_9allocatorIS1_EEEC1B8ne180100IDnNS_18__default_init_tagEEEOT_OT0_, symObjAddr: 0x181C4, symBinAddr: 0x10001AD5C, symSize: 0x3C }
  - { offset: 0x3E481, size: 0x8, addend: 0x0, symName: __ZNSt3__117__compressed_pairIP16diameter_entry_tNS_9allocatorIS1_EEEC2B8ne180100IDnNS_18__default_init_tagEEEOT_OT0_, symObjAddr: 0x18200, symBinAddr: 0x10001AD98, symSize: 0x40 }
  - { offset: 0x3E4D9, size: 0x8, addend: 0x0, symName: __ZNSt3__122__compressed_pair_elemIP16diameter_entry_tLi0ELb0EEC2B8ne180100IDnvEEOT_, symObjAddr: 0x18240, symBinAddr: 0x10001ADD8, symSize: 0x1C }
  - { offset: 0x3E51B, size: 0x8, addend: 0x0, symName: __ZNSt3__122__compressed_pair_elemINS_9allocatorI16diameter_entry_tEELi1ELb1EEC2B8ne180100ENS_18__default_init_tagE, symObjAddr: 0x1825C, symBinAddr: 0x10001ADF4, symSize: 0x2C }
  - { offset: 0x3E54F, size: 0x8, addend: 0x0, symName: __ZNSt3__19allocatorI16diameter_entry_tEC2B8ne180100Ev, symObjAddr: 0x18288, symBinAddr: 0x10001AE20, symSize: 0x2C }
  - { offset: 0x3E579, size: 0x8, addend: 0x0, symName: __ZNSt3__116__non_trivial_ifILb1ENS_9allocatorI16diameter_entry_tEEEC2B8ne180100Ev, symObjAddr: 0x182B4, symBinAddr: 0x10001AE4C, symSize: 0x14 }
  - { offset: 0x3E5A3, size: 0x8, addend: 0x0, symName: __ZNSt3__16vectorIxNS_9allocatorIxEEEC2B8ne180100Ev, symObjAddr: 0x182C8, symBinAddr: 0x10001AE60, symSize: 0x4C }
  - { offset: 0x3E5CD, size: 0x8, addend: 0x0, symName: __ZN6ripserI22sparse_distance_matrixE19compute_dim_0_pairsERNSt3__16vectorINS2_4pairIfxEENS2_9allocatorIS5_EEEES9_, symObjAddr: 0x18314, symBinAddr: 0x10001AEAC, symSize: 0x5A4 }
  - { offset: 0x3E711, size: 0x8, addend: 0x0, symName: __ZNSt3__113unordered_mapIxmN6ripserI22sparse_distance_matrixE10entry_hashENS3_11equal_indexENS_9allocatorINS_4pairIKxmEEEEEC1B8ne180100Ev, symObjAddr: 0x188B8, symBinAddr: 0x10001B450, symSize: 0x2C }
  - { offset: 0x3E73B, size: 0x8, addend: 0x0, symName: __ZNSt3__113unordered_mapIxmN6ripserI22sparse_distance_matrixE10entry_hashENS3_11equal_indexENS_9allocatorINS_4pairIKxmEEEEE7reserveB8ne180100Em, symObjAddr: 0x188E4, symBinAddr: 0x10001B47C, symSize: 0x2C }
  - { offset: 0x3E770, size: 0x8, addend: 0x0, symName: __ZN6ripserI22sparse_distance_matrixE13compute_pairsERKNSt3__16vectorINS2_4pairIfxEENS2_9allocatorIS5_EEEERNS2_13unordered_mapIxmNS1_10entry_hashENS1_11equal_indexENS6_INS4_IKxmEEEEEEx, symObjAddr: 0x18910, symBinAddr: 0x10001B4A8, symSize: 0x664 }
  - { offset: 0x3E8E7, size: 0x8, addend: 0x0, symName: __ZN6ripserI22sparse_distance_matrixE26assemble_columns_to_reduceERNSt3__16vectorINS2_4pairIfxEENS2_9allocatorIS5_EEEES9_RNS2_13unordered_mapIxmNS1_10entry_hashENS1_11equal_indexENS6_INS4_IKxmEEEEEEx, symObjAddr: 0x18F74, symBinAddr: 0x10001BB0C, symSize: 0x3A4 }
  - { offset: 0x3E9C5, size: 0x8, addend: 0x0, symName: __ZNSt3__113unordered_mapIxmN6ripserI22sparse_distance_matrixE10entry_hashENS3_11equal_indexENS_9allocatorINS_4pairIKxmEEEEED1B8ne180100Ev, symObjAddr: 0x19318, symBinAddr: 0x10001BEB0, symSize: 0x2C }
  - { offset: 0x3EA72, size: 0x8, addend: 0x0, symName: __ZN10union_findC1Ex, symObjAddr: 0x19344, symBinAddr: 0x10001BEDC, symSize: 0x34 }
  - { offset: 0x3EAAB, size: 0x8, addend: 0x0, symName: __ZNSt3__16vectorINS_4pairIfxEENS_9allocatorIS2_EEEaSB8ne180100EOS5_, symObjAddr: 0x19378, symBinAddr: 0x10001BF10, symSize: 0x34 }
  - { offset: 0x3EAE2, size: 0x8, addend: 0x0, symName: __ZNSt3__16vectorINS_4pairIfxEENS_9allocatorIS2_EEE6rbeginB8ne180100Ev, symObjAddr: 0x19404, symBinAddr: 0x10001BF9C, symSize: 0x44 }
  - { offset: 0x3EB08, size: 0x8, addend: 0x0, symName: __ZNSt3__16vectorINS_4pairIfxEENS_9allocatorIS2_EEE4rendB8ne180100Ev, symObjAddr: 0x19448, symBinAddr: 0x10001BFE0, symSize: 0x44 }
  - { offset: 0x3EB2D, size: 0x8, addend: 0x0, symName: __Z33greater_diameter_or_smaller_indexINSt3__14pairIfxEEEbRKT_S5_, symObjAddr: 0x1948C, symBinAddr: 0x10001C024, symSize: 0xC8 }
  - { offset: 0x3EB71, size: 0x8, addend: 0x0, symName: __ZNSt3__16vectorINS_4pairIfxEENS_9allocatorIS2_EEE5beginB8ne180100Ev, symObjAddr: 0x19554, symBinAddr: 0x10001C0EC, symSize: 0x30 }
  - { offset: 0x3EB99, size: 0x8, addend: 0x0, symName: __ZNSt3__16vectorINS_4pairIfxEENS_9allocatorIS2_EEE3endB8ne180100Ev, symObjAddr: 0x19584, symBinAddr: 0x10001C11C, symSize: 0x30 }
  - { offset: 0x3EBC1, size: 0x8, addend: 0x0, symName: __ZNKSt3__111__wrap_iterIPNS_4pairIfxEEEdeB8ne180100Ev, symObjAddr: 0x195E8, symBinAddr: 0x10001C180, symSize: 0x18 }
  - { offset: 0x3EBE7, size: 0x8, addend: 0x0, symName: __ZNSt3__111__wrap_iterIPNS_4pairIfxEEEppB8ne180100Ev, symObjAddr: 0x19600, symBinAddr: 0x10001C198, symSize: 0x20 }
  - { offset: 0x3EC0D, size: 0x8, addend: 0x0, symName: __ZNK6ripserI22sparse_distance_matrixE20get_simplex_verticesINSt3__116reverse_iteratorINS3_11__wrap_iterIPxEEEEEET_xxxS9_, symObjAddr: 0x19620, symBinAddr: 0x10001C1B8, symSize: 0x10C }
  - { offset: 0x3EC95, size: 0x8, addend: 0x0, symName: __ZN10union_find4findEx, symObjAddr: 0x1972C, symBinAddr: 0x10001C2C4, symSize: 0xC0 }
  - { offset: 0x3ECE8, size: 0x8, addend: 0x0, symName: __ZN10union_find4linkExx, symObjAddr: 0x197EC, symBinAddr: 0x10001C384, symSize: 0x14C }
  - { offset: 0x3ED2C, size: 0x8, addend: 0x0, symName: __ZN6ripserI22sparse_distance_matrixE25get_zero_apparent_cofacetE16diameter_entry_tx, symObjAddr: 0x19938, symBinAddr: 0x10001C4D0, symSize: 0xF0 }
  - { offset: 0x3ED7F, size: 0x8, addend: 0x0, symName: __ZN16diameter_entry_tC1ERKNSt3__14pairIfxEE, symObjAddr: 0x19A28, symBinAddr: 0x10001C5C0, symSize: 0x68 }
  - { offset: 0x3EDB7, size: 0x8, addend: 0x0, symName: __ZNSt3__16vectorINS_4pairIfxEENS_9allocatorIS2_EEE9push_backB8ne180100ERKS2_, symObjAddr: 0x19A90, symBinAddr: 0x10001C628, symSize: 0x90 }
  - { offset: 0x3EDFD, size: 0x8, addend: 0x0, symName: __ZN10union_findD1Ev, symObjAddr: 0x19B5C, symBinAddr: 0x10001C6F4, symSize: 0x2C }
  - { offset: 0x3EE2A, size: 0x8, addend: 0x0, symName: __ZN10union_findC2Ex, symObjAddr: 0x19B88, symBinAddr: 0x10001C720, symSize: 0xC8 }
  - { offset: 0x3EE80, size: 0x8, addend: 0x0, symName: __ZNSt3__16vectorIhNS_9allocatorIhEEEC1EmRKh, symObjAddr: 0x19C50, symBinAddr: 0x10001C7E8, symSize: 0x3C }
  - { offset: 0x3EECA, size: 0x8, addend: 0x0, symName: __ZNSt3__16vectorIhNS_9allocatorIhEEEC2EmRKh, symObjAddr: 0x19C8C, symBinAddr: 0x10001C824, symSize: 0xDC }
  - { offset: 0x3EF29, size: 0x8, addend: 0x0, symName: __ZNSt3__117__compressed_pairIPhNS_9allocatorIhEEEC1B8ne180100IDnNS_18__default_init_tagEEEOT_OT0_, symObjAddr: 0x19D68, symBinAddr: 0x10001C900, symSize: 0x3C }
  - { offset: 0x3EF81, size: 0x8, addend: 0x0, symName: __ZNSt3__16vectorIhNS_9allocatorIhEEE16__destroy_vectorC1B8ne180100ERS3_, symObjAddr: 0x19DE4, symBinAddr: 0x10001C97C, symSize: 0x34 }
  - { offset: 0x3EFBA, size: 0x8, addend: 0x0, symName: __ZNSt3__16vectorIhNS_9allocatorIhEEE11__vallocateB8ne180100Em, symObjAddr: 0x19E18, symBinAddr: 0x10001C9B0, symSize: 0xAC }
  - { offset: 0x3EFFE, size: 0x8, addend: 0x0, symName: __ZNSt3__16vectorIhNS_9allocatorIhEEE18__construct_at_endEmRKh, symObjAddr: 0x19EC4, symBinAddr: 0x10001CA5C, symSize: 0xD0 }
  - { offset: 0x3F07F, size: 0x8, addend: 0x0, symName: __ZNSt3__128__exception_guard_exceptionsINS_6vectorIhNS_9allocatorIhEEE16__destroy_vectorEE10__completeB8ne180100Ev, symObjAddr: 0x19F94, symBinAddr: 0x10001CB2C, symSize: 0x1C }
  - { offset: 0x3F0A5, size: 0x8, addend: 0x0, symName: __ZNSt3__128__exception_guard_exceptionsINS_6vectorIhNS_9allocatorIhEEE16__destroy_vectorEED1B8ne180100Ev, symObjAddr: 0x19FB0, symBinAddr: 0x10001CB48, symSize: 0x2C }
  - { offset: 0x3F0CF, size: 0x8, addend: 0x0, symName: __ZNSt3__117__compressed_pairIPhNS_9allocatorIhEEEC2B8ne180100IDnNS_18__default_init_tagEEEOT_OT0_, symObjAddr: 0x19FDC, symBinAddr: 0x10001CB74, symSize: 0x40 }
  - { offset: 0x3F127, size: 0x8, addend: 0x0, symName: __ZNSt3__122__compressed_pair_elemIPhLi0ELb0EEC2B8ne180100IDnvEEOT_, symObjAddr: 0x1A01C, symBinAddr: 0x10001CBB4, symSize: 0x1C }
  - { offset: 0x3F169, size: 0x8, addend: 0x0, symName: __ZNSt3__122__compressed_pair_elemINS_9allocatorIhEELi1ELb1EEC2B8ne180100ENS_18__default_init_tagE, symObjAddr: 0x1A038, symBinAddr: 0x10001CBD0, symSize: 0x2C }
  - { offset: 0x3F19D, size: 0x8, addend: 0x0, symName: __ZNSt3__19allocatorIhEC2B8ne180100Ev, symObjAddr: 0x1A064, symBinAddr: 0x10001CBFC, symSize: 0x2C }
  - { offset: 0x3F1C7, size: 0x8, addend: 0x0, symName: __ZNSt3__116__non_trivial_ifILb1ENS_9allocatorIhEEEC2B8ne180100Ev, symObjAddr: 0x1A090, symBinAddr: 0x10001CC28, symSize: 0x14 }
  - { offset: 0x3F1F1, size: 0x8, addend: 0x0, symName: __ZNSt3__128__exception_guard_exceptionsINS_6vectorIhNS_9allocatorIhEEE16__destroy_vectorEEC1B8ne180100ES5_, symObjAddr: 0x1A0A4, symBinAddr: 0x10001CC3C, symSize: 0x34 }
  - { offset: 0x3F229, size: 0x8, addend: 0x0, symName: __ZNSt3__128__exception_guard_exceptionsINS_6vectorIhNS_9allocatorIhEEE16__destroy_vectorEEC2B8ne180100ES5_, symObjAddr: 0x1A0D8, symBinAddr: 0x10001CC70, symSize: 0x24 }
  - { offset: 0x3F261, size: 0x8, addend: 0x0, symName: __ZNSt3__16vectorIhNS_9allocatorIhEEE16__destroy_vectorC2B8ne180100ERS3_, symObjAddr: 0x1A0FC, symBinAddr: 0x10001CC94, symSize: 0x20 }
  - { offset: 0x3F29A, size: 0x8, addend: 0x0, symName: __ZNKSt3__16vectorIhNS_9allocatorIhEEE8max_sizeEv, symObjAddr: 0x1A11C, symBinAddr: 0x10001CCB4, symSize: 0x60 }
  - { offset: 0x3F2C2, size: 0x8, addend: 0x0, symName: __ZNKSt3__16vectorIhNS_9allocatorIhEEE20__throw_length_errorB8ne180100Ev, symObjAddr: 0x1A17C, symBinAddr: 0x10001CD14, symSize: 0x1C }
  - { offset: 0x3F2E8, size: 0x8, addend: 0x0, symName: __ZNSt3__16vectorIhNS_9allocatorIhEEE7__allocB8ne180100Ev, symObjAddr: 0x1A1D8, symBinAddr: 0x10001CD70, symSize: 0x28 }
  - { offset: 0x3F30E, size: 0x8, addend: 0x0, symName: __ZNSt3__16vectorIhNS_9allocatorIhEEE9__end_capB8ne180100Ev, symObjAddr: 0x1A200, symBinAddr: 0x10001CD98, symSize: 0x28 }
  - { offset: 0x3F334, size: 0x8, addend: 0x0, symName: __ZNKSt3__16vectorIhNS_9allocatorIhEEE14__annotate_newB8ne180100Em, symObjAddr: 0x1A228, symBinAddr: 0x10001CDC0, symSize: 0x14 }
  - { offset: 0x3F373, size: 0x8, addend: 0x0, symName: __ZNSt3__116allocator_traitsINS_9allocatorIhEEE8max_sizeB8ne180100IS2_vEEmRKS2_, symObjAddr: 0x1A23C, symBinAddr: 0x10001CDD4, symSize: 0x24 }
  - { offset: 0x3F3A1, size: 0x8, addend: 0x0, symName: __ZNKSt3__16vectorIhNS_9allocatorIhEEE7__allocB8ne180100Ev, symObjAddr: 0x1A260, symBinAddr: 0x10001CDF8, symSize: 0x28 }
  - { offset: 0x3F3C7, size: 0x8, addend: 0x0, symName: __ZNKSt3__19allocatorIhE8max_sizeB8ne180100Ev, symObjAddr: 0x1A288, symBinAddr: 0x10001CE20, symSize: 0x14 }
  - { offset: 0x3F3ED, size: 0x8, addend: 0x0, symName: __ZNKSt3__117__compressed_pairIPhNS_9allocatorIhEEE6secondB8ne180100Ev, symObjAddr: 0x1A29C, symBinAddr: 0x10001CE34, symSize: 0x24 }
  - { offset: 0x3F413, size: 0x8, addend: 0x0, symName: __ZNKSt3__122__compressed_pair_elemINS_9allocatorIhEELi1ELb1EE5__getB8ne180100Ev, symObjAddr: 0x1A2C0, symBinAddr: 0x10001CE58, symSize: 0x14 }
  - { offset: 0x3F439, size: 0x8, addend: 0x0, symName: __ZNSt3__19allocatorIhE8allocateB8ne180100Em, symObjAddr: 0x1A2D4, symBinAddr: 0x10001CE6C, symSize: 0x58 }
  - { offset: 0x3F46D, size: 0x8, addend: 0x0, symName: __ZNSt3__117__compressed_pairIPhNS_9allocatorIhEEE6secondB8ne180100Ev, symObjAddr: 0x1A32C, symBinAddr: 0x10001CEC4, symSize: 0x24 }
  - { offset: 0x3F493, size: 0x8, addend: 0x0, symName: __ZNSt3__122__compressed_pair_elemINS_9allocatorIhEELi1ELb1EE5__getB8ne180100Ev, symObjAddr: 0x1A350, symBinAddr: 0x10001CEE8, symSize: 0x14 }
  - { offset: 0x3F4B9, size: 0x8, addend: 0x0, symName: __ZNSt3__117__compressed_pairIPhNS_9allocatorIhEEE5firstB8ne180100Ev, symObjAddr: 0x1A364, symBinAddr: 0x10001CEFC, symSize: 0x24 }
  - { offset: 0x3F4DF, size: 0x8, addend: 0x0, symName: __ZNSt3__122__compressed_pair_elemIPhLi0ELb0EE5__getB8ne180100Ev, symObjAddr: 0x1A388, symBinAddr: 0x10001CF20, symSize: 0x14 }
  - { offset: 0x3F51E, size: 0x8, addend: 0x0, symName: __ZNSt3__16vectorIhNS_9allocatorIhEEE21_ConstructTransactionC1B8ne180100ERS3_m, symObjAddr: 0x1A39C, symBinAddr: 0x10001CF34, symSize: 0x3C }
  - { offset: 0x3F566, size: 0x8, addend: 0x0, symName: __ZNSt3__116allocator_traitsINS_9allocatorIhEEE9constructB8ne180100IhJRKhEvEEvRS2_PT_DpOT0_, symObjAddr: 0x1A3D8, symBinAddr: 0x10001CF70, symSize: 0x34 }
  - { offset: 0x3F5BD, size: 0x8, addend: 0x0, symName: __ZNSt3__16vectorIhNS_9allocatorIhEEE21_ConstructTransactionD1B8ne180100Ev, symObjAddr: 0x1A420, symBinAddr: 0x10001CFB8, symSize: 0x2C }
  - { offset: 0x3F5E7, size: 0x8, addend: 0x0, symName: __ZNSt3__16vectorIhNS_9allocatorIhEEE21_ConstructTransactionC2B8ne180100ERS3_m, symObjAddr: 0x1A44C, symBinAddr: 0x10001CFE4, symSize: 0x44 }
  - { offset: 0x3F62F, size: 0x8, addend: 0x0, symName: __ZNSt3__19allocatorIhE9constructB8ne180100IhJRKhEEEvPT_DpOT0_, symObjAddr: 0x1A490, symBinAddr: 0x10001D028, symSize: 0x28 }
  - { offset: 0x3F685, size: 0x8, addend: 0x0, symName: __ZNSt3__16vectorIhNS_9allocatorIhEEE21_ConstructTransactionD2B8ne180100Ev, symObjAddr: 0x1A4B8, symBinAddr: 0x10001D050, symSize: 0x20 }
  - { offset: 0x3F6AF, size: 0x8, addend: 0x0, symName: __ZNSt3__128__exception_guard_exceptionsINS_6vectorIhNS_9allocatorIhEEE16__destroy_vectorEED2B8ne180100Ev, symObjAddr: 0x1A4D8, symBinAddr: 0x10001D070, symSize: 0x50 }
  - { offset: 0x3F6D9, size: 0x8, addend: 0x0, symName: __ZNSt3__16vectorIhNS_9allocatorIhEEE16__destroy_vectorclB8ne180100Ev, symObjAddr: 0x1A528, symBinAddr: 0x10001D0C0, symSize: 0x90 }
  - { offset: 0x3F6FF, size: 0x8, addend: 0x0, symName: __ZNSt3__16vectorIhNS_9allocatorIhEEE7__clearB8ne180100Ev, symObjAddr: 0x1A5B8, symBinAddr: 0x10001D150, symSize: 0x28 }
  - { offset: 0x3F725, size: 0x8, addend: 0x0, symName: __ZNKSt3__16vectorIhNS_9allocatorIhEEE17__annotate_deleteB8ne180100Ev, symObjAddr: 0x1A5E0, symBinAddr: 0x10001D178, symSize: 0x10 }
  - { offset: 0x3F74B, size: 0x8, addend: 0x0, symName: __ZNSt3__116allocator_traitsINS_9allocatorIhEEE10deallocateB8ne180100ERS2_Phm, symObjAddr: 0x1A5F0, symBinAddr: 0x10001D188, symSize: 0x34 }
  - { offset: 0x3F78D, size: 0x8, addend: 0x0, symName: __ZNKSt3__16vectorIhNS_9allocatorIhEEE8capacityB8ne180100Ev, symObjAddr: 0x1A624, symBinAddr: 0x10001D1BC, symSize: 0x38 }
  - { offset: 0x3F7B3, size: 0x8, addend: 0x0, symName: __ZNSt3__16vectorIhNS_9allocatorIhEEE22__base_destruct_at_endB8ne180100EPh, symObjAddr: 0x1A65C, symBinAddr: 0x10001D1F4, symSize: 0x8C }
  - { offset: 0x3F7F7, size: 0x8, addend: 0x0, symName: __ZNSt3__116allocator_traitsINS_9allocatorIhEEE7destroyB8ne180100IhvEEvRS2_PT_, symObjAddr: 0x1A6E8, symBinAddr: 0x10001D280, symSize: 0x2C }
  - { offset: 0x3F834, size: 0x8, addend: 0x0, symName: __ZNSt3__19allocatorIhE7destroyB8ne180100EPh, symObjAddr: 0x1A714, symBinAddr: 0x10001D2AC, symSize: 0x14 }
  - { offset: 0x3F868, size: 0x8, addend: 0x0, symName: __ZNSt3__19allocatorIhE10deallocateB8ne180100EPhm, symObjAddr: 0x1A728, symBinAddr: 0x10001D2C0, symSize: 0x40 }
  - { offset: 0x3F8AA, size: 0x8, addend: 0x0, symName: __ZNKSt3__16vectorIhNS_9allocatorIhEEE9__end_capB8ne180100Ev, symObjAddr: 0x1A768, symBinAddr: 0x10001D300, symSize: 0x28 }
  - { offset: 0x3F8D0, size: 0x8, addend: 0x0, symName: __ZNKSt3__117__compressed_pairIPhNS_9allocatorIhEEE5firstB8ne180100Ev, symObjAddr: 0x1A790, symBinAddr: 0x10001D328, symSize: 0x24 }
  - { offset: 0x3F8F6, size: 0x8, addend: 0x0, symName: __ZNKSt3__122__compressed_pair_elemIPhLi0ELb0EE5__getB8ne180100Ev, symObjAddr: 0x1A7B4, symBinAddr: 0x10001D34C, symSize: 0x14 }
  - { offset: 0x3F91C, size: 0x8, addend: 0x0, symName: __ZNSt3__16vectorINS_4pairIfxEENS_9allocatorIS2_EEE13__move_assignERS5_NS_17integral_constantIbLb1EEE, symObjAddr: 0x1A7C8, symBinAddr: 0x10001D360, symSize: 0x94 }
  - { offset: 0x3F95E, size: 0x8, addend: 0x0, symName: __ZNSt3__16vectorINS_4pairIfxEENS_9allocatorIS2_EEE13__vdeallocateEv, symObjAddr: 0x1A85C, symBinAddr: 0x10001D3F4, symSize: 0x94 }
  - { offset: 0x3F986, size: 0x8, addend: 0x0, symName: __ZNSt3__16vectorINS_4pairIfxEENS_9allocatorIS2_EEE19__move_assign_allocB8ne180100ERS5_, symObjAddr: 0x1A8F0, symBinAddr: 0x10001D488, symSize: 0x2C }
  - { offset: 0x3F9BB, size: 0x8, addend: 0x0, symName: __ZNSt3__16vectorINS_4pairIfxEENS_9allocatorIS2_EEE5clearB8ne180100Ev, symObjAddr: 0x1A91C, symBinAddr: 0x10001D4B4, symSize: 0x44 }
  - { offset: 0x3F9F0, size: 0x8, addend: 0x0, symName: __ZNKSt3__16vectorINS_4pairIfxEENS_9allocatorIS2_EEE17__annotate_shrinkB8ne180100Em, symObjAddr: 0x1A960, symBinAddr: 0x10001D4F8, symSize: 0x14 }
  - { offset: 0x3FA25, size: 0x8, addend: 0x0, symName: __ZNSt3__16vectorINS_4pairIfxEENS_9allocatorIS2_EEE19__move_assign_allocB8ne180100ERS5_NS_17integral_constantIbLb1EEE, symObjAddr: 0x1A974, symBinAddr: 0x10001D50C, symSize: 0x38 }
  - { offset: 0x3FA65, size: 0x8, addend: 0x0, symName: __ZNKSt3__116reverse_iteratorINS_11__wrap_iterIPNS_4pairIfxEEEEE4baseB8ne180100Ev, symObjAddr: 0x1B418, symBinAddr: 0x10001DFB0, symSize: 0x20 }
  - { offset: 0x3FA8B, size: 0x8, addend: 0x0, symName: __ZNKSt3__111__wrap_iterIPNS_4pairIfxEEE4baseB8ne180100Ev, symObjAddr: 0x1B438, symBinAddr: 0x10001DFD0, symSize: 0x18 }
  - { offset: 0x3FAB1, size: 0x8, addend: 0x0, symName: __ZNSt3__116reverse_iteratorINS_11__wrap_iterIPNS_4pairIfxEEEEEmmB8ne180100Ev, symObjAddr: 0x1B450, symBinAddr: 0x10001DFE8, symSize: 0x30 }
  - { offset: 0x3FAD7, size: 0x8, addend: 0x0, symName: __ZNKSt3__116reverse_iteratorINS_11__wrap_iterIPNS_4pairIfxEEEEEdeB8ne180100Ev, symObjAddr: 0x1B480, symBinAddr: 0x10001E018, symSize: 0x34 }
  - { offset: 0x3FB0B, size: 0x8, addend: 0x0, symName: __ZNSt3__18_IterOpsINS_17_ClassicAlgPolicyEE9iter_swapB8ne180100IRNS_16reverse_iteratorINS_11__wrap_iterIPNS_4pairIfxEEEEEESB_EEvOT_OT0_, symObjAddr: 0x1B4B4, symBinAddr: 0x10001E04C, symSize: 0x4C }
  - { offset: 0x3FB4E, size: 0x8, addend: 0x0, symName: __ZNKSt3__116reverse_iteratorINS_11__wrap_iterIPNS_4pairIfxEEEEEplB8ne180100El, symObjAddr: 0x1B56C, symBinAddr: 0x10001E104, symSize: 0x48 }
  - { offset: 0x3FB82, size: 0x8, addend: 0x0, symName: __ZNKSt3__116reverse_iteratorINS_11__wrap_iterIPNS_4pairIfxEEEEEmiB8ne180100El, symObjAddr: 0x1BD3C, symBinAddr: 0x10001E8D4, symSize: 0x48 }
  - { offset: 0x3FBBC, size: 0x8, addend: 0x0, symName: __ZNSt3__18_IterOpsINS_17_ClassicAlgPolicyEE9iter_swapB8ne180100IRNS_16reverse_iteratorINS_11__wrap_iterIPNS_4pairIfxEEEEEESA_EEvOT_OT0_, symObjAddr: 0x1BD84, symBinAddr: 0x10001E91C, symSize: 0x4C }
  - { offset: 0x3FBFF, size: 0x8, addend: 0x0, symName: __ZNSt3__116reverse_iteratorINS_11__wrap_iterIPNS_4pairIfxEEEEEppB8ne180100Ev, symObjAddr: 0x1CB94, symBinAddr: 0x10001F72C, symSize: 0x30 }
  - { offset: 0x3FC25, size: 0x8, addend: 0x0, symName: __ZNSt3__111__wrap_iterIPNS_4pairIfxEEEmmB8ne180100Ev, symObjAddr: 0x1CBC4, symBinAddr: 0x10001F75C, symSize: 0x20 }
  - { offset: 0x3FC4B, size: 0x8, addend: 0x0, symName: __ZNSt3__14pairIfxE4swapB8ne180100ERS1_, symObjAddr: 0x1CC68, symBinAddr: 0x10001F800, symSize: 0x44 }
  - { offset: 0x3FC80, size: 0x8, addend: 0x0, symName: __ZNKSt3__111__wrap_iterIPNS_4pairIfxEEEmiB8ne180100El, symObjAddr: 0x1CCAC, symBinAddr: 0x10001F844, symSize: 0x3C }
  - { offset: 0x3FCB4, size: 0x8, addend: 0x0, symName: __ZNSt3__116reverse_iteratorINS_11__wrap_iterIPNS_4pairIfxEEEEEC1B8ne180100ES5_, symObjAddr: 0x1CCE8, symBinAddr: 0x10001F880, symSize: 0x34 }
  - { offset: 0x3FCEC, size: 0x8, addend: 0x0, symName: __ZNKSt3__111__wrap_iterIPNS_4pairIfxEEEplB8ne180100El, symObjAddr: 0x1CD1C, symBinAddr: 0x10001F8B4, symSize: 0x3C }
  - { offset: 0x3FD2E, size: 0x8, addend: 0x0, symName: __ZNSt3__111__wrap_iterIPNS_4pairIfxEEEpLB8ne180100El, symObjAddr: 0x1CD58, symBinAddr: 0x10001F8F0, symSize: 0x28 }
  - { offset: 0x3FD62, size: 0x8, addend: 0x0, symName: __ZNSt3__116reverse_iteratorINS_11__wrap_iterIPNS_4pairIfxEEEEEC2B8ne180100ES5_, symObjAddr: 0x1CD80, symBinAddr: 0x10001F918, symSize: 0x28 }
  - { offset: 0x3FDA0, size: 0x8, addend: 0x0, symName: __ZNSt3__18_IterOpsINS_17_ClassicAlgPolicyEE11__iter_moveB8ne180100IRNS_16reverse_iteratorINS_11__wrap_iterIPNS_4pairIfxEEEEEELi0EEEDTclsr3stdE4movedeclsr3stdE7declvalIRT_EEEEOSC_, symObjAddr: 0x1D1A4, symBinAddr: 0x10001FD3C, symSize: 0x28 }
  - { offset: 0x3FDD2, size: 0x8, addend: 0x0, symName: __ZNSt3__14pairIfxEaSB8ne180100EOS1_, symObjAddr: 0x1D1CC, symBinAddr: 0x10001FD64, symSize: 0x30 }
  - { offset: 0x3FE07, size: 0x8, addend: 0x0, symName: __ZNSt3__18_IterOpsINS_17_ClassicAlgPolicyEE25__validate_iter_referenceB8ne180100IRNS_16reverse_iteratorINS_11__wrap_iterIPNS_4pairIfxEEEEEEEEvv, symObjAddr: 0x1D244, symBinAddr: 0x10001FDDC, symSize: 0x4 }
  - { offset: 0x3FE25, size: 0x8, addend: 0x0, symName: __ZNSt3__18_IterOpsINS_17_ClassicAlgPolicyEE4nextB8ne180100INS_16reverse_iteratorINS_11__wrap_iterIPNS_4pairIfxEEEEEEEET_SB_SB_, symObjAddr: 0x1D248, symBinAddr: 0x10001FDE0, symSize: 0x2C }
  - { offset: 0x3FE5B, size: 0x8, addend: 0x0, symName: __ZNSt3__116reverse_iteratorINS_11__wrap_iterIPNS_4pairIfxEEEEEpLB8ne180100El, symObjAddr: 0x1DCDC, symBinAddr: 0x100020874, symSize: 0x38 }
  - { offset: 0x3FE8F, size: 0x8, addend: 0x0, symName: __ZNSt3__111__wrap_iterIPNS_4pairIfxEEEmIB8ne180100El, symObjAddr: 0x1DD14, symBinAddr: 0x1000208AC, symSize: 0x3C }
  - { offset: 0x3FEC3, size: 0x8, addend: 0x0, symName: __ZNSt3__116reverse_iteratorINS_11__wrap_iterIPNS_4pairIfxEEEEEmIB8ne180100El, symObjAddr: 0x1E104, symBinAddr: 0x100020C9C, symSize: 0x38 }
  - { offset: 0x3FEF7, size: 0x8, addend: 0x0, symName: __ZNSt3__18_IterOpsINS_17_ClassicAlgPolicyEE9iter_swapB8ne180100INS_16reverse_iteratorINS_11__wrap_iterIPNS_4pairIfxEEEEEESA_EEvOT_OT0_, symObjAddr: 0x1E674, symBinAddr: 0x10002120C, symSize: 0x4C }
  - { offset: 0x3FF54, size: 0x8, addend: 0x0, symName: __ZNSt3__14pairINS_16reverse_iteratorINS_11__wrap_iterIPNS0_IfxEEEEEEbEC1B8ne180100IRS6_RbLi0EEEOT_OT0_, symObjAddr: 0x1E6C0, symBinAddr: 0x100021258, symSize: 0x3C }
  - { offset: 0x3FFB2, size: 0x8, addend: 0x0, symName: __ZNSt3__14pairINS_16reverse_iteratorINS_11__wrap_iterIPNS0_IfxEEEEEEbEC2B8ne180100IRS6_RbLi0EEEOT_OT0_, symObjAddr: 0x1E6FC, symBinAddr: 0x100021294, symSize: 0x38 }
  - { offset: 0x40010, size: 0x8, addend: 0x0, symName: __ZNSt3__118__unwrap_iter_implINS_16reverse_iteratorINS_11__wrap_iterIPNS_4pairIfxEEEEEELb0EE8__unwrapB8ne180100ES7_, symObjAddr: 0x1E734, symBinAddr: 0x1000212CC, symSize: 0x24 }
  - { offset: 0x40033, size: 0x8, addend: 0x0, symName: __ZNSt3__16vectorINS_4pairIfxEENS_9allocatorIS2_EEE11__make_iterB8ne180100EPS2_, symObjAddr: 0x1E758, symBinAddr: 0x1000212F0, symSize: 0x30 }
  - { offset: 0x40068, size: 0x8, addend: 0x0, symName: __ZNSt3__111__wrap_iterIPNS_4pairIfxEEEC1B8ne180100ES3_, symObjAddr: 0x1E788, symBinAddr: 0x100021320, symSize: 0x34 }
  - { offset: 0x400A0, size: 0x8, addend: 0x0, symName: __ZNSt3__111__wrap_iterIPNS_4pairIfxEEEC2B8ne180100ES3_, symObjAddr: 0x1E7BC, symBinAddr: 0x100021354, symSize: 0x20 }
  - { offset: 0x400D8, size: 0x8, addend: 0x0, symName: __ZNK6ripserI22sparse_distance_matrixE14get_max_vertexExxx, symObjAddr: 0x1E7DC, symBinAddr: 0x100021374, symSize: 0x54 }
  - { offset: 0x40172, size: 0x8, addend: 0x0, symName: __Z7get_maxIZNK6ripserI22sparse_distance_matrixE14get_max_vertexExxxEUlxE_ExxxT_, symObjAddr: 0x1E830, symBinAddr: 0x1000213C8, symSize: 0xD8 }
  - { offset: 0x40221, size: 0x8, addend: 0x0, symName: __ZZNK6ripserI22sparse_distance_matrixE14get_max_vertexExxxENKUlxE_clEx, symObjAddr: 0x1E908, symBinAddr: 0x1000214A0, symSize: 0x58 }
  - { offset: 0x4025A, size: 0x8, addend: 0x0, symName: __ZNSt3__16vectorIhNS_9allocatorIhEEEixB8ne180100Em, symObjAddr: 0x1E960, symBinAddr: 0x1000214F8, symSize: 0x24 }
  - { offset: 0x40291, size: 0x8, addend: 0x0, symName: __ZN16diameter_entry_tC1ERKx, symObjAddr: 0x1EC64, symBinAddr: 0x1000217FC, symSize: 0x40 }
  - { offset: 0x402C9, size: 0x8, addend: 0x0, symName: __ZN6ripserI22sparse_distance_matrixE29simplex_coboundary_enumeratorC1ERKS1_, symObjAddr: 0x1ECA4, symBinAddr: 0x10002183C, symSize: 0x34 }
  - { offset: 0x40302, size: 0x8, addend: 0x0, symName: __ZN6ripserI22sparse_distance_matrixE29simplex_coboundary_enumeratorD1Ev, symObjAddr: 0x1ECD8, symBinAddr: 0x100021870, symSize: 0x2C }
  - { offset: 0x4032F, size: 0x8, addend: 0x0, symName: __ZN6ripserI22sparse_distance_matrixE29simplex_coboundary_enumerator11set_simplexE16diameter_entry_tx, symObjAddr: 0x1ED04, symBinAddr: 0x10002189C, symSize: 0x1B8 }
  - { offset: 0x403AF, size: 0x8, addend: 0x0, symName: __ZN6ripserI22sparse_distance_matrixE29simplex_coboundary_enumerator8has_nextEb, symObjAddr: 0x1EEBC, symBinAddr: 0x100021A54, symSize: 0x330 }
  - { offset: 0x4046B, size: 0x8, addend: 0x0, symName: __ZN6ripserI22sparse_distance_matrixE29simplex_coboundary_enumerator4nextEv, symObjAddr: 0x1F1EC, symBinAddr: 0x100021D84, symSize: 0x13C }
  - { offset: 0x404BE, size: 0x8, addend: 0x0, symName: __ZN6ripserI22sparse_distance_matrixE29simplex_coboundary_enumeratorC2ERKS1_, symObjAddr: 0x1F328, symBinAddr: 0x100021EC0, symSize: 0x8C }
  - { offset: 0x404F7, size: 0x8, addend: 0x0, symName: __ZN16diameter_entry_tC1Ev, symObjAddr: 0x1F3B4, symBinAddr: 0x100021F4C, symSize: 0x2C }
  - { offset: 0x40523, size: 0x8, addend: 0x0, symName: __ZNSt3__16vectorINS_16reverse_iteratorINS_11__wrap_iterIPKNS_4pairIxfEEEEEENS_9allocatorIS8_EEEC1B8ne180100Ev, symObjAddr: 0x1F3E0, symBinAddr: 0x100021F78, symSize: 0x2C }
  - { offset: 0x4054D, size: 0x8, addend: 0x0, symName: __ZNSt3__14pairIxfEC1B8ne180100ILb1ELi0EEEv, symObjAddr: 0x1F40C, symBinAddr: 0x100021FA4, symSize: 0x2C }
  - { offset: 0x40587, size: 0x8, addend: 0x0, symName: __ZN16diameter_entry_tC2Ev, symObjAddr: 0x1F438, symBinAddr: 0x100021FD0, symSize: 0x2C }
  - { offset: 0x405B3, size: 0x8, addend: 0x0, symName: __ZNSt3__14pairIfxEC2B8ne180100ILb1ELi0EEEv, symObjAddr: 0x1F464, symBinAddr: 0x100021FFC, symSize: 0x20 }
  - { offset: 0x405ED, size: 0x8, addend: 0x0, symName: __ZNSt3__16vectorINS_16reverse_iteratorINS_11__wrap_iterIPKNS_4pairIxfEEEEEENS_9allocatorIS8_EEEC2B8ne180100Ev, symObjAddr: 0x1F484, symBinAddr: 0x10002201C, symSize: 0x4C }
  - { offset: 0x40617, size: 0x8, addend: 0x0, symName: __ZNSt3__117__compressed_pairIPNS_16reverse_iteratorINS_11__wrap_iterIPKNS_4pairIxfEEEEEENS_9allocatorIS8_EEEC1B8ne180100IDnNS_18__default_init_tagEEEOT_OT0_, symObjAddr: 0x1F4D0, symBinAddr: 0x100022068, symSize: 0x3C }
  - { offset: 0x4066F, size: 0x8, addend: 0x0, symName: __ZNSt3__117__compressed_pairIPNS_16reverse_iteratorINS_11__wrap_iterIPKNS_4pairIxfEEEEEENS_9allocatorIS8_EEEC2B8ne180100IDnNS_18__default_init_tagEEEOT_OT0_, symObjAddr: 0x1F50C, symBinAddr: 0x1000220A4, symSize: 0x40 }
  - { offset: 0x406C7, size: 0x8, addend: 0x0, symName: __ZNSt3__122__compressed_pair_elemIPNS_16reverse_iteratorINS_11__wrap_iterIPKNS_4pairIxfEEEEEELi0ELb0EEC2B8ne180100IDnvEEOT_, symObjAddr: 0x1F54C, symBinAddr: 0x1000220E4, symSize: 0x1C }
  - { offset: 0x40709, size: 0x8, addend: 0x0, symName: __ZNSt3__122__compressed_pair_elemINS_9allocatorINS_16reverse_iteratorINS_11__wrap_iterIPKNS_4pairIxfEEEEEEEELi1ELb1EEC2B8ne180100ENS_18__default_init_tagE, symObjAddr: 0x1F568, symBinAddr: 0x100022100, symSize: 0x2C }
  - { offset: 0x4073D, size: 0x8, addend: 0x0, symName: __ZNSt3__19allocatorINS_16reverse_iteratorINS_11__wrap_iterIPKNS_4pairIxfEEEEEEEC2B8ne180100Ev, symObjAddr: 0x1F594, symBinAddr: 0x10002212C, symSize: 0x2C }
  - { offset: 0x40767, size: 0x8, addend: 0x0, symName: __ZNSt3__116__non_trivial_ifILb1ENS_9allocatorINS_16reverse_iteratorINS_11__wrap_iterIPKNS_4pairIxfEEEEEEEEEC2B8ne180100Ev, symObjAddr: 0x1F5C0, symBinAddr: 0x100022158, symSize: 0x14 }
  - { offset: 0x40791, size: 0x8, addend: 0x0, symName: __ZNSt3__14pairIxfEC2B8ne180100ILb1ELi0EEEv, symObjAddr: 0x1F5D4, symBinAddr: 0x10002216C, symSize: 0x20 }
  - { offset: 0x407CB, size: 0x8, addend: 0x0, symName: __ZN6ripserI22sparse_distance_matrixE29simplex_coboundary_enumeratorD2Ev, symObjAddr: 0x1F5F4, symBinAddr: 0x10002218C, symSize: 0x48 }
  - { offset: 0x407F8, size: 0x8, addend: 0x0, symName: __ZNSt3__16vectorINS_16reverse_iteratorINS_11__wrap_iterIPKNS_4pairIxfEEEEEENS_9allocatorIS8_EEED1B8ne180100Ev, symObjAddr: 0x1F63C, symBinAddr: 0x1000221D4, symSize: 0x2C }
  - { offset: 0x40822, size: 0x8, addend: 0x0, symName: __ZNSt3__16vectorINS_16reverse_iteratorINS_11__wrap_iterIPKNS_4pairIxfEEEEEENS_9allocatorIS8_EEED2B8ne180100Ev, symObjAddr: 0x1F668, symBinAddr: 0x100022200, symSize: 0x44 }
  - { offset: 0x4084C, size: 0x8, addend: 0x0, symName: __ZNSt3__16vectorINS_16reverse_iteratorINS_11__wrap_iterIPKNS_4pairIxfEEEEEENS_9allocatorIS8_EEE16__destroy_vectorC1B8ne180100ERSB_, symObjAddr: 0x1F6AC, symBinAddr: 0x100022244, symSize: 0x34 }
  - { offset: 0x40885, size: 0x8, addend: 0x0, symName: __ZNSt3__16vectorINS_16reverse_iteratorINS_11__wrap_iterIPKNS_4pairIxfEEEEEENS_9allocatorIS8_EEE16__destroy_vectorclB8ne180100Ev, symObjAddr: 0x1F6E0, symBinAddr: 0x100022278, symSize: 0x90 }
  - { offset: 0x408AB, size: 0x8, addend: 0x0, symName: __ZNSt3__16vectorINS_16reverse_iteratorINS_11__wrap_iterIPKNS_4pairIxfEEEEEENS_9allocatorIS8_EEE16__destroy_vectorC2B8ne180100ERSB_, symObjAddr: 0x1F770, symBinAddr: 0x100022308, symSize: 0x20 }
  - { offset: 0x408E4, size: 0x8, addend: 0x0, symName: __ZNSt3__16vectorINS_16reverse_iteratorINS_11__wrap_iterIPKNS_4pairIxfEEEEEENS_9allocatorIS8_EEE7__clearB8ne180100Ev, symObjAddr: 0x1F790, symBinAddr: 0x100022328, symSize: 0x28 }
  - { offset: 0x4090A, size: 0x8, addend: 0x0, symName: __ZNKSt3__16vectorINS_16reverse_iteratorINS_11__wrap_iterIPKNS_4pairIxfEEEEEENS_9allocatorIS8_EEE17__annotate_deleteB8ne180100Ev, symObjAddr: 0x1F7B8, symBinAddr: 0x100022350, symSize: 0x10 }
  - { offset: 0x40930, size: 0x8, addend: 0x0, symName: __ZNSt3__116allocator_traitsINS_9allocatorINS_16reverse_iteratorINS_11__wrap_iterIPKNS_4pairIxfEEEEEEEEE10deallocateB8ne180100ERSA_PS9_m, symObjAddr: 0x1F7C8, symBinAddr: 0x100022360, symSize: 0x34 }
  - { offset: 0x40972, size: 0x8, addend: 0x0, symName: __ZNSt3__16vectorINS_16reverse_iteratorINS_11__wrap_iterIPKNS_4pairIxfEEEEEENS_9allocatorIS8_EEE7__allocB8ne180100Ev, symObjAddr: 0x1F7FC, symBinAddr: 0x100022394, symSize: 0x28 }
  - { offset: 0x40998, size: 0x8, addend: 0x0, symName: __ZNKSt3__16vectorINS_16reverse_iteratorINS_11__wrap_iterIPKNS_4pairIxfEEEEEENS_9allocatorIS8_EEE8capacityB8ne180100Ev, symObjAddr: 0x1F824, symBinAddr: 0x1000223BC, symSize: 0x40 }
  - { offset: 0x409BE, size: 0x8, addend: 0x0, symName: __ZNSt3__16vectorINS_16reverse_iteratorINS_11__wrap_iterIPKNS_4pairIxfEEEEEENS_9allocatorIS8_EEE22__base_destruct_at_endB8ne180100EPS8_, symObjAddr: 0x1F864, symBinAddr: 0x1000223FC, symSize: 0x8C }
  - { offset: 0x40A02, size: 0x8, addend: 0x0, symName: __ZNSt3__116allocator_traitsINS_9allocatorINS_16reverse_iteratorINS_11__wrap_iterIPKNS_4pairIxfEEEEEEEEE7destroyB8ne180100IS9_vEEvRSA_PT_, symObjAddr: 0x1F8F0, symBinAddr: 0x100022488, symSize: 0x2C }
  - { offset: 0x40A3F, size: 0x8, addend: 0x0, symName: __ZNSt3__19allocatorINS_16reverse_iteratorINS_11__wrap_iterIPKNS_4pairIxfEEEEEEE7destroyB8ne180100EPS8_, symObjAddr: 0x1F930, symBinAddr: 0x1000224C8, symSize: 0x14 }
  - { offset: 0x40A73, size: 0x8, addend: 0x0, symName: __ZNSt3__19allocatorINS_16reverse_iteratorINS_11__wrap_iterIPKNS_4pairIxfEEEEEEE10deallocateB8ne180100EPS8_m, symObjAddr: 0x1F944, symBinAddr: 0x1000224DC, symSize: 0x40 }
  - { offset: 0x40AB5, size: 0x8, addend: 0x0, symName: __ZNSt3__117__compressed_pairIPNS_16reverse_iteratorINS_11__wrap_iterIPKNS_4pairIxfEEEEEENS_9allocatorIS8_EEE6secondB8ne180100Ev, symObjAddr: 0x1F984, symBinAddr: 0x10002251C, symSize: 0x24 }
  - { offset: 0x40ADB, size: 0x8, addend: 0x0, symName: __ZNSt3__122__compressed_pair_elemINS_9allocatorINS_16reverse_iteratorINS_11__wrap_iterIPKNS_4pairIxfEEEEEEEELi1ELb1EE5__getB8ne180100Ev, symObjAddr: 0x1F9A8, symBinAddr: 0x100022540, symSize: 0x14 }
  - { offset: 0x40B01, size: 0x8, addend: 0x0, symName: __ZNKSt3__16vectorINS_16reverse_iteratorINS_11__wrap_iterIPKNS_4pairIxfEEEEEENS_9allocatorIS8_EEE9__end_capB8ne180100Ev, symObjAddr: 0x1F9BC, symBinAddr: 0x100022554, symSize: 0x28 }
  - { offset: 0x40B27, size: 0x8, addend: 0x0, symName: __ZNKSt3__117__compressed_pairIPNS_16reverse_iteratorINS_11__wrap_iterIPKNS_4pairIxfEEEEEENS_9allocatorIS8_EEE5firstB8ne180100Ev, symObjAddr: 0x1F9E4, symBinAddr: 0x10002257C, symSize: 0x24 }
  - { offset: 0x40B4D, size: 0x8, addend: 0x0, symName: __ZNKSt3__122__compressed_pair_elemIPNS_16reverse_iteratorINS_11__wrap_iterIPKNS_4pairIxfEEEEEELi0ELb0EE5__getB8ne180100Ev, symObjAddr: 0x1FA08, symBinAddr: 0x1000225A0, symSize: 0x14 }
  - { offset: 0x40B73, size: 0x8, addend: 0x0, symName: __ZN16diameter_entry_taSERKS_, symObjAddr: 0x1FA1C, symBinAddr: 0x1000225B4, symSize: 0x34 }
  - { offset: 0x40BA4, size: 0x8, addend: 0x0, symName: __ZNSt3__16vectorIxNS_9allocatorIxEEE6resizeEm, symObjAddr: 0x1FA50, symBinAddr: 0x1000225E8, symSize: 0x94 }
  - { offset: 0x40BEA, size: 0x8, addend: 0x0, symName: __ZNSt3__16vectorINS_16reverse_iteratorINS_11__wrap_iterIPKNS_4pairIxfEEEEEENS_9allocatorIS8_EEE6resizeEm, symObjAddr: 0x1FAE4, symBinAddr: 0x10002267C, symSize: 0x94 }
  - { offset: 0x40C30, size: 0x8, addend: 0x0, symName: __ZNKSt3__16vectorINS_4pairIxfEENS_9allocatorIS2_EEE6rbeginB8ne180100Ev, symObjAddr: 0x1FB78, symBinAddr: 0x100022710, symSize: 0x44 }
  - { offset: 0x40C56, size: 0x8, addend: 0x0, symName: __ZNSt3__16vectorINS_16reverse_iteratorINS_11__wrap_iterIPKNS_4pairIxfEEEEEENS_9allocatorIS8_EEEixB8ne180100Em, symObjAddr: 0x1FBBC, symBinAddr: 0x100022754, symSize: 0x24 }
  - { offset: 0x40C8D, size: 0x8, addend: 0x0, symName: __ZNKSt3__16vectorINS_4pairIxfEENS_9allocatorIS2_EEE4rendB8ne180100Ev, symObjAddr: 0x1FBE0, symBinAddr: 0x100022778, symSize: 0x44 }
  - { offset: 0x40CB3, size: 0x8, addend: 0x0, symName: __ZNSt3__14pairIfxEaSB8ne180100ERKS1_, symObjAddr: 0x1FC24, symBinAddr: 0x1000227BC, symSize: 0x30 }
  - { offset: 0x40CE8, size: 0x8, addend: 0x0, symName: __ZNSt3__16vectorIxNS_9allocatorIxEEE8__appendEm, symObjAddr: 0x1FC54, symBinAddr: 0x1000227EC, symSize: 0x108 }
  - { offset: 0x40D43, size: 0x8, addend: 0x0, symName: __ZNSt3__16vectorIxNS_9allocatorIxEEE17__destruct_at_endB8ne180100EPx, symObjAddr: 0x1FD5C, symBinAddr: 0x1000228F4, symSize: 0x4C }
  - { offset: 0x40D87, size: 0x8, addend: 0x0, symName: __ZNKSt3__16vectorIxNS_9allocatorIxEEE11__recommendB8ne180100Em, symObjAddr: 0x1FDA8, symBinAddr: 0x100022940, symSize: 0xB4 }
  - { offset: 0x40DDC, size: 0x8, addend: 0x0, symName: __ZNSt3__114__split_bufferIxRNS_9allocatorIxEEEC1EmmS3_, symObjAddr: 0x1FE5C, symBinAddr: 0x1000229F4, symSize: 0x44 }
  - { offset: 0x40E32, size: 0x8, addend: 0x0, symName: __ZNSt3__114__split_bufferIxRNS_9allocatorIxEEE18__construct_at_endEm, symObjAddr: 0x1FEA0, symBinAddr: 0x100022A38, symSize: 0xB4 }
  - { offset: 0x40E75, size: 0x8, addend: 0x0, symName: __ZNSt3__114__split_bufferIxRNS_9allocatorIxEEED1Ev, symObjAddr: 0x20064, symBinAddr: 0x100022BFC, symSize: 0x2C }
  - { offset: 0x40EA1, size: 0x8, addend: 0x0, symName: __ZNSt3__114__split_bufferIxRNS_9allocatorIxEEEC2EmmS3_, symObjAddr: 0x20090, symBinAddr: 0x100022C28, symSize: 0xD4 }
  - { offset: 0x40F14, size: 0x8, addend: 0x0, symName: __ZNSt3__117__compressed_pairIPxRNS_9allocatorIxEEEC1B8ne180100IDnS4_EEOT_OT0_, symObjAddr: 0x20164, symBinAddr: 0x100022CFC, symSize: 0x3C }
  - { offset: 0x40F6C, size: 0x8, addend: 0x0, symName: __ZNSt3__114__split_bufferIxRNS_9allocatorIxEEE7__allocB8ne180100Ev, symObjAddr: 0x201A0, symBinAddr: 0x100022D38, symSize: 0x28 }
  - { offset: 0x40F92, size: 0x8, addend: 0x0, symName: __ZNSt3__114__split_bufferIxRNS_9allocatorIxEEE9__end_capB8ne180100Ev, symObjAddr: 0x201C8, symBinAddr: 0x100022D60, symSize: 0x28 }
  - { offset: 0x40FB8, size: 0x8, addend: 0x0, symName: __ZNSt3__117__compressed_pairIPxRNS_9allocatorIxEEEC2B8ne180100IDnS4_EEOT_OT0_, symObjAddr: 0x201F0, symBinAddr: 0x100022D88, symSize: 0x48 }
  - { offset: 0x41010, size: 0x8, addend: 0x0, symName: __ZNSt3__122__compressed_pair_elemIRNS_9allocatorIxEELi1ELb0EEC2B8ne180100IS3_vEEOT_, symObjAddr: 0x20238, symBinAddr: 0x100022DD0, symSize: 0x20 }
  - { offset: 0x41052, size: 0x8, addend: 0x0, symName: __ZNSt3__117__compressed_pairIPxRNS_9allocatorIxEEE6secondB8ne180100Ev, symObjAddr: 0x20258, symBinAddr: 0x100022DF0, symSize: 0x28 }
  - { offset: 0x41078, size: 0x8, addend: 0x0, symName: __ZNSt3__122__compressed_pair_elemIRNS_9allocatorIxEELi1ELb0EE5__getB8ne180100Ev, symObjAddr: 0x20280, symBinAddr: 0x100022E18, symSize: 0x18 }
  - { offset: 0x4109E, size: 0x8, addend: 0x0, symName: __ZNSt3__117__compressed_pairIPxRNS_9allocatorIxEEE5firstB8ne180100Ev, symObjAddr: 0x20298, symBinAddr: 0x100022E30, symSize: 0x24 }
  - { offset: 0x410CE, size: 0x8, addend: 0x0, symName: __ZNSt3__114__split_bufferIxRNS_9allocatorIxEEE21_ConstructTransactionC1B8ne180100EPPxm, symObjAddr: 0x202BC, symBinAddr: 0x100022E54, symSize: 0x3C }
  - { offset: 0x41114, size: 0x8, addend: 0x0, symName: __ZNSt3__114__split_bufferIxRNS_9allocatorIxEEE21_ConstructTransactionD1B8ne180100Ev, symObjAddr: 0x202F8, symBinAddr: 0x100022E90, symSize: 0x2C }
  - { offset: 0x4113E, size: 0x8, addend: 0x0, symName: __ZNSt3__114__split_bufferIxRNS_9allocatorIxEEE21_ConstructTransactionC2B8ne180100EPPxm, symObjAddr: 0x20324, symBinAddr: 0x100022EBC, symSize: 0x44 }
  - { offset: 0x41184, size: 0x8, addend: 0x0, symName: __ZNSt3__114__split_bufferIxRNS_9allocatorIxEEE21_ConstructTransactionD2B8ne180100Ev, symObjAddr: 0x20368, symBinAddr: 0x100022F00, symSize: 0x20 }
  - { offset: 0x411AE, size: 0x8, addend: 0x0, symName: __ZNSt3__116reverse_iteratorIPxEC1B8ne180100ES1_, symObjAddr: 0x20400, symBinAddr: 0x100022F98, symSize: 0x34 }
  - { offset: 0x411E6, size: 0x8, addend: 0x0, symName: __ZNKSt3__116reverse_iteratorIPxE4baseB8ne180100Ev, symObjAddr: 0x20434, symBinAddr: 0x100022FCC, symSize: 0x18 }
  - { offset: 0x41226, size: 0x8, addend: 0x0, symName: __ZNKSt3__111__move_loopINS_17_ClassicAlgPolicyEEclB8ne180100INS_16reverse_iteratorIPxEES6_S6_EENS_4pairIT_T1_EES8_T0_S9_, symObjAddr: 0x20778, symBinAddr: 0x100023310, symSize: 0xA0 }
  - { offset: 0x41297, size: 0x8, addend: 0x0, symName: __ZNSt3__18_IterOpsINS_17_ClassicAlgPolicyEE11__iter_moveB8ne180100IRNS_16reverse_iteratorIPxEELi0EEEDTclsr3stdE4movedeclsr3stdE7declvalIRT_EEEEOS8_, symObjAddr: 0x209AC, symBinAddr: 0x100023544, symSize: 0x28 }
  - { offset: 0x412C9, size: 0x8, addend: 0x0, symName: __ZNKSt3__116reverse_iteratorIPxEdeB8ne180100Ev, symObjAddr: 0x209D4, symBinAddr: 0x10002356C, symSize: 0x28 }
  - { offset: 0x412FD, size: 0x8, addend: 0x0, symName: __ZNSt3__116reverse_iteratorIPxEppB8ne180100Ev, symObjAddr: 0x209FC, symBinAddr: 0x100023594, symSize: 0x20 }
  - { offset: 0x41323, size: 0x8, addend: 0x0, symName: __ZNSt3__18_IterOpsINS_17_ClassicAlgPolicyEE25__validate_iter_referenceB8ne180100IRNS_16reverse_iteratorIPxEEEEvv, symObjAddr: 0x20A1C, symBinAddr: 0x1000235B4, symSize: 0x4 }
  - { offset: 0x41341, size: 0x8, addend: 0x0, symName: __ZNSt3__118__unwrap_iter_implINS_16reverse_iteratorIPxEELb0EE8__unwrapB8ne180100ES3_, symObjAddr: 0x20A20, symBinAddr: 0x1000235B8, symSize: 0x24 }
  - { offset: 0x4136A, size: 0x8, addend: 0x0, symName: __ZNSt3__14pairINS_16reverse_iteratorIPxEES3_EC1B8ne180100IS3_S3_Li0EEEOT_OT0_, symObjAddr: 0x20A44, symBinAddr: 0x1000235DC, symSize: 0x3C }
  - { offset: 0x413C8, size: 0x8, addend: 0x0, symName: __ZNSt3__14pairINS_16reverse_iteratorIPxEES3_EC2B8ne180100IS3_S3_Li0EEEOT_OT0_, symObjAddr: 0x20A80, symBinAddr: 0x100023618, symSize: 0x34 }
  - { offset: 0x41426, size: 0x8, addend: 0x0, symName: __ZNSt3__118__unwrap_iter_implINS_16reverse_iteratorIPxEELb0EE8__rewrapB8ne180100ES3_S3_, symObjAddr: 0x20AB4, symBinAddr: 0x10002364C, symSize: 0x2C }
  - { offset: 0x41453, size: 0x8, addend: 0x0, symName: __ZNSt3__116reverse_iteratorIPxEC2B8ne180100ES1_, symObjAddr: 0x20AE0, symBinAddr: 0x100023678, symSize: 0x28 }
  - { offset: 0x4148B, size: 0x8, addend: 0x0, symName: __ZNSt3__114__split_bufferIxRNS_9allocatorIxEEED2Ev, symObjAddr: 0x20B08, symBinAddr: 0x1000236A0, symSize: 0x8C }
  - { offset: 0x414B7, size: 0x8, addend: 0x0, symName: __ZNSt3__114__split_bufferIxRNS_9allocatorIxEEE5clearB8ne180100Ev, symObjAddr: 0x20B94, symBinAddr: 0x10002372C, symSize: 0x28 }
  - { offset: 0x414DD, size: 0x8, addend: 0x0, symName: __ZNKSt3__114__split_bufferIxRNS_9allocatorIxEEE8capacityB8ne180100Ev, symObjAddr: 0x20BBC, symBinAddr: 0x100023754, symSize: 0x40 }
  - { offset: 0x41503, size: 0x8, addend: 0x0, symName: __ZNSt3__114__split_bufferIxRNS_9allocatorIxEEE17__destruct_at_endB8ne180100EPx, symObjAddr: 0x20BFC, symBinAddr: 0x100023794, symSize: 0x2C }
  - { offset: 0x41537, size: 0x8, addend: 0x0, symName: __ZNSt3__114__split_bufferIxRNS_9allocatorIxEEE17__destruct_at_endB8ne180100EPxNS_17integral_constantIbLb0EEE, symObjAddr: 0x20C28, symBinAddr: 0x1000237C0, symSize: 0x80 }
  - { offset: 0x41577, size: 0x8, addend: 0x0, symName: __ZNKSt3__114__split_bufferIxRNS_9allocatorIxEEE9__end_capB8ne180100Ev, symObjAddr: 0x20CA8, symBinAddr: 0x100023840, symSize: 0x28 }
  - { offset: 0x4159D, size: 0x8, addend: 0x0, symName: __ZNKSt3__117__compressed_pairIPxRNS_9allocatorIxEEE5firstB8ne180100Ev, symObjAddr: 0x20CD0, symBinAddr: 0x100023868, symSize: 0x24 }
  - { offset: 0x415C3, size: 0x8, addend: 0x0, symName: __ZNKSt3__16vectorIxNS_9allocatorIxEEE17__annotate_shrinkB8ne180100Em, symObjAddr: 0x20CF4, symBinAddr: 0x10002388C, symSize: 0x14 }
  - { offset: 0x415F8, size: 0x8, addend: 0x0, symName: __ZNKSt3__16vectorINS_16reverse_iteratorINS_11__wrap_iterIPKNS_4pairIxfEEEEEENS_9allocatorIS8_EEE4sizeB8ne180100Ev, symObjAddr: 0x20D08, symBinAddr: 0x1000238A0, symSize: 0x28 }
  - { offset: 0x4161E, size: 0x8, addend: 0x0, symName: __ZNSt3__16vectorINS_16reverse_iteratorINS_11__wrap_iterIPKNS_4pairIxfEEEEEENS_9allocatorIS8_EEE8__appendEm, symObjAddr: 0x20D30, symBinAddr: 0x1000238C8, symSize: 0x108 }
  - { offset: 0x41679, size: 0x8, addend: 0x0, symName: __ZNSt3__16vectorINS_16reverse_iteratorINS_11__wrap_iterIPKNS_4pairIxfEEEEEENS_9allocatorIS8_EEE17__destruct_at_endB8ne180100EPS8_, symObjAddr: 0x20E38, symBinAddr: 0x1000239D0, symSize: 0x4C }
  - { offset: 0x416BD, size: 0x8, addend: 0x0, symName: __ZNSt3__16vectorINS_16reverse_iteratorINS_11__wrap_iterIPKNS_4pairIxfEEEEEENS_9allocatorIS8_EEE9__end_capB8ne180100Ev, symObjAddr: 0x20E84, symBinAddr: 0x100023A1C, symSize: 0x28 }
  - { offset: 0x416E3, size: 0x8, addend: 0x0, symName: __ZNSt3__16vectorINS_16reverse_iteratorINS_11__wrap_iterIPKNS_4pairIxfEEEEEENS_9allocatorIS8_EEE18__construct_at_endEm, symObjAddr: 0x20EAC, symBinAddr: 0x100023A44, symSize: 0xC8 }
  - { offset: 0x41755, size: 0x8, addend: 0x0, symName: __ZNKSt3__16vectorINS_16reverse_iteratorINS_11__wrap_iterIPKNS_4pairIxfEEEEEENS_9allocatorIS8_EEE11__recommendB8ne180100Em, symObjAddr: 0x20F74, symBinAddr: 0x100023B0C, symSize: 0xB4 }
  - { offset: 0x417AA, size: 0x8, addend: 0x0, symName: __ZNSt3__114__split_bufferINS_16reverse_iteratorINS_11__wrap_iterIPKNS_4pairIxfEEEEEERNS_9allocatorIS8_EEEC1EmmSB_, symObjAddr: 0x21028, symBinAddr: 0x100023BC0, symSize: 0x44 }
  - { offset: 0x41800, size: 0x8, addend: 0x0, symName: __ZNSt3__114__split_bufferINS_16reverse_iteratorINS_11__wrap_iterIPKNS_4pairIxfEEEEEERNS_9allocatorIS8_EEE18__construct_at_endEm, symObjAddr: 0x2106C, symBinAddr: 0x100023C04, symSize: 0xB4 }
  - { offset: 0x41843, size: 0x8, addend: 0x0, symName: __ZNSt3__114__split_bufferINS_16reverse_iteratorINS_11__wrap_iterIPKNS_4pairIxfEEEEEERNS_9allocatorIS8_EEED1Ev, symObjAddr: 0x21230, symBinAddr: 0x100023DC8, symSize: 0x2C }
  - { offset: 0x4186F, size: 0x8, addend: 0x0, symName: __ZNSt3__117__compressed_pairIPNS_16reverse_iteratorINS_11__wrap_iterIPKNS_4pairIxfEEEEEENS_9allocatorIS8_EEE5firstB8ne180100Ev, symObjAddr: 0x2125C, symBinAddr: 0x100023DF4, symSize: 0x24 }
  - { offset: 0x41895, size: 0x8, addend: 0x0, symName: __ZNSt3__122__compressed_pair_elemIPNS_16reverse_iteratorINS_11__wrap_iterIPKNS_4pairIxfEEEEEELi0ELb0EE5__getB8ne180100Ev, symObjAddr: 0x21280, symBinAddr: 0x100023E18, symSize: 0x14 }
  - { offset: 0x418D4, size: 0x8, addend: 0x0, symName: __ZNSt3__16vectorINS_16reverse_iteratorINS_11__wrap_iterIPKNS_4pairIxfEEEEEENS_9allocatorIS8_EEE21_ConstructTransactionC1B8ne180100ERSB_m, symObjAddr: 0x21294, symBinAddr: 0x100023E2C, symSize: 0x3C }
  - { offset: 0x4191C, size: 0x8, addend: 0x0, symName: __ZNSt3__116allocator_traitsINS_9allocatorINS_16reverse_iteratorINS_11__wrap_iterIPKNS_4pairIxfEEEEEEEEE9constructB8ne180100IS9_JEvEEvRSA_PT_DpOT0_, symObjAddr: 0x212D0, symBinAddr: 0x100023E68, symSize: 0x2C }
  - { offset: 0x4195E, size: 0x8, addend: 0x0, symName: __ZNSt3__16vectorINS_16reverse_iteratorINS_11__wrap_iterIPKNS_4pairIxfEEEEEENS_9allocatorIS8_EEE21_ConstructTransactionD1B8ne180100Ev, symObjAddr: 0x212FC, symBinAddr: 0x100023E94, symSize: 0x2C }
  - { offset: 0x41988, size: 0x8, addend: 0x0, symName: __ZNSt3__16vectorINS_16reverse_iteratorINS_11__wrap_iterIPKNS_4pairIxfEEEEEENS_9allocatorIS8_EEE21_ConstructTransactionC2B8ne180100ERSB_m, symObjAddr: 0x21328, symBinAddr: 0x100023EC0, symSize: 0x44 }
  - { offset: 0x419D0, size: 0x8, addend: 0x0, symName: __ZNSt3__19allocatorINS_16reverse_iteratorINS_11__wrap_iterIPKNS_4pairIxfEEEEEEE9constructB8ne180100IS8_JEEEvPT_DpOT0_, symObjAddr: 0x2136C, symBinAddr: 0x100023F04, symSize: 0x28 }
  - { offset: 0x41A12, size: 0x8, addend: 0x0, symName: __ZNSt3__116reverse_iteratorINS_11__wrap_iterIPKNS_4pairIxfEEEEEC1B8ne180100Ev, symObjAddr: 0x21394, symBinAddr: 0x100023F2C, symSize: 0x2C }
  - { offset: 0x41A3C, size: 0x8, addend: 0x0, symName: __ZNSt3__116reverse_iteratorINS_11__wrap_iterIPKNS_4pairIxfEEEEEC2B8ne180100Ev, symObjAddr: 0x213C0, symBinAddr: 0x100023F58, symSize: 0x38 }
  - { offset: 0x41A66, size: 0x8, addend: 0x0, symName: __ZNSt3__111__wrap_iterIPKNS_4pairIxfEEEC1B8ne180100Ev, symObjAddr: 0x213F8, symBinAddr: 0x100023F90, symSize: 0x2C }
  - { offset: 0x41A90, size: 0x8, addend: 0x0, symName: __ZNSt3__111__wrap_iterIPKNS_4pairIxfEEEC2B8ne180100Ev, symObjAddr: 0x21424, symBinAddr: 0x100023FBC, symSize: 0x18 }
  - { offset: 0x41ABA, size: 0x8, addend: 0x0, symName: __ZNSt3__16vectorINS_16reverse_iteratorINS_11__wrap_iterIPKNS_4pairIxfEEEEEENS_9allocatorIS8_EEE21_ConstructTransactionD2B8ne180100Ev, symObjAddr: 0x2143C, symBinAddr: 0x100023FD4, symSize: 0x20 }
  - { offset: 0x41AE4, size: 0x8, addend: 0x0, symName: __ZNKSt3__16vectorINS_16reverse_iteratorINS_11__wrap_iterIPKNS_4pairIxfEEEEEENS_9allocatorIS8_EEE8max_sizeEv, symObjAddr: 0x2145C, symBinAddr: 0x100023FF4, symSize: 0x60 }
  - { offset: 0x41B0C, size: 0x8, addend: 0x0, symName: __ZNKSt3__16vectorINS_16reverse_iteratorINS_11__wrap_iterIPKNS_4pairIxfEEEEEENS_9allocatorIS8_EEE20__throw_length_errorB8ne180100Ev, symObjAddr: 0x214BC, symBinAddr: 0x100024054, symSize: 0x1C }
  - { offset: 0x41B3C, size: 0x8, addend: 0x0, symName: __ZNSt3__116allocator_traitsINS_9allocatorINS_16reverse_iteratorINS_11__wrap_iterIPKNS_4pairIxfEEEEEEEEE8max_sizeB8ne180100ISA_vEEmRKSA_, symObjAddr: 0x214D8, symBinAddr: 0x100024070, symSize: 0x24 }
  - { offset: 0x41B6A, size: 0x8, addend: 0x0, symName: __ZNKSt3__16vectorINS_16reverse_iteratorINS_11__wrap_iterIPKNS_4pairIxfEEEEEENS_9allocatorIS8_EEE7__allocB8ne180100Ev, symObjAddr: 0x214FC, symBinAddr: 0x100024094, symSize: 0x28 }
  - { offset: 0x41B90, size: 0x8, addend: 0x0, symName: __ZNKSt3__19allocatorINS_16reverse_iteratorINS_11__wrap_iterIPKNS_4pairIxfEEEEEEE8max_sizeB8ne180100Ev, symObjAddr: 0x21524, symBinAddr: 0x1000240BC, symSize: 0x14 }
  - { offset: 0x41BB6, size: 0x8, addend: 0x0, symName: __ZNKSt3__117__compressed_pairIPNS_16reverse_iteratorINS_11__wrap_iterIPKNS_4pairIxfEEEEEENS_9allocatorIS8_EEE6secondB8ne180100Ev, symObjAddr: 0x21538, symBinAddr: 0x1000240D0, symSize: 0x24 }
  - { offset: 0x41BDC, size: 0x8, addend: 0x0, symName: __ZNKSt3__122__compressed_pair_elemINS_9allocatorINS_16reverse_iteratorINS_11__wrap_iterIPKNS_4pairIxfEEEEEEEELi1ELb1EE5__getB8ne180100Ev, symObjAddr: 0x2155C, symBinAddr: 0x1000240F4, symSize: 0x14 }
  - { offset: 0x41C02, size: 0x8, addend: 0x0, symName: __ZNSt3__114__split_bufferINS_16reverse_iteratorINS_11__wrap_iterIPKNS_4pairIxfEEEEEERNS_9allocatorIS8_EEEC2EmmSB_, symObjAddr: 0x21570, symBinAddr: 0x100024108, symSize: 0xD4 }
  - { offset: 0x41C75, size: 0x8, addend: 0x0, symName: __ZNSt3__117__compressed_pairIPNS_16reverse_iteratorINS_11__wrap_iterIPKNS_4pairIxfEEEEEERNS_9allocatorIS8_EEEC1B8ne180100IDnSC_EEOT_OT0_, symObjAddr: 0x21644, symBinAddr: 0x1000241DC, symSize: 0x3C }
  - { offset: 0x41CCD, size: 0x8, addend: 0x0, symName: __ZNSt3__114__split_bufferINS_16reverse_iteratorINS_11__wrap_iterIPKNS_4pairIxfEEEEEERNS_9allocatorIS8_EEE7__allocB8ne180100Ev, symObjAddr: 0x216C0, symBinAddr: 0x100024258, symSize: 0x28 }
  - { offset: 0x41CF3, size: 0x8, addend: 0x0, symName: __ZNSt3__114__split_bufferINS_16reverse_iteratorINS_11__wrap_iterIPKNS_4pairIxfEEEEEERNS_9allocatorIS8_EEE9__end_capB8ne180100Ev, symObjAddr: 0x216E8, symBinAddr: 0x100024280, symSize: 0x28 }
  - { offset: 0x41D19, size: 0x8, addend: 0x0, symName: __ZNSt3__117__compressed_pairIPNS_16reverse_iteratorINS_11__wrap_iterIPKNS_4pairIxfEEEEEERNS_9allocatorIS8_EEEC2B8ne180100IDnSC_EEOT_OT0_, symObjAddr: 0x21710, symBinAddr: 0x1000242A8, symSize: 0x48 }
  - { offset: 0x41D71, size: 0x8, addend: 0x0, symName: __ZNSt3__122__compressed_pair_elemIRNS_9allocatorINS_16reverse_iteratorINS_11__wrap_iterIPKNS_4pairIxfEEEEEEEELi1ELb0EEC2B8ne180100ISB_vEEOT_, symObjAddr: 0x21758, symBinAddr: 0x1000242F0, symSize: 0x20 }
  - { offset: 0x41DB3, size: 0x8, addend: 0x0, symName: __ZNSt3__19allocatorINS_16reverse_iteratorINS_11__wrap_iterIPKNS_4pairIxfEEEEEEE8allocateB8ne180100Em, symObjAddr: 0x21778, symBinAddr: 0x100024310, symSize: 0x58 }
  - { offset: 0x41DE7, size: 0x8, addend: 0x0, symName: __ZNSt3__117__compressed_pairIPNS_16reverse_iteratorINS_11__wrap_iterIPKNS_4pairIxfEEEEEERNS_9allocatorIS8_EEE6secondB8ne180100Ev, symObjAddr: 0x217D0, symBinAddr: 0x100024368, symSize: 0x28 }
  - { offset: 0x41E0D, size: 0x8, addend: 0x0, symName: __ZNSt3__122__compressed_pair_elemIRNS_9allocatorINS_16reverse_iteratorINS_11__wrap_iterIPKNS_4pairIxfEEEEEEEELi1ELb0EE5__getB8ne180100Ev, symObjAddr: 0x217F8, symBinAddr: 0x100024390, symSize: 0x18 }
  - { offset: 0x41E33, size: 0x8, addend: 0x0, symName: __ZNSt3__117__compressed_pairIPNS_16reverse_iteratorINS_11__wrap_iterIPKNS_4pairIxfEEEEEERNS_9allocatorIS8_EEE5firstB8ne180100Ev, symObjAddr: 0x21810, symBinAddr: 0x1000243A8, symSize: 0x24 }
  - { offset: 0x41E63, size: 0x8, addend: 0x0, symName: __ZNSt3__114__split_bufferINS_16reverse_iteratorINS_11__wrap_iterIPKNS_4pairIxfEEEEEERNS_9allocatorIS8_EEE21_ConstructTransactionC1B8ne180100EPPS8_m, symObjAddr: 0x21834, symBinAddr: 0x1000243CC, symSize: 0x3C }
  - { offset: 0x41EA9, size: 0x8, addend: 0x0, symName: __ZNSt3__114__split_bufferINS_16reverse_iteratorINS_11__wrap_iterIPKNS_4pairIxfEEEEEERNS_9allocatorIS8_EEE21_ConstructTransactionD1B8ne180100Ev, symObjAddr: 0x21870, symBinAddr: 0x100024408, symSize: 0x2C }
  - { offset: 0x41ED3, size: 0x8, addend: 0x0, symName: __ZNSt3__114__split_bufferINS_16reverse_iteratorINS_11__wrap_iterIPKNS_4pairIxfEEEEEERNS_9allocatorIS8_EEE21_ConstructTransactionC2B8ne180100EPPS8_m, symObjAddr: 0x2189C, symBinAddr: 0x100024434, symSize: 0x44 }
  - { offset: 0x41F19, size: 0x8, addend: 0x0, symName: __ZNSt3__114__split_bufferINS_16reverse_iteratorINS_11__wrap_iterIPKNS_4pairIxfEEEEEERNS_9allocatorIS8_EEE21_ConstructTransactionD2B8ne180100Ev, symObjAddr: 0x218E0, symBinAddr: 0x100024478, symSize: 0x20 }
  - { offset: 0x41F43, size: 0x8, addend: 0x0, symName: __ZNSt3__116reverse_iteratorIPNS0_INS_11__wrap_iterIPKNS_4pairIxfEEEEEEEC1B8ne180100ES8_, symObjAddr: 0x21978, symBinAddr: 0x100024510, symSize: 0x34 }
  - { offset: 0x41F7B, size: 0x8, addend: 0x0, symName: __ZNKSt3__116reverse_iteratorIPNS0_INS_11__wrap_iterIPKNS_4pairIxfEEEEEEE4baseB8ne180100Ev, symObjAddr: 0x219AC, symBinAddr: 0x100024544, symSize: 0x18 }
  - { offset: 0x41FA1, size: 0x8, addend: 0x0, symName: __ZNKSt3__16vectorINS_16reverse_iteratorINS_11__wrap_iterIPKNS_4pairIxfEEEEEENS_9allocatorIS8_EEE14__annotate_newB8ne180100Em, symObjAddr: 0x21A00, symBinAddr: 0x100024598, symSize: 0x14 }
  - { offset: 0x41FF0, size: 0x8, addend: 0x0, symName: __ZNKSt3__111__move_loopINS_17_ClassicAlgPolicyEEclB8ne180100INS_16reverse_iteratorIPNS4_INS_11__wrap_iterIPKNS_4pairIxfEEEEEEEESD_SD_EENS6_IT_T1_EESE_T0_SF_, symObjAddr: 0x21D04, symBinAddr: 0x10002489C, symSize: 0xA0 }
  - { offset: 0x42061, size: 0x8, addend: 0x0, symName: __ZNSt3__18_IterOpsINS_17_ClassicAlgPolicyEE11__iter_moveB8ne180100IRNS_16reverse_iteratorIPNS4_INS_11__wrap_iterIPKNS_4pairIxfEEEEEEEELi0EEEDTclsr3stdE4movedeclsr3stdE7declvalIRT_EEEEOSF_, symObjAddr: 0x21F38, symBinAddr: 0x100024AD0, symSize: 0x28 }
  - { offset: 0x42093, size: 0x8, addend: 0x0, symName: __ZNKSt3__116reverse_iteratorIPNS0_INS_11__wrap_iterIPKNS_4pairIxfEEEEEEEdeB8ne180100Ev, symObjAddr: 0x21F60, symBinAddr: 0x100024AF8, symSize: 0x28 }
  - { offset: 0x420C7, size: 0x8, addend: 0x0, symName: __ZNSt3__116reverse_iteratorIPNS0_INS_11__wrap_iterIPKNS_4pairIxfEEEEEEEppB8ne180100Ev, symObjAddr: 0x21F88, symBinAddr: 0x100024B20, symSize: 0x20 }
  - { offset: 0x420ED, size: 0x8, addend: 0x0, symName: __ZNSt3__18_IterOpsINS_17_ClassicAlgPolicyEE25__validate_iter_referenceB8ne180100IRNS_16reverse_iteratorIPNS4_INS_11__wrap_iterIPKNS_4pairIxfEEEEEEEEEEvv, symObjAddr: 0x21FA8, symBinAddr: 0x100024B40, symSize: 0x4 }
  - { offset: 0x4210B, size: 0x8, addend: 0x0, symName: __ZNSt3__118__unwrap_iter_implINS_16reverse_iteratorIPNS1_INS_11__wrap_iterIPKNS_4pairIxfEEEEEEEELb0EE8__unwrapB8ne180100ESA_, symObjAddr: 0x21FAC, symBinAddr: 0x100024B44, symSize: 0x24 }
  - { offset: 0x42134, size: 0x8, addend: 0x0, symName: __ZNSt3__14pairINS_16reverse_iteratorIPNS1_INS_11__wrap_iterIPKNS0_IxfEEEEEEEES9_EC1B8ne180100IS9_S9_Li0EEEOT_OT0_, symObjAddr: 0x21FD0, symBinAddr: 0x100024B68, symSize: 0x3C }
  - { offset: 0x42192, size: 0x8, addend: 0x0, symName: __ZNSt3__14pairINS_16reverse_iteratorIPNS1_INS_11__wrap_iterIPKNS0_IxfEEEEEEEES9_EC2B8ne180100IS9_S9_Li0EEEOT_OT0_, symObjAddr: 0x2200C, symBinAddr: 0x100024BA4, symSize: 0x34 }
  - { offset: 0x421F0, size: 0x8, addend: 0x0, symName: __ZNSt3__118__unwrap_iter_implINS_16reverse_iteratorIPNS1_INS_11__wrap_iterIPKNS_4pairIxfEEEEEEEELb0EE8__rewrapB8ne180100ESA_SA_, symObjAddr: 0x22040, symBinAddr: 0x100024BD8, symSize: 0x2C }
  - { offset: 0x4221D, size: 0x8, addend: 0x0, symName: __ZNSt3__116reverse_iteratorIPNS0_INS_11__wrap_iterIPKNS_4pairIxfEEEEEEEC2B8ne180100ES8_, symObjAddr: 0x2206C, symBinAddr: 0x100024C04, symSize: 0x28 }
  - { offset: 0x42255, size: 0x8, addend: 0x0, symName: __ZNSt3__114__split_bufferINS_16reverse_iteratorINS_11__wrap_iterIPKNS_4pairIxfEEEEEERNS_9allocatorIS8_EEED2Ev, symObjAddr: 0x22094, symBinAddr: 0x100024C2C, symSize: 0x8C }
  - { offset: 0x42281, size: 0x8, addend: 0x0, symName: __ZNSt3__114__split_bufferINS_16reverse_iteratorINS_11__wrap_iterIPKNS_4pairIxfEEEEEERNS_9allocatorIS8_EEE5clearB8ne180100Ev, symObjAddr: 0x22120, symBinAddr: 0x100024CB8, symSize: 0x28 }
  - { offset: 0x422A7, size: 0x8, addend: 0x0, symName: __ZNKSt3__114__split_bufferINS_16reverse_iteratorINS_11__wrap_iterIPKNS_4pairIxfEEEEEERNS_9allocatorIS8_EEE8capacityB8ne180100Ev, symObjAddr: 0x22148, symBinAddr: 0x100024CE0, symSize: 0x40 }
  - { offset: 0x422CD, size: 0x8, addend: 0x0, symName: __ZNSt3__114__split_bufferINS_16reverse_iteratorINS_11__wrap_iterIPKNS_4pairIxfEEEEEERNS_9allocatorIS8_EEE17__destruct_at_endB8ne180100EPS8_, symObjAddr: 0x22188, symBinAddr: 0x100024D20, symSize: 0x2C }
  - { offset: 0x42301, size: 0x8, addend: 0x0, symName: __ZNSt3__114__split_bufferINS_16reverse_iteratorINS_11__wrap_iterIPKNS_4pairIxfEEEEEERNS_9allocatorIS8_EEE17__destruct_at_endB8ne180100EPS8_NS_17integral_constantIbLb0EEE, symObjAddr: 0x221B4, symBinAddr: 0x100024D4C, symSize: 0x80 }
  - { offset: 0x42341, size: 0x8, addend: 0x0, symName: __ZNKSt3__114__split_bufferINS_16reverse_iteratorINS_11__wrap_iterIPKNS_4pairIxfEEEEEERNS_9allocatorIS8_EEE9__end_capB8ne180100Ev, symObjAddr: 0x22234, symBinAddr: 0x100024DCC, symSize: 0x28 }
  - { offset: 0x42367, size: 0x8, addend: 0x0, symName: __ZNKSt3__117__compressed_pairIPNS_16reverse_iteratorINS_11__wrap_iterIPKNS_4pairIxfEEEEEERNS_9allocatorIS8_EEE5firstB8ne180100Ev, symObjAddr: 0x2225C, symBinAddr: 0x100024DF4, symSize: 0x24 }
  - { offset: 0x4238D, size: 0x8, addend: 0x0, symName: __ZNKSt3__16vectorINS_16reverse_iteratorINS_11__wrap_iterIPKNS_4pairIxfEEEEEENS_9allocatorIS8_EEE17__annotate_shrinkB8ne180100Em, symObjAddr: 0x22280, symBinAddr: 0x100024E18, symSize: 0x14 }
  - { offset: 0x423C2, size: 0x8, addend: 0x0, symName: __ZNSt3__116reverse_iteratorINS_11__wrap_iterIPKNS_4pairIxfEEEEEC1B8ne180100ES6_, symObjAddr: 0x22294, symBinAddr: 0x100024E2C, symSize: 0x34 }
  - { offset: 0x423FA, size: 0x8, addend: 0x0, symName: __ZNSt3__116reverse_iteratorINS_11__wrap_iterIPKNS_4pairIxfEEEEEC2B8ne180100ES6_, symObjAddr: 0x222C8, symBinAddr: 0x100024E60, symSize: 0x28 }
  - { offset: 0x42432, size: 0x8, addend: 0x0, symName: __ZNKSt3__116reverse_iteratorINS_11__wrap_iterIPKNS_4pairIxfEEEEEdeB8ne180100Ev, symObjAddr: 0x22344, symBinAddr: 0x100024EDC, symSize: 0x34 }
  - { offset: 0x42466, size: 0x8, addend: 0x0, symName: __ZNSt3__14pairIxfEaSB8ne180100ERKS1_, symObjAddr: 0x22378, symBinAddr: 0x100024F10, symSize: 0x30 }
  - { offset: 0x4249B, size: 0x8, addend: 0x0, symName: __ZNSt3__116reverse_iteratorINS_11__wrap_iterIPKNS_4pairIxfEEEEEppB8ne180100Ev, symObjAddr: 0x223FC, symBinAddr: 0x100024F94, symSize: 0x30 }
  - { offset: 0x424C1, size: 0x8, addend: 0x0, symName: __ZNKSt3__116reverse_iteratorINS_11__wrap_iterIPKNS_4pairIxfEEEEE4baseB8ne180100Ev, symObjAddr: 0x22458, symBinAddr: 0x100024FF0, symSize: 0x20 }
  - { offset: 0x424E7, size: 0x8, addend: 0x0, symName: __ZNSt3__111__wrap_iterIPKNS_4pairIxfEEEmmB8ne180100Ev, symObjAddr: 0x22478, symBinAddr: 0x100025010, symSize: 0x20 }
  - { offset: 0x4250D, size: 0x8, addend: 0x0, symName: __ZN16diameter_entry_tC1Efxt, symObjAddr: 0x224EC, symBinAddr: 0x100025084, symSize: 0x60 }
  - { offset: 0x42561, size: 0x8, addend: 0x0, symName: __ZN16diameter_entry_tCI1NSt3__14pairIfxEEIRfxLi0EEEOT_OT0_, symObjAddr: 0x2254C, symBinAddr: 0x1000250E4, symSize: 0x3C }
  - { offset: 0x4259F, size: 0x8, addend: 0x0, symName: __ZN16diameter_entry_tCI2NSt3__14pairIfxEEIRfxLi0EEEOT_OT0_, symObjAddr: 0x22588, symBinAddr: 0x100025120, symSize: 0x3C }
  - { offset: 0x425DD, size: 0x8, addend: 0x0, symName: __ZNSt3__14pairIfxEC2B8ne180100IRfxLi0EEEOT_OT0_, symObjAddr: 0x225C4, symBinAddr: 0x10002515C, symSize: 0x34 }
  - { offset: 0x4263B, size: 0x8, addend: 0x0, symName: __ZN6ripserI22sparse_distance_matrixE27simplex_boundary_enumeratorC1ExRKS1_, symObjAddr: 0x225F8, symBinAddr: 0x100025190, symSize: 0x5C }
  - { offset: 0x42683, size: 0x8, addend: 0x0, symName: __ZN6ripserI22sparse_distance_matrixE27simplex_boundary_enumerator11set_simplexE16diameter_entry_tx, symObjAddr: 0x22654, symBinAddr: 0x1000251EC, symSize: 0x7C }
  - { offset: 0x426C7, size: 0x8, addend: 0x0, symName: __ZN6ripserI22sparse_distance_matrixE27simplex_boundary_enumerator8has_nextEv, symObjAddr: 0x226D0, symBinAddr: 0x100025268, symSize: 0x24 }
  - { offset: 0x426ED, size: 0x8, addend: 0x0, symName: __ZN6ripserI22sparse_distance_matrixE27simplex_boundary_enumerator4nextEv, symObjAddr: 0x226F4, symBinAddr: 0x10002528C, symSize: 0x16C }
  - { offset: 0x42740, size: 0x8, addend: 0x0, symName: __ZN6ripserI22sparse_distance_matrixE27simplex_boundary_enumeratorC1E16diameter_entry_txRKS1_, symObjAddr: 0x22860, symBinAddr: 0x1000253F8, symSize: 0x4C }
  - { offset: 0x42797, size: 0x8, addend: 0x0, symName: __ZN6ripserI22sparse_distance_matrixE27simplex_boundary_enumeratorC2E16diameter_entry_txRKS1_, symObjAddr: 0x228AC, symBinAddr: 0x100025444, symSize: 0x90 }
  - { offset: 0x427EE, size: 0x8, addend: 0x0, symName: __ZNK6ripserI22sparse_distance_matrixE16compute_diameterExx, symObjAddr: 0x2293C, symBinAddr: 0x1000254D4, symSize: 0x168 }
  - { offset: 0x4287B, size: 0x8, addend: 0x0, symName: __ZNK22sparse_distance_matrixclExx, symObjAddr: 0x22AA4, symBinAddr: 0x10002563C, symSize: 0x104 }
  - { offset: 0x428D4, size: 0x8, addend: 0x0, symName: __ZNSt3__14pairIxfEC1B8ne180100IRKxiLi0EEEOT_OT0_, symObjAddr: 0x22BF4, symBinAddr: 0x10002578C, symSize: 0x3C }
  - { offset: 0x42932, size: 0x8, addend: 0x0, symName: __ZNSt3__18_IterOpsINS_17_ClassicAlgPolicyEE8distanceB8ne180100INS_11__wrap_iterIPKNS_4pairIxfEEEEEENS_15iterator_traitsIT_E15difference_typeESB_SB_, symObjAddr: 0x22D90, symBinAddr: 0x100025928, symSize: 0x3C }
  - { offset: 0x4296C, size: 0x8, addend: 0x0, symName: __ZNSt3__18_IterOpsINS_17_ClassicAlgPolicyEE7advanceB8ne180100INS_11__wrap_iterIPKNS_4pairIxfEEEElEEvRT_T0_, symObjAddr: 0x22DE8, symBinAddr: 0x100025980, symSize: 0x2C }
  - { offset: 0x429AF, size: 0x8, addend: 0x0, symName: __ZNSt3__111__wrap_iterIPKNS_4pairIxfEEEpLB8ne180100El, symObjAddr: 0x22FA4, symBinAddr: 0x100025B3C, symSize: 0x28 }
  - { offset: 0x429E3, size: 0x8, addend: 0x0, symName: __ZNKSt3__110__identityclB8ne180100IRKNS_4pairIxfEEEEOT_S7_, symObjAddr: 0x22FCC, symBinAddr: 0x100025B64, symSize: 0x18 }
  - { offset: 0x42A20, size: 0x8, addend: 0x0, symName: __ZNSt3__14pairIxfEC2B8ne180100IRKxiLi0EEEOT_OT0_, symObjAddr: 0x22FE4, symBinAddr: 0x100025B7C, symSize: 0x38 }
  - { offset: 0x42A7E, size: 0x8, addend: 0x0, symName: __ZN16diameter_entry_tCI1NSt3__14pairIfxEEIfxLi0EEEOT_OT0_, symObjAddr: 0x2301C, symBinAddr: 0x100025BB4, symSize: 0x3C }
  - { offset: 0x42ABC, size: 0x8, addend: 0x0, symName: __ZN16diameter_entry_tCI2NSt3__14pairIfxEEIfxLi0EEEOT_OT0_, symObjAddr: 0x23058, symBinAddr: 0x100025BF0, symSize: 0x3C }
  - { offset: 0x42AFA, size: 0x8, addend: 0x0, symName: __ZNSt3__16vectorINS_4pairIfxEENS_9allocatorIS2_EEE22__construct_one_at_endB8ne180100IJRKS2_EEEvDpOT_, symObjAddr: 0x23094, symBinAddr: 0x100025C2C, symSize: 0x90 }
  - { offset: 0x42B49, size: 0x8, addend: 0x0, symName: __ZNSt3__16vectorINS_4pairIfxEENS_9allocatorIS2_EEE21__push_back_slow_pathIRKS2_EEPS2_OT_, symObjAddr: 0x23124, symBinAddr: 0x100025CBC, symSize: 0xE8 }
  - { offset: 0x42BA7, size: 0x8, addend: 0x0, symName: __ZNSt3__116allocator_traitsINS_9allocatorINS_4pairIfxEEEEE9constructB8ne180100IS3_JRKS3_EvEEvRS4_PT_DpOT0_, symObjAddr: 0x2320C, symBinAddr: 0x100025DA4, symSize: 0x34 }
  - { offset: 0x42BFE, size: 0x8, addend: 0x0, symName: __ZNSt3__19allocatorINS_4pairIfxEEE9constructB8ne180100IS2_JRKS2_EEEvPT_DpOT0_, symObjAddr: 0x23240, symBinAddr: 0x100025DD8, symSize: 0x28 }
  - { offset: 0x42C54, size: 0x8, addend: 0x0, symName: __ZNSt3__18_IterOpsINS_17_ClassicAlgPolicyEE9iter_swapB8ne180100IRNS_11__wrap_iterIPNS_4pairIfxEEEES9_EEvOT_OT0_, symObjAddr: 0x23320, symBinAddr: 0x100025EB8, symSize: 0x44 }
  - { offset: 0x42C97, size: 0x8, addend: 0x0, symName: __ZN10union_findD2Ev, symObjAddr: 0x233B4, symBinAddr: 0x100025F4C, symSize: 0x38 }
  - { offset: 0x42CC4, size: 0x8, addend: 0x0, symName: __ZNSt3__16vectorIhNS_9allocatorIhEEED1B8ne180100Ev, symObjAddr: 0x233EC, symBinAddr: 0x100025F84, symSize: 0x2C }
  - { offset: 0x42CEE, size: 0x8, addend: 0x0, symName: __ZNSt3__16vectorIhNS_9allocatorIhEEED2B8ne180100Ev, symObjAddr: 0x23418, symBinAddr: 0x100025FB0, symSize: 0x40 }
  - { offset: 0x42D18, size: 0x8, addend: 0x0, symName: __ZNSt3__113unordered_mapIxmN6ripserI22sparse_distance_matrixE10entry_hashENS3_11equal_indexENS_9allocatorINS_4pairIKxmEEEEEC2B8ne180100Ev, symObjAddr: 0x23458, symBinAddr: 0x100025FF0, symSize: 0x2C }
  - { offset: 0x42D42, size: 0x8, addend: 0x0, symName: __ZNSt3__112__hash_tableINS_17__hash_value_typeIxmEENS_22__unordered_map_hasherIxS2_N6ripserI22sparse_distance_matrixE10entry_hashENS6_11equal_indexELb1EEENS_21__unordered_map_equalIxS2_S8_S7_Lb1EEENS_9allocatorIS2_EEEC1Ev, symObjAddr: 0x23484, symBinAddr: 0x10002601C, symSize: 0x2C }
  - { offset: 0x42D6E, size: 0x8, addend: 0x0, symName: __ZNSt3__112__hash_tableINS_17__hash_value_typeIxmEENS_22__unordered_map_hasherIxS2_N6ripserI22sparse_distance_matrixE10entry_hashENS6_11equal_indexELb1EEENS_21__unordered_map_equalIxS2_S8_S7_Lb1EEENS_9allocatorIS2_EEEC2Ev, symObjAddr: 0x234B0, symBinAddr: 0x100026048, symSize: 0x7C }
  - { offset: 0x42D9A, size: 0x8, addend: 0x0, symName: __ZNSt3__110unique_ptrIA_PNS_16__hash_node_baseIPNS_11__hash_nodeINS_17__hash_value_typeIxmEEPvEEEENS_25__bucket_list_deallocatorINS_9allocatorIS9_EEEEEC1B8ne180100ILb1EvEEv, symObjAddr: 0x2352C, symBinAddr: 0x1000260C4, symSize: 0x2C }
  - { offset: 0x42DCF, size: 0x8, addend: 0x0, symName: __ZNSt3__117__compressed_pairINS_16__hash_node_baseIPNS_11__hash_nodeINS_17__hash_value_typeIxmEEPvEEEENS_9allocatorIS6_EEEC1B8ne180100ILb1EvEEv, symObjAddr: 0x23558, symBinAddr: 0x1000260F0, symSize: 0x2C }
  - { offset: 0x42E04, size: 0x8, addend: 0x0, symName: __ZNSt3__117__compressed_pairImNS_22__unordered_map_hasherIxNS_17__hash_value_typeIxmEEN6ripserI22sparse_distance_matrixE10entry_hashENS6_11equal_indexELb1EEEEC1B8ne180100IiNS_18__default_init_tagEEEOT_OT0_, symObjAddr: 0x23584, symBinAddr: 0x10002611C, symSize: 0x3C }
  - { offset: 0x42E5C, size: 0x8, addend: 0x0, symName: __ZNSt3__117__compressed_pairIfNS_21__unordered_map_equalIxNS_17__hash_value_typeIxmEEN6ripserI22sparse_distance_matrixE11equal_indexENS6_10entry_hashELb1EEEEC1B8ne180100IfNS_18__default_init_tagEEEOT_OT0_, symObjAddr: 0x235C0, symBinAddr: 0x100026158, symSize: 0x3C }
  - { offset: 0x42EB4, size: 0x8, addend: 0x0, symName: __ZNSt3__110unique_ptrIA_PNS_16__hash_node_baseIPNS_11__hash_nodeINS_17__hash_value_typeIxmEEPvEEEENS_25__bucket_list_deallocatorINS_9allocatorIS9_EEEEEC2B8ne180100ILb1EvEEv, symObjAddr: 0x235FC, symBinAddr: 0x100026194, symSize: 0x3C }
  - { offset: 0x42EE9, size: 0x8, addend: 0x0, symName: __ZNSt3__117__compressed_pairIPPNS_16__hash_node_baseIPNS_11__hash_nodeINS_17__hash_value_typeIxmEEPvEEEENS_25__bucket_list_deallocatorINS_9allocatorIS9_EEEEEC1B8ne180100INS_16__value_init_tagESH_EEOT_OT0_, symObjAddr: 0x23638, symBinAddr: 0x1000261D0, symSize: 0x3C }
  - { offset: 0x42F41, size: 0x8, addend: 0x0, symName: __ZNSt3__117__compressed_pairIPPNS_16__hash_node_baseIPNS_11__hash_nodeINS_17__hash_value_typeIxmEEPvEEEENS_25__bucket_list_deallocatorINS_9allocatorIS9_EEEEEC2B8ne180100INS_16__value_init_tagESH_EEOT_OT0_, symObjAddr: 0x23674, symBinAddr: 0x10002620C, symSize: 0x40 }
  - { offset: 0x42F99, size: 0x8, addend: 0x0, symName: __ZNSt3__122__compressed_pair_elemIPPNS_16__hash_node_baseIPNS_11__hash_nodeINS_17__hash_value_typeIxmEEPvEEEELi0ELb0EEC2B8ne180100ENS_16__value_init_tagE, symObjAddr: 0x236B4, symBinAddr: 0x10002624C, symSize: 0x18 }
  - { offset: 0x42FCD, size: 0x8, addend: 0x0, symName: __ZNSt3__122__compressed_pair_elemINS_25__bucket_list_deallocatorINS_9allocatorIPNS_16__hash_node_baseIPNS_11__hash_nodeINS_17__hash_value_typeIxmEEPvEEEEEEEELi1ELb0EEC2B8ne180100ENS_16__value_init_tagE, symObjAddr: 0x236CC, symBinAddr: 0x100026264, symSize: 0x2C }
  - { offset: 0x43001, size: 0x8, addend: 0x0, symName: __ZNSt3__125__bucket_list_deallocatorINS_9allocatorIPNS_16__hash_node_baseIPNS_11__hash_nodeINS_17__hash_value_typeIxmEEPvEEEEEEEC1B8ne180100Ev, symObjAddr: 0x236F8, symBinAddr: 0x100026290, symSize: 0x2C }
  - { offset: 0x4302B, size: 0x8, addend: 0x0, symName: __ZNSt3__125__bucket_list_deallocatorINS_9allocatorIPNS_16__hash_node_baseIPNS_11__hash_nodeINS_17__hash_value_typeIxmEEPvEEEEEEEC2B8ne180100Ev, symObjAddr: 0x23724, symBinAddr: 0x1000262BC, symSize: 0x40 }
  - { offset: 0x43055, size: 0x8, addend: 0x0, symName: __ZNSt3__117__compressed_pairImNS_9allocatorIPNS_16__hash_node_baseIPNS_11__hash_nodeINS_17__hash_value_typeIxmEEPvEEEEEEEC1B8ne180100IiNS_18__default_init_tagEEEOT_OT0_, symObjAddr: 0x23764, symBinAddr: 0x1000262FC, symSize: 0x3C }
  - { offset: 0x430AD, size: 0x8, addend: 0x0, symName: __ZNSt3__117__compressed_pairImNS_9allocatorIPNS_16__hash_node_baseIPNS_11__hash_nodeINS_17__hash_value_typeIxmEEPvEEEEEEEC2B8ne180100IiNS_18__default_init_tagEEEOT_OT0_, symObjAddr: 0x237A0, symBinAddr: 0x100026338, symSize: 0x40 }
  - { offset: 0x43105, size: 0x8, addend: 0x0, symName: __ZNSt3__122__compressed_pair_elemImLi0ELb0EEC2B8ne180100IivEEOT_, symObjAddr: 0x237E0, symBinAddr: 0x100026378, symSize: 0x24 }
  - { offset: 0x43147, size: 0x8, addend: 0x0, symName: __ZNSt3__122__compressed_pair_elemINS_9allocatorIPNS_16__hash_node_baseIPNS_11__hash_nodeINS_17__hash_value_typeIxmEEPvEEEEEELi1ELb1EEC2B8ne180100ENS_18__default_init_tagE, symObjAddr: 0x23804, symBinAddr: 0x10002639C, symSize: 0x2C }
  - { offset: 0x4317B, size: 0x8, addend: 0x0, symName: __ZNSt3__19allocatorIPNS_16__hash_node_baseIPNS_11__hash_nodeINS_17__hash_value_typeIxmEEPvEEEEEC2B8ne180100Ev, symObjAddr: 0x23830, symBinAddr: 0x1000263C8, symSize: 0x2C }
  - { offset: 0x431A5, size: 0x8, addend: 0x0, symName: __ZNSt3__116__non_trivial_ifILb1ENS_9allocatorIPNS_16__hash_node_baseIPNS_11__hash_nodeINS_17__hash_value_typeIxmEEPvEEEEEEEC2B8ne180100Ev, symObjAddr: 0x2385C, symBinAddr: 0x1000263F4, symSize: 0x14 }
  - { offset: 0x431CF, size: 0x8, addend: 0x0, symName: __ZNSt3__117__compressed_pairINS_16__hash_node_baseIPNS_11__hash_nodeINS_17__hash_value_typeIxmEEPvEEEENS_9allocatorIS6_EEEC2B8ne180100ILb1EvEEv, symObjAddr: 0x23870, symBinAddr: 0x100026408, symSize: 0x34 }
  - { offset: 0x43204, size: 0x8, addend: 0x0, symName: __ZNSt3__122__compressed_pair_elemINS_16__hash_node_baseIPNS_11__hash_nodeINS_17__hash_value_typeIxmEEPvEEEELi0ELb0EEC2B8ne180100ENS_16__value_init_tagE, symObjAddr: 0x238A4, symBinAddr: 0x10002643C, symSize: 0x2C }
  - { offset: 0x43238, size: 0x8, addend: 0x0, symName: __ZNSt3__122__compressed_pair_elemINS_9allocatorINS_11__hash_nodeINS_17__hash_value_typeIxmEEPvEEEELi1ELb1EEC2B8ne180100ENS_16__value_init_tagE, symObjAddr: 0x238D0, symBinAddr: 0x100026468, symSize: 0x2C }
  - { offset: 0x4326C, size: 0x8, addend: 0x0, symName: __ZNSt3__116__hash_node_baseIPNS_11__hash_nodeINS_17__hash_value_typeIxmEEPvEEEC1B8ne180100Ev, symObjAddr: 0x238FC, symBinAddr: 0x100026494, symSize: 0x2C }
  - { offset: 0x43296, size: 0x8, addend: 0x0, symName: __ZNSt3__116__hash_node_baseIPNS_11__hash_nodeINS_17__hash_value_typeIxmEEPvEEEC2B8ne180100Ev, symObjAddr: 0x23928, symBinAddr: 0x1000264C0, symSize: 0x18 }
  - { offset: 0x432C0, size: 0x8, addend: 0x0, symName: __ZNSt3__19allocatorINS_11__hash_nodeINS_17__hash_value_typeIxmEEPvEEEC2B8ne180100Ev, symObjAddr: 0x23940, symBinAddr: 0x1000264D8, symSize: 0x2C }
  - { offset: 0x432EA, size: 0x8, addend: 0x0, symName: __ZNSt3__116__non_trivial_ifILb1ENS_9allocatorINS_11__hash_nodeINS_17__hash_value_typeIxmEEPvEEEEEC2B8ne180100Ev, symObjAddr: 0x2396C, symBinAddr: 0x100026504, symSize: 0x14 }
  - { offset: 0x43314, size: 0x8, addend: 0x0, symName: __ZNSt3__117__compressed_pairImNS_22__unordered_map_hasherIxNS_17__hash_value_typeIxmEEN6ripserI22sparse_distance_matrixE10entry_hashENS6_11equal_indexELb1EEEEC2B8ne180100IiNS_18__default_init_tagEEEOT_OT0_, symObjAddr: 0x23980, symBinAddr: 0x100026518, symSize: 0x40 }
  - { offset: 0x4336C, size: 0x8, addend: 0x0, symName: __ZNSt3__122__compressed_pair_elemINS_22__unordered_map_hasherIxNS_17__hash_value_typeIxmEEN6ripserI22sparse_distance_matrixE10entry_hashENS6_11equal_indexELb1EEELi1ELb1EEC2B8ne180100ENS_18__default_init_tagE, symObjAddr: 0x239C0, symBinAddr: 0x100026558, symSize: 0x2C }
  - { offset: 0x433A0, size: 0x8, addend: 0x0, symName: __ZNSt3__122__unordered_map_hasherIxNS_17__hash_value_typeIxmEEN6ripserI22sparse_distance_matrixE10entry_hashENS5_11equal_indexELb1EEC2B8ne180100Ev, symObjAddr: 0x239EC, symBinAddr: 0x100026584, symSize: 0x14 }
  - { offset: 0x433CA, size: 0x8, addend: 0x0, symName: __ZNSt3__117__compressed_pairIfNS_21__unordered_map_equalIxNS_17__hash_value_typeIxmEEN6ripserI22sparse_distance_matrixE11equal_indexENS6_10entry_hashELb1EEEEC2B8ne180100IfNS_18__default_init_tagEEEOT_OT0_, symObjAddr: 0x23A00, symBinAddr: 0x100026598, symSize: 0x40 }
  - { offset: 0x43422, size: 0x8, addend: 0x0, symName: __ZNSt3__122__compressed_pair_elemIfLi0ELb0EEC2B8ne180100IfvEEOT_, symObjAddr: 0x23A40, symBinAddr: 0x1000265D8, symSize: 0x24 }
  - { offset: 0x43464, size: 0x8, addend: 0x0, symName: __ZNSt3__122__compressed_pair_elemINS_21__unordered_map_equalIxNS_17__hash_value_typeIxmEEN6ripserI22sparse_distance_matrixE11equal_indexENS6_10entry_hashELb1EEELi1ELb1EEC2B8ne180100ENS_18__default_init_tagE, symObjAddr: 0x23A64, symBinAddr: 0x1000265FC, symSize: 0x2C }
  - { offset: 0x43498, size: 0x8, addend: 0x0, symName: __ZNSt3__121__unordered_map_equalIxNS_17__hash_value_typeIxmEEN6ripserI22sparse_distance_matrixE11equal_indexENS5_10entry_hashELb1EEC2B8ne180100Ev, symObjAddr: 0x23A90, symBinAddr: 0x100026628, symSize: 0x14 }
  - { offset: 0x434C2, size: 0x8, addend: 0x0, symName: __ZNSt3__112__hash_tableINS_17__hash_value_typeIxmEENS_22__unordered_map_hasherIxS2_N6ripserI22sparse_distance_matrixE10entry_hashENS6_11equal_indexELb1EEENS_21__unordered_map_equalIxS2_S8_S7_Lb1EEENS_9allocatorIS2_EEE16__reserve_uniqueB8ne180100Em, symObjAddr: 0x23AA4, symBinAddr: 0x10002663C, symSize: 0x58 }
  - { offset: 0x434F7, size: 0x8, addend: 0x0, symName: __ZNSt3__112__hash_tableINS_17__hash_value_typeIxmEENS_22__unordered_map_hasherIxS2_N6ripserI22sparse_distance_matrixE10entry_hashENS6_11equal_indexELb1EEENS_21__unordered_map_equalIxS2_S8_S7_Lb1EEENS_9allocatorIS2_EEE15__rehash_uniqueB8ne180100Em, symObjAddr: 0x23AFC, symBinAddr: 0x100026694, symSize: 0x2C }
  - { offset: 0x4352C, size: 0x8, addend: 0x0, symName: __ZNSt3__112__hash_tableINS_17__hash_value_typeIxmEENS_22__unordered_map_hasherIxS2_N6ripserI22sparse_distance_matrixE10entry_hashENS6_11equal_indexELb1EEENS_21__unordered_map_equalIxS2_S8_S7_Lb1EEENS_9allocatorIS2_EEE15max_load_factorB8ne180100Ev, symObjAddr: 0x23B40, symBinAddr: 0x1000266D8, symSize: 0x28 }
  - { offset: 0x43552, size: 0x8, addend: 0x0, symName: __ZNSt3__112__hash_tableINS_17__hash_value_typeIxmEENS_22__unordered_map_hasherIxS2_N6ripserI22sparse_distance_matrixE10entry_hashENS6_11equal_indexELb1EEENS_21__unordered_map_equalIxS2_S8_S7_Lb1EEENS_9allocatorIS2_EEE8__rehashILb1EEEvm, symObjAddr: 0x23B68, symBinAddr: 0x100026700, symSize: 0x1A8 }
  - { offset: 0x435A2, size: 0x8, addend: 0x0, symName: __ZNKSt3__112__hash_tableINS_17__hash_value_typeIxmEENS_22__unordered_map_hasherIxS2_N6ripserI22sparse_distance_matrixE10entry_hashENS6_11equal_indexELb1EEENS_21__unordered_map_equalIxS2_S8_S7_Lb1EEENS_9allocatorIS2_EEE12bucket_countB8ne180100Ev, symObjAddr: 0x23D10, symBinAddr: 0x1000268A8, symSize: 0x28 }
  - { offset: 0x435C8, size: 0x8, addend: 0x0, symName: __ZNSt3__112__hash_tableINS_17__hash_value_typeIxmEENS_22__unordered_map_hasherIxS2_N6ripserI22sparse_distance_matrixE10entry_hashENS6_11equal_indexELb1EEENS_21__unordered_map_equalIxS2_S8_S7_Lb1EEENS_9allocatorIS2_EEE11__do_rehashILb1EEEvm, symObjAddr: 0x23D38, symBinAddr: 0x1000268D0, symSize: 0x288 }
  - { offset: 0x436AB, size: 0x8, addend: 0x0, symName: __ZNSt3__112__hash_tableINS_17__hash_value_typeIxmEENS_22__unordered_map_hasherIxS2_N6ripserI22sparse_distance_matrixE10entry_hashENS6_11equal_indexELb1EEENS_21__unordered_map_equalIxS2_S8_S7_Lb1EEENS_9allocatorIS2_EEE4sizeB8ne180100Ev, symObjAddr: 0x2407C, symBinAddr: 0x100026C14, symSize: 0x28 }
  - { offset: 0x436D1, size: 0x8, addend: 0x0, symName: __ZNKSt3__110unique_ptrIA_PNS_16__hash_node_baseIPNS_11__hash_nodeINS_17__hash_value_typeIxmEEPvEEEENS_25__bucket_list_deallocatorINS_9allocatorIS9_EEEEE11get_deleterB8ne180100Ev, symObjAddr: 0x240A4, symBinAddr: 0x100026C3C, symSize: 0x24 }
  - { offset: 0x436F7, size: 0x8, addend: 0x0, symName: __ZNKSt3__125__bucket_list_deallocatorINS_9allocatorIPNS_16__hash_node_baseIPNS_11__hash_nodeINS_17__hash_value_typeIxmEEPvEEEEEEE4sizeB8ne180100Ev, symObjAddr: 0x240C8, symBinAddr: 0x100026C60, symSize: 0x28 }
  - { offset: 0x4371D, size: 0x8, addend: 0x0, symName: __ZNKSt3__117__compressed_pairIPPNS_16__hash_node_baseIPNS_11__hash_nodeINS_17__hash_value_typeIxmEEPvEEEENS_25__bucket_list_deallocatorINS_9allocatorIS9_EEEEE6secondB8ne180100Ev, symObjAddr: 0x240F0, symBinAddr: 0x100026C88, symSize: 0x28 }
  - { offset: 0x43743, size: 0x8, addend: 0x0, symName: __ZNKSt3__122__compressed_pair_elemINS_25__bucket_list_deallocatorINS_9allocatorIPNS_16__hash_node_baseIPNS_11__hash_nodeINS_17__hash_value_typeIxmEEPvEEEEEEEELi1ELb0EE5__getB8ne180100Ev, symObjAddr: 0x24118, symBinAddr: 0x100026CB0, symSize: 0x14 }
  - { offset: 0x43769, size: 0x8, addend: 0x0, symName: __ZNKSt3__117__compressed_pairImNS_9allocatorIPNS_16__hash_node_baseIPNS_11__hash_nodeINS_17__hash_value_typeIxmEEPvEEEEEEE5firstB8ne180100Ev, symObjAddr: 0x2412C, symBinAddr: 0x100026CC4, symSize: 0x24 }
  - { offset: 0x4378F, size: 0x8, addend: 0x0, symName: __ZNKSt3__122__compressed_pair_elemImLi0ELb0EE5__getB8ne180100Ev, symObjAddr: 0x24150, symBinAddr: 0x100026CE8, symSize: 0x14 }
  - { offset: 0x437B5, size: 0x8, addend: 0x0, symName: __ZNSt3__110unique_ptrIA_PNS_16__hash_node_baseIPNS_11__hash_nodeINS_17__hash_value_typeIxmEEPvEEEENS_25__bucket_list_deallocatorINS_9allocatorIS9_EEEEE11get_deleterB8ne180100Ev, symObjAddr: 0x24164, symBinAddr: 0x100026CFC, symSize: 0x24 }
  - { offset: 0x437DB, size: 0x8, addend: 0x0, symName: __ZNSt3__125__bucket_list_deallocatorINS_9allocatorIPNS_16__hash_node_baseIPNS_11__hash_nodeINS_17__hash_value_typeIxmEEPvEEEEEEE7__allocB8ne180100Ev, symObjAddr: 0x24188, symBinAddr: 0x100026D20, symSize: 0x24 }
  - { offset: 0x43801, size: 0x8, addend: 0x0, symName: __ZNSt3__110unique_ptrIA_PNS_16__hash_node_baseIPNS_11__hash_nodeINS_17__hash_value_typeIxmEEPvEEEENS_25__bucket_list_deallocatorINS_9allocatorIS9_EEEEE5resetB8ne180100IPS9_Li0EEEvT_, symObjAddr: 0x241AC, symBinAddr: 0x100026D44, symSize: 0x78 }
  - { offset: 0x43854, size: 0x8, addend: 0x0, symName: __ZNSt3__116allocator_traitsINS_9allocatorIPNS_16__hash_node_baseIPNS_11__hash_nodeINS_17__hash_value_typeIxmEEPvEEEEEEE8allocateB8ne180100ERSB_m, symObjAddr: 0x24224, symBinAddr: 0x100026DBC, symSize: 0x2C }
  - { offset: 0x43887, size: 0x8, addend: 0x0, symName: __ZNSt3__125__bucket_list_deallocatorINS_9allocatorIPNS_16__hash_node_baseIPNS_11__hash_nodeINS_17__hash_value_typeIxmEEPvEEEEEEE4sizeB8ne180100Ev, symObjAddr: 0x24250, symBinAddr: 0x100026DE8, symSize: 0x24 }
  - { offset: 0x438AD, size: 0x8, addend: 0x0, symName: __ZNKSt3__110unique_ptrIA_PNS_16__hash_node_baseIPNS_11__hash_nodeINS_17__hash_value_typeIxmEEPvEEEENS_25__bucket_list_deallocatorINS_9allocatorIS9_EEEEEixB8ne180100Em, symObjAddr: 0x24274, symBinAddr: 0x100026E0C, symSize: 0x34 }
  - { offset: 0x438E2, size: 0x8, addend: 0x0, symName: __ZNSt3__117__compressed_pairINS_16__hash_node_baseIPNS_11__hash_nodeINS_17__hash_value_typeIxmEEPvEEEENS_9allocatorIS6_EEE5firstB8ne180100Ev, symObjAddr: 0x242A8, symBinAddr: 0x100026E40, symSize: 0x24 }
  - { offset: 0x43908, size: 0x8, addend: 0x0, symName: __ZNSt3__116__hash_node_baseIPNS_11__hash_nodeINS_17__hash_value_typeIxmEEPvEEE5__ptrB8ne180100Ev, symObjAddr: 0x242CC, symBinAddr: 0x100026E64, symSize: 0x24 }
  - { offset: 0x4392E, size: 0x8, addend: 0x0, symName: __ZNKSt3__116__hash_node_baseIPNS_11__hash_nodeINS_17__hash_value_typeIxmEEPvEEE6__hashB8ne180100Ev, symObjAddr: 0x24388, symBinAddr: 0x100026F20, symSize: 0x18 }
  - { offset: 0x43954, size: 0x8, addend: 0x0, symName: __ZNSt3__117__compressed_pairIPPNS_16__hash_node_baseIPNS_11__hash_nodeINS_17__hash_value_typeIxmEEPvEEEENS_25__bucket_list_deallocatorINS_9allocatorIS9_EEEEE6secondB8ne180100Ev, symObjAddr: 0x243A0, symBinAddr: 0x100026F38, symSize: 0x28 }
  - { offset: 0x4397A, size: 0x8, addend: 0x0, symName: __ZNSt3__122__compressed_pair_elemINS_25__bucket_list_deallocatorINS_9allocatorIPNS_16__hash_node_baseIPNS_11__hash_nodeINS_17__hash_value_typeIxmEEPvEEEEEEEELi1ELb0EE5__getB8ne180100Ev, symObjAddr: 0x243C8, symBinAddr: 0x100026F60, symSize: 0x14 }
  - { offset: 0x439A0, size: 0x8, addend: 0x0, symName: __ZNSt3__117__compressed_pairImNS_9allocatorIPNS_16__hash_node_baseIPNS_11__hash_nodeINS_17__hash_value_typeIxmEEPvEEEEEEE6secondB8ne180100Ev, symObjAddr: 0x243DC, symBinAddr: 0x100026F74, symSize: 0x24 }
  - { offset: 0x439C6, size: 0x8, addend: 0x0, symName: __ZNSt3__122__compressed_pair_elemINS_9allocatorIPNS_16__hash_node_baseIPNS_11__hash_nodeINS_17__hash_value_typeIxmEEPvEEEEEELi1ELb1EE5__getB8ne180100Ev, symObjAddr: 0x24400, symBinAddr: 0x100026F98, symSize: 0x14 }
  - { offset: 0x439EC, size: 0x8, addend: 0x0, symName: __ZNSt3__117__compressed_pairIPPNS_16__hash_node_baseIPNS_11__hash_nodeINS_17__hash_value_typeIxmEEPvEEEENS_25__bucket_list_deallocatorINS_9allocatorIS9_EEEEE5firstB8ne180100Ev, symObjAddr: 0x24414, symBinAddr: 0x100026FAC, symSize: 0x24 }
  - { offset: 0x43A12, size: 0x8, addend: 0x0, symName: __ZNSt3__125__bucket_list_deallocatorINS_9allocatorIPNS_16__hash_node_baseIPNS_11__hash_nodeINS_17__hash_value_typeIxmEEPvEEEEEEEclB8ne180100EPSA_, symObjAddr: 0x24438, symBinAddr: 0x100026FD0, symSize: 0x58 }
  - { offset: 0x43A47, size: 0x8, addend: 0x0, symName: __ZNSt3__122__compressed_pair_elemIPPNS_16__hash_node_baseIPNS_11__hash_nodeINS_17__hash_value_typeIxmEEPvEEEELi0ELb0EE5__getB8ne180100Ev, symObjAddr: 0x24490, symBinAddr: 0x100027028, symSize: 0x14 }
  - { offset: 0x43A6D, size: 0x8, addend: 0x0, symName: __ZNSt3__116allocator_traitsINS_9allocatorIPNS_16__hash_node_baseIPNS_11__hash_nodeINS_17__hash_value_typeIxmEEPvEEEEEEE10deallocateB8ne180100ERSB_PSA_m, symObjAddr: 0x244A4, symBinAddr: 0x10002703C, symSize: 0x34 }
  - { offset: 0x43AAF, size: 0x8, addend: 0x0, symName: __ZNSt3__19allocatorIPNS_16__hash_node_baseIPNS_11__hash_nodeINS_17__hash_value_typeIxmEEPvEEEEE10deallocateB8ne180100EPS9_m, symObjAddr: 0x244D8, symBinAddr: 0x100027070, symSize: 0x40 }
  - { offset: 0x43AF1, size: 0x8, addend: 0x0, symName: __ZNSt3__19allocatorIPNS_16__hash_node_baseIPNS_11__hash_nodeINS_17__hash_value_typeIxmEEPvEEEEE8allocateB8ne180100Em, symObjAddr: 0x24518, symBinAddr: 0x1000270B0, symSize: 0x58 }
  - { offset: 0x43B2F, size: 0x8, addend: 0x0, symName: __ZNSt3__116allocator_traitsINS_9allocatorIPNS_16__hash_node_baseIPNS_11__hash_nodeINS_17__hash_value_typeIxmEEPvEEEEEEE8max_sizeB8ne180100ISB_vEEmRKSB_, symObjAddr: 0x24570, symBinAddr: 0x100027108, symSize: 0x24 }
  - { offset: 0x43B5D, size: 0x8, addend: 0x0, symName: __ZNKSt3__19allocatorIPNS_16__hash_node_baseIPNS_11__hash_nodeINS_17__hash_value_typeIxmEEPvEEEEE8max_sizeB8ne180100Ev, symObjAddr: 0x24594, symBinAddr: 0x10002712C, symSize: 0x14 }
  - { offset: 0x43B83, size: 0x8, addend: 0x0, symName: __ZNSt3__117__compressed_pairImNS_9allocatorIPNS_16__hash_node_baseIPNS_11__hash_nodeINS_17__hash_value_typeIxmEEPvEEEEEEE5firstB8ne180100Ev, symObjAddr: 0x245A8, symBinAddr: 0x100027140, symSize: 0x24 }
  - { offset: 0x43BA9, size: 0x8, addend: 0x0, symName: __ZNSt3__122__compressed_pair_elemImLi0ELb0EE5__getB8ne180100Ev, symObjAddr: 0x245CC, symBinAddr: 0x100027164, symSize: 0x14 }
  - { offset: 0x43BCF, size: 0x8, addend: 0x0, symName: __ZNKSt3__117__compressed_pairIPPNS_16__hash_node_baseIPNS_11__hash_nodeINS_17__hash_value_typeIxmEEPvEEEENS_25__bucket_list_deallocatorINS_9allocatorIS9_EEEEE5firstB8ne180100Ev, symObjAddr: 0x245E0, symBinAddr: 0x100027178, symSize: 0x24 }
  - { offset: 0x43BF5, size: 0x8, addend: 0x0, symName: __ZNKSt3__122__compressed_pair_elemIPPNS_16__hash_node_baseIPNS_11__hash_nodeINS_17__hash_value_typeIxmEEPvEEEELi0ELb0EE5__getB8ne180100Ev, symObjAddr: 0x24604, symBinAddr: 0x10002719C, symSize: 0x14 }
  - { offset: 0x43C1B, size: 0x8, addend: 0x0, symName: __ZNSt3__122__compressed_pair_elemINS_16__hash_node_baseIPNS_11__hash_nodeINS_17__hash_value_typeIxmEEPvEEEELi0ELb0EE5__getB8ne180100Ev, symObjAddr: 0x24618, symBinAddr: 0x1000271B0, symSize: 0x14 }
  - { offset: 0x43C41, size: 0x8, addend: 0x0, symName: __ZNSt3__114pointer_traitsIPNS_16__hash_node_baseIPNS_11__hash_nodeINS_17__hash_value_typeIxmEEPvEEEEE10pointer_toB8ne180100ERS8_, symObjAddr: 0x2462C, symBinAddr: 0x1000271C4, symSize: 0x14 }
  - { offset: 0x43C64, size: 0x8, addend: 0x0, symName: __ZNSt3__117__compressed_pairImNS_22__unordered_map_hasherIxNS_17__hash_value_typeIxmEEN6ripserI22sparse_distance_matrixE10entry_hashENS6_11equal_indexELb1EEEE5firstB8ne180100Ev, symObjAddr: 0x24640, symBinAddr: 0x1000271D8, symSize: 0x24 }
  - { offset: 0x43C8A, size: 0x8, addend: 0x0, symName: __ZNSt3__117__compressed_pairIfNS_21__unordered_map_equalIxNS_17__hash_value_typeIxmEEN6ripserI22sparse_distance_matrixE11equal_indexENS6_10entry_hashELb1EEEE5firstB8ne180100Ev, symObjAddr: 0x24664, symBinAddr: 0x1000271FC, symSize: 0x24 }
  - { offset: 0x43CB0, size: 0x8, addend: 0x0, symName: __ZNSt3__122__compressed_pair_elemIfLi0ELb0EE5__getB8ne180100Ev, symObjAddr: 0x24688, symBinAddr: 0x100027220, symSize: 0x14 }
  - { offset: 0x43DAF, size: 0x8, addend: 0x0, symName: __ZN24compressed_sparse_matrixI16diameter_entry_tEC1Ev, symObjAddr: 0x2469C, symBinAddr: 0x100027234, symSize: 0x2C }
  - { offset: 0x43DDC, size: 0x8, addend: 0x0, symName: __ZNKSt3__16vectorINS_4pairIfxEENS_9allocatorIS2_EEEixB8ne180100Em, symObjAddr: 0x246C8, symBinAddr: 0x100027260, symSize: 0x24 }
  - { offset: 0x43E13, size: 0x8, addend: 0x0, symName: __ZN16diameter_entry_tC1ERKNSt3__14pairIfxEEt, symObjAddr: 0x246EC, symBinAddr: 0x100027284, symSize: 0x6C }
  - { offset: 0x43E59, size: 0x8, addend: 0x0, symName: __ZN24compressed_sparse_matrixI16diameter_entry_tE13append_columnEv, symObjAddr: 0x24758, symBinAddr: 0x1000272F0, symSize: 0x40 }
  - { offset: 0x43E7F, size: 0x8, addend: 0x0, symName: __ZNSt3__114priority_queueI16diameter_entry_tNS_6vectorIS1_NS_9allocatorIS1_EEEE38greater_diameter_or_smaller_index_compIS1_EEC1B8ne180100Ev, symObjAddr: 0x24798, symBinAddr: 0x100027330, symSize: 0x2C }
  - { offset: 0x43EA9, size: 0x8, addend: 0x0, symName: __ZNSt3__113unordered_mapIxmN6ripserI22sparse_distance_matrixE10entry_hashENS3_11equal_indexENS_9allocatorINS_4pairIKxmEEEEE4findB8ne180100ERS8_, symObjAddr: 0x24AC0, symBinAddr: 0x100027658, symSize: 0x40 }
  - { offset: 0x43EDE, size: 0x8, addend: 0x0, symName: __ZNSt3__113unordered_mapIxmN6ripserI22sparse_distance_matrixE10entry_hashENS3_11equal_indexENS_9allocatorINS_4pairIKxmEEEEE3endB8ne180100Ev, symObjAddr: 0x24B30, symBinAddr: 0x1000276C8, symSize: 0x38 }
  - { offset: 0x43F04, size: 0x8, addend: 0x0, symName: __ZNKSt3__119__hash_map_iteratorINS_15__hash_iteratorIPNS_11__hash_nodeINS_17__hash_value_typeIxmEEPvEEEEEptB8ne180100Ev, symObjAddr: 0x24B68, symBinAddr: 0x100027700, symSize: 0x2C }
  - { offset: 0x43F2A, size: 0x8, addend: 0x0, symName: __ZNKSt3__16vectorItNS_9allocatorItEEEixB8ne180100Em, symObjAddr: 0x24B94, symBinAddr: 0x10002772C, symSize: 0x24 }
  - { offset: 0x43F6B, size: 0x8, addend: 0x0, symName: __ZN6ripserI22sparse_distance_matrixE14add_coboundaryINSt3__114priority_queueI16diameter_entry_tNS3_6vectorIS5_NS3_9allocatorIS5_EEEE38greater_diameter_or_smaller_index_compIS5_EEEEEvR24compressed_sparse_matrixIS5_ERKNS6_INS3_4pairIfxEENS7_ISH_EEEEmtRKmRT_SP_, symObjAddr: 0x24BB8, symBinAddr: 0x100027750, symSize: 0x164 }
  - { offset: 0x44068, size: 0x8, addend: 0x0, symName: __ZN6ripserI22sparse_distance_matrixE9get_pivotINSt3__114priority_queueI16diameter_entry_tNS3_6vectorIS5_NS3_9allocatorIS5_EEEE38greater_diameter_or_smaller_index_compIS5_EEEEES5_RT_, symObjAddr: 0x24D1C, symBinAddr: 0x1000278B4, symSize: 0x68 }
  - { offset: 0x440BB, size: 0x8, addend: 0x0, symName: __ZN16diameter_entry_taSEOS_, symObjAddr: 0x24D84, symBinAddr: 0x10002791C, symSize: 0x34 }
  - { offset: 0x440EC, size: 0x8, addend: 0x0, symName: __ZN6ripserI22sparse_distance_matrixE23get_zero_apparent_facetE16diameter_entry_tx, symObjAddr: 0x24DB8, symBinAddr: 0x100027950, symSize: 0xF0 }
  - { offset: 0x4413F, size: 0x8, addend: 0x0, symName: __ZNSt3__113unordered_mapIxmN6ripserI22sparse_distance_matrixE10entry_hashENS3_11equal_indexENS_9allocatorINS_4pairIKxmEEEEE6insertB8ne180100EOS9_, symObjAddr: 0x25020, symBinAddr: 0x100027BB8, symSize: 0x4C }
  - { offset: 0x44174, size: 0x8, addend: 0x0, symName: __ZNSt3__14pairIKxmEC1B8ne180100IRxRmLi0EEEOT_OT0_, symObjAddr: 0x2506C, symBinAddr: 0x100027C04, symSize: 0x3C }
  - { offset: 0x441D2, size: 0x8, addend: 0x0, symName: __ZN6ripserI22sparse_distance_matrixE9pop_pivotINSt3__114priority_queueI16diameter_entry_tNS3_6vectorIS5_NS3_9allocatorIS5_EEEE38greater_diameter_or_smaller_index_compIS5_EEEEES5_RT_, symObjAddr: 0x250A8, symBinAddr: 0x100027C40, symSize: 0xDC }
  - { offset: 0x4421F, size: 0x8, addend: 0x0, symName: __ZN24compressed_sparse_matrixI16diameter_entry_tE9push_backES0_, symObjAddr: 0x25184, symBinAddr: 0x100027D1C, symSize: 0x8C }
  - { offset: 0x44254, size: 0x8, addend: 0x0, symName: __ZNSt3__114priority_queueI16diameter_entry_tNS_6vectorIS1_NS_9allocatorIS1_EEEE38greater_diameter_or_smaller_index_compIS1_EED1Ev, symObjAddr: 0x25210, symBinAddr: 0x100027DA8, symSize: 0x2C }
  - { offset: 0x44281, size: 0x8, addend: 0x0, symName: __ZN24compressed_sparse_matrixI16diameter_entry_tED1Ev, symObjAddr: 0x2523C, symBinAddr: 0x100027DD4, symSize: 0x2C }
  - { offset: 0x442AE, size: 0x8, addend: 0x0, symName: __ZN24compressed_sparse_matrixI16diameter_entry_tEC2Ev, symObjAddr: 0x25268, symBinAddr: 0x100027E00, symSize: 0x38 }
  - { offset: 0x442DB, size: 0x8, addend: 0x0, symName: __ZNSt3__16vectorImNS_9allocatorImEEEC1B8ne180100Ev, symObjAddr: 0x252A0, symBinAddr: 0x100027E38, symSize: 0x2C }
  - { offset: 0x44305, size: 0x8, addend: 0x0, symName: __ZNSt3__16vectorImNS_9allocatorImEEEC2B8ne180100Ev, symObjAddr: 0x252CC, symBinAddr: 0x100027E64, symSize: 0x4C }
  - { offset: 0x4432F, size: 0x8, addend: 0x0, symName: __ZNSt3__117__compressed_pairIPmNS_9allocatorImEEEC1B8ne180100IDnNS_18__default_init_tagEEEOT_OT0_, symObjAddr: 0x25318, symBinAddr: 0x100027EB0, symSize: 0x3C }
  - { offset: 0x44387, size: 0x8, addend: 0x0, symName: __ZNSt3__117__compressed_pairIPmNS_9allocatorImEEEC2B8ne180100IDnNS_18__default_init_tagEEEOT_OT0_, symObjAddr: 0x25354, symBinAddr: 0x100027EEC, symSize: 0x40 }
  - { offset: 0x443DF, size: 0x8, addend: 0x0, symName: __ZNSt3__122__compressed_pair_elemIPmLi0ELb0EEC2B8ne180100IDnvEEOT_, symObjAddr: 0x25394, symBinAddr: 0x100027F2C, symSize: 0x1C }
  - { offset: 0x44421, size: 0x8, addend: 0x0, symName: __ZNSt3__122__compressed_pair_elemINS_9allocatorImEELi1ELb1EEC2B8ne180100ENS_18__default_init_tagE, symObjAddr: 0x253B0, symBinAddr: 0x100027F48, symSize: 0x2C }
  - { offset: 0x44455, size: 0x8, addend: 0x0, symName: __ZNSt3__19allocatorImEC2B8ne180100Ev, symObjAddr: 0x253DC, symBinAddr: 0x100027F74, symSize: 0x2C }
  - { offset: 0x4447F, size: 0x8, addend: 0x0, symName: __ZNSt3__116__non_trivial_ifILb1ENS_9allocatorImEEEC2B8ne180100Ev, symObjAddr: 0x25408, symBinAddr: 0x100027FA0, symSize: 0x14 }
  - { offset: 0x444A9, size: 0x8, addend: 0x0, symName: __ZNSt3__16vectorImNS_9allocatorImEEE9push_backB8ne180100EOm, symObjAddr: 0x2541C, symBinAddr: 0x100027FB4, symSize: 0x90 }
  - { offset: 0x444EF, size: 0x8, addend: 0x0, symName: __ZNKSt3__16vectorI16diameter_entry_tNS_9allocatorIS1_EEE4sizeB8ne180100Ev, symObjAddr: 0x254AC, symBinAddr: 0x100028044, symSize: 0x28 }
  - { offset: 0x44515, size: 0x8, addend: 0x0, symName: __ZNSt3__16vectorImNS_9allocatorImEEE9__end_capB8ne180100Ev, symObjAddr: 0x254D4, symBinAddr: 0x10002806C, symSize: 0x28 }
  - { offset: 0x44541, size: 0x8, addend: 0x0, symName: __ZNSt3__16vectorImNS_9allocatorImEEE22__construct_one_at_endB8ne180100IJmEEEvDpOT_, symObjAddr: 0x254FC, symBinAddr: 0x100028094, symSize: 0x90 }
  - { offset: 0x44590, size: 0x8, addend: 0x0, symName: __ZNSt3__16vectorImNS_9allocatorImEEE21__push_back_slow_pathImEEPmOT_, symObjAddr: 0x2558C, symBinAddr: 0x100028124, symSize: 0xE8 }
  - { offset: 0x445EE, size: 0x8, addend: 0x0, symName: __ZNSt3__117__compressed_pairIPmNS_9allocatorImEEE5firstB8ne180100Ev, symObjAddr: 0x25674, symBinAddr: 0x10002820C, symSize: 0x24 }
  - { offset: 0x44614, size: 0x8, addend: 0x0, symName: __ZNSt3__122__compressed_pair_elemIPmLi0ELb0EE5__getB8ne180100Ev, symObjAddr: 0x25698, symBinAddr: 0x100028230, symSize: 0x14 }
  - { offset: 0x44653, size: 0x8, addend: 0x0, symName: __ZNSt3__16vectorImNS_9allocatorImEEE21_ConstructTransactionC1B8ne180100ERS3_m, symObjAddr: 0x256AC, symBinAddr: 0x100028244, symSize: 0x3C }
  - { offset: 0x4469B, size: 0x8, addend: 0x0, symName: __ZNSt3__116allocator_traitsINS_9allocatorImEEE9constructB8ne180100ImJmEvEEvRS2_PT_DpOT0_, symObjAddr: 0x256E8, symBinAddr: 0x100028280, symSize: 0x34 }
  - { offset: 0x446F2, size: 0x8, addend: 0x0, symName: __ZNSt3__16vectorImNS_9allocatorImEEE7__allocB8ne180100Ev, symObjAddr: 0x2571C, symBinAddr: 0x1000282B4, symSize: 0x28 }
  - { offset: 0x44718, size: 0x8, addend: 0x0, symName: __ZNSt3__16vectorImNS_9allocatorImEEE21_ConstructTransactionD1B8ne180100Ev, symObjAddr: 0x25758, symBinAddr: 0x1000282F0, symSize: 0x2C }
  - { offset: 0x44742, size: 0x8, addend: 0x0, symName: __ZNSt3__16vectorImNS_9allocatorImEEE21_ConstructTransactionC2B8ne180100ERS3_m, symObjAddr: 0x25784, symBinAddr: 0x10002831C, symSize: 0x44 }
  - { offset: 0x4478A, size: 0x8, addend: 0x0, symName: __ZNSt3__19allocatorImE9constructB8ne180100ImJmEEEvPT_DpOT0_, symObjAddr: 0x257C8, symBinAddr: 0x100028360, symSize: 0x28 }
  - { offset: 0x447E0, size: 0x8, addend: 0x0, symName: __ZNSt3__117__compressed_pairIPmNS_9allocatorImEEE6secondB8ne180100Ev, symObjAddr: 0x257F0, symBinAddr: 0x100028388, symSize: 0x24 }
  - { offset: 0x44806, size: 0x8, addend: 0x0, symName: __ZNSt3__122__compressed_pair_elemINS_9allocatorImEELi1ELb1EE5__getB8ne180100Ev, symObjAddr: 0x25814, symBinAddr: 0x1000283AC, symSize: 0x14 }
  - { offset: 0x4482C, size: 0x8, addend: 0x0, symName: __ZNSt3__16vectorImNS_9allocatorImEEE21_ConstructTransactionD2B8ne180100Ev, symObjAddr: 0x25828, symBinAddr: 0x1000283C0, symSize: 0x20 }
  - { offset: 0x44856, size: 0x8, addend: 0x0, symName: __ZNKSt3__16vectorImNS_9allocatorImEEE11__recommendB8ne180100Em, symObjAddr: 0x25848, symBinAddr: 0x1000283E0, symSize: 0xB4 }
  - { offset: 0x448AB, size: 0x8, addend: 0x0, symName: __ZNKSt3__16vectorImNS_9allocatorImEEE4sizeB8ne180100Ev, symObjAddr: 0x258FC, symBinAddr: 0x100028494, symSize: 0x28 }
  - { offset: 0x448D1, size: 0x8, addend: 0x0, symName: __ZNSt3__114__split_bufferImRNS_9allocatorImEEEC1EmmS3_, symObjAddr: 0x25924, symBinAddr: 0x1000284BC, symSize: 0x44 }
  - { offset: 0x44927, size: 0x8, addend: 0x0, symName: __ZNSt3__114__split_bufferImRNS_9allocatorImEEED1Ev, symObjAddr: 0x25A78, symBinAddr: 0x100028610, symSize: 0x2C }
  - { offset: 0x44953, size: 0x8, addend: 0x0, symName: __ZNKSt3__16vectorImNS_9allocatorImEEE8max_sizeEv, symObjAddr: 0x25AA4, symBinAddr: 0x10002863C, symSize: 0x60 }
  - { offset: 0x4497B, size: 0x8, addend: 0x0, symName: __ZNKSt3__16vectorImNS_9allocatorImEEE20__throw_length_errorB8ne180100Ev, symObjAddr: 0x25B04, symBinAddr: 0x10002869C, symSize: 0x1C }
  - { offset: 0x449A1, size: 0x8, addend: 0x0, symName: __ZNKSt3__16vectorImNS_9allocatorImEEE8capacityB8ne180100Ev, symObjAddr: 0x25B20, symBinAddr: 0x1000286B8, symSize: 0x40 }
  - { offset: 0x449D1, size: 0x8, addend: 0x0, symName: __ZNSt3__116allocator_traitsINS_9allocatorImEEE8max_sizeB8ne180100IS2_vEEmRKS2_, symObjAddr: 0x25B60, symBinAddr: 0x1000286F8, symSize: 0x24 }
  - { offset: 0x449FF, size: 0x8, addend: 0x0, symName: __ZNKSt3__16vectorImNS_9allocatorImEEE7__allocB8ne180100Ev, symObjAddr: 0x25B84, symBinAddr: 0x10002871C, symSize: 0x28 }
  - { offset: 0x44A25, size: 0x8, addend: 0x0, symName: __ZNKSt3__19allocatorImE8max_sizeB8ne180100Ev, symObjAddr: 0x25BAC, symBinAddr: 0x100028744, symSize: 0x14 }
  - { offset: 0x44A4B, size: 0x8, addend: 0x0, symName: __ZNKSt3__117__compressed_pairIPmNS_9allocatorImEEE6secondB8ne180100Ev, symObjAddr: 0x25BC0, symBinAddr: 0x100028758, symSize: 0x24 }
  - { offset: 0x44A71, size: 0x8, addend: 0x0, symName: __ZNKSt3__122__compressed_pair_elemINS_9allocatorImEELi1ELb1EE5__getB8ne180100Ev, symObjAddr: 0x25BE4, symBinAddr: 0x10002877C, symSize: 0x14 }
  - { offset: 0x44A97, size: 0x8, addend: 0x0, symName: __ZNKSt3__16vectorImNS_9allocatorImEEE9__end_capB8ne180100Ev, symObjAddr: 0x25BF8, symBinAddr: 0x100028790, symSize: 0x28 }
  - { offset: 0x44ABD, size: 0x8, addend: 0x0, symName: __ZNKSt3__117__compressed_pairIPmNS_9allocatorImEEE5firstB8ne180100Ev, symObjAddr: 0x25C20, symBinAddr: 0x1000287B8, symSize: 0x24 }
  - { offset: 0x44AE3, size: 0x8, addend: 0x0, symName: __ZNKSt3__122__compressed_pair_elemIPmLi0ELb0EE5__getB8ne180100Ev, symObjAddr: 0x25C44, symBinAddr: 0x1000287DC, symSize: 0x14 }
  - { offset: 0x44B09, size: 0x8, addend: 0x0, symName: __ZNSt3__114__split_bufferImRNS_9allocatorImEEEC2EmmS3_, symObjAddr: 0x25C58, symBinAddr: 0x1000287F0, symSize: 0xD4 }
  - { offset: 0x44B7C, size: 0x8, addend: 0x0, symName: __ZNSt3__117__compressed_pairIPmRNS_9allocatorImEEEC1B8ne180100IDnS4_EEOT_OT0_, symObjAddr: 0x25D2C, symBinAddr: 0x1000288C4, symSize: 0x3C }
  - { offset: 0x44BD4, size: 0x8, addend: 0x0, symName: __ZNSt3__114__split_bufferImRNS_9allocatorImEEE7__allocB8ne180100Ev, symObjAddr: 0x25DA8, symBinAddr: 0x100028940, symSize: 0x28 }
  - { offset: 0x44BFA, size: 0x8, addend: 0x0, symName: __ZNSt3__114__split_bufferImRNS_9allocatorImEEE9__end_capB8ne180100Ev, symObjAddr: 0x25DD0, symBinAddr: 0x100028968, symSize: 0x28 }
  - { offset: 0x44C20, size: 0x8, addend: 0x0, symName: __ZNSt3__117__compressed_pairIPmRNS_9allocatorImEEEC2B8ne180100IDnS4_EEOT_OT0_, symObjAddr: 0x25DF8, symBinAddr: 0x100028990, symSize: 0x48 }
  - { offset: 0x44C78, size: 0x8, addend: 0x0, symName: __ZNSt3__122__compressed_pair_elemIRNS_9allocatorImEELi1ELb0EEC2B8ne180100IS3_vEEOT_, symObjAddr: 0x25E40, symBinAddr: 0x1000289D8, symSize: 0x20 }
  - { offset: 0x44CBA, size: 0x8, addend: 0x0, symName: __ZNSt3__19allocatorImE8allocateB8ne180100Em, symObjAddr: 0x25E60, symBinAddr: 0x1000289F8, symSize: 0x58 }
  - { offset: 0x44CEE, size: 0x8, addend: 0x0, symName: __ZNSt3__117__compressed_pairIPmRNS_9allocatorImEEE6secondB8ne180100Ev, symObjAddr: 0x25EB8, symBinAddr: 0x100028A50, symSize: 0x28 }
  - { offset: 0x44D14, size: 0x8, addend: 0x0, symName: __ZNSt3__122__compressed_pair_elemIRNS_9allocatorImEELi1ELb0EE5__getB8ne180100Ev, symObjAddr: 0x25EE0, symBinAddr: 0x100028A78, symSize: 0x18 }
  - { offset: 0x44D3A, size: 0x8, addend: 0x0, symName: __ZNSt3__117__compressed_pairIPmRNS_9allocatorImEEE5firstB8ne180100Ev, symObjAddr: 0x25EF8, symBinAddr: 0x100028A90, symSize: 0x24 }
  - { offset: 0x44D60, size: 0x8, addend: 0x0, symName: __ZNKSt3__16vectorImNS_9allocatorImEEE17__annotate_deleteB8ne180100Ev, symObjAddr: 0x25F1C, symBinAddr: 0x100028AB4, symSize: 0x10 }
  - { offset: 0x44D86, size: 0x8, addend: 0x0, symName: __ZNSt3__116reverse_iteratorIPmEC1B8ne180100ES1_, symObjAddr: 0x25FA4, symBinAddr: 0x100028B3C, symSize: 0x34 }
  - { offset: 0x44DBE, size: 0x8, addend: 0x0, symName: __ZNKSt3__116reverse_iteratorIPmE4baseB8ne180100Ev, symObjAddr: 0x25FD8, symBinAddr: 0x100028B70, symSize: 0x18 }
  - { offset: 0x44DE4, size: 0x8, addend: 0x0, symName: __ZNKSt3__16vectorImNS_9allocatorImEEE14__annotate_newB8ne180100Em, symObjAddr: 0x2602C, symBinAddr: 0x100028BC4, symSize: 0x14 }
  - { offset: 0x44E33, size: 0x8, addend: 0x0, symName: __ZNKSt3__111__move_loopINS_17_ClassicAlgPolicyEEclB8ne180100INS_16reverse_iteratorIPmEES6_S6_EENS_4pairIT_T1_EES8_T0_S9_, symObjAddr: 0x26330, symBinAddr: 0x100028EC8, symSize: 0xA0 }
  - { offset: 0x44EA4, size: 0x8, addend: 0x0, symName: __ZNSt3__18_IterOpsINS_17_ClassicAlgPolicyEE11__iter_moveB8ne180100IRNS_16reverse_iteratorIPmEELi0EEEDTclsr3stdE4movedeclsr3stdE7declvalIRT_EEEEOS8_, symObjAddr: 0x26564, symBinAddr: 0x1000290FC, symSize: 0x28 }
  - { offset: 0x44ED6, size: 0x8, addend: 0x0, symName: __ZNKSt3__116reverse_iteratorIPmEdeB8ne180100Ev, symObjAddr: 0x2658C, symBinAddr: 0x100029124, symSize: 0x28 }
  - { offset: 0x44F0A, size: 0x8, addend: 0x0, symName: __ZNSt3__116reverse_iteratorIPmEppB8ne180100Ev, symObjAddr: 0x265B4, symBinAddr: 0x10002914C, symSize: 0x20 }
  - { offset: 0x44F30, size: 0x8, addend: 0x0, symName: __ZNSt3__18_IterOpsINS_17_ClassicAlgPolicyEE25__validate_iter_referenceB8ne180100IRNS_16reverse_iteratorIPmEEEEvv, symObjAddr: 0x265D4, symBinAddr: 0x10002916C, symSize: 0x4 }
  - { offset: 0x44F4E, size: 0x8, addend: 0x0, symName: __ZNSt3__118__unwrap_iter_implINS_16reverse_iteratorIPmEELb0EE8__unwrapB8ne180100ES3_, symObjAddr: 0x265D8, symBinAddr: 0x100029170, symSize: 0x24 }
  - { offset: 0x44F77, size: 0x8, addend: 0x0, symName: __ZNSt3__14pairINS_16reverse_iteratorIPmEES3_EC1B8ne180100IS3_S3_Li0EEEOT_OT0_, symObjAddr: 0x265FC, symBinAddr: 0x100029194, symSize: 0x3C }
  - { offset: 0x44FD5, size: 0x8, addend: 0x0, symName: __ZNSt3__14pairINS_16reverse_iteratorIPmEES3_EC2B8ne180100IS3_S3_Li0EEEOT_OT0_, symObjAddr: 0x26638, symBinAddr: 0x1000291D0, symSize: 0x34 }
  - { offset: 0x45033, size: 0x8, addend: 0x0, symName: __ZNSt3__118__unwrap_iter_implINS_16reverse_iteratorIPmEELb0EE8__rewrapB8ne180100ES3_S3_, symObjAddr: 0x2666C, symBinAddr: 0x100029204, symSize: 0x2C }
  - { offset: 0x45060, size: 0x8, addend: 0x0, symName: __ZNSt3__116reverse_iteratorIPmEC2B8ne180100ES1_, symObjAddr: 0x26698, symBinAddr: 0x100029230, symSize: 0x28 }
  - { offset: 0x45098, size: 0x8, addend: 0x0, symName: __ZNSt3__114__split_bufferImRNS_9allocatorImEEED2Ev, symObjAddr: 0x266C0, symBinAddr: 0x100029258, symSize: 0x8C }
  - { offset: 0x450C4, size: 0x8, addend: 0x0, symName: __ZNSt3__114__split_bufferImRNS_9allocatorImEEE5clearB8ne180100Ev, symObjAddr: 0x2674C, symBinAddr: 0x1000292E4, symSize: 0x28 }
  - { offset: 0x450EA, size: 0x8, addend: 0x0, symName: __ZNSt3__116allocator_traitsINS_9allocatorImEEE10deallocateB8ne180100ERS2_Pmm, symObjAddr: 0x26774, symBinAddr: 0x10002930C, symSize: 0x34 }
  - { offset: 0x4512C, size: 0x8, addend: 0x0, symName: __ZNKSt3__114__split_bufferImRNS_9allocatorImEEE8capacityB8ne180100Ev, symObjAddr: 0x267A8, symBinAddr: 0x100029340, symSize: 0x40 }
  - { offset: 0x45152, size: 0x8, addend: 0x0, symName: __ZNSt3__114__split_bufferImRNS_9allocatorImEEE17__destruct_at_endB8ne180100EPm, symObjAddr: 0x267E8, symBinAddr: 0x100029380, symSize: 0x2C }
  - { offset: 0x45186, size: 0x8, addend: 0x0, symName: __ZNSt3__114__split_bufferImRNS_9allocatorImEEE17__destruct_at_endB8ne180100EPmNS_17integral_constantIbLb0EEE, symObjAddr: 0x26814, symBinAddr: 0x1000293AC, symSize: 0x80 }
  - { offset: 0x451C6, size: 0x8, addend: 0x0, symName: __ZNSt3__116allocator_traitsINS_9allocatorImEEE7destroyB8ne180100ImvEEvRS2_PT_, symObjAddr: 0x26894, symBinAddr: 0x10002942C, symSize: 0x2C }
  - { offset: 0x45203, size: 0x8, addend: 0x0, symName: __ZNSt3__19allocatorImE7destroyB8ne180100EPm, symObjAddr: 0x268C0, symBinAddr: 0x100029458, symSize: 0x14 }
  - { offset: 0x45237, size: 0x8, addend: 0x0, symName: __ZNSt3__19allocatorImE10deallocateB8ne180100EPmm, symObjAddr: 0x268D4, symBinAddr: 0x10002946C, symSize: 0x40 }
  - { offset: 0x45279, size: 0x8, addend: 0x0, symName: __ZNKSt3__114__split_bufferImRNS_9allocatorImEEE9__end_capB8ne180100Ev, symObjAddr: 0x26914, symBinAddr: 0x1000294AC, symSize: 0x28 }
  - { offset: 0x4529F, size: 0x8, addend: 0x0, symName: __ZNKSt3__117__compressed_pairIPmRNS_9allocatorImEEE5firstB8ne180100Ev, symObjAddr: 0x2693C, symBinAddr: 0x1000294D4, symSize: 0x24 }
  - { offset: 0x452C5, size: 0x8, addend: 0x0, symName: __ZNSt3__114priority_queueI16diameter_entry_tNS_6vectorIS1_NS_9allocatorIS1_EEEE38greater_diameter_or_smaller_index_compIS1_EEC2B8ne180100Ev, symObjAddr: 0x26960, symBinAddr: 0x1000294F8, symSize: 0x2C }
  - { offset: 0x452EF, size: 0x8, addend: 0x0, symName: __ZNSt3__16vectorI16diameter_entry_tNS_9allocatorIS1_EEE5clearB8ne180100Ev, symObjAddr: 0x2698C, symBinAddr: 0x100029524, symSize: 0x44 }
  - { offset: 0x45324, size: 0x8, addend: 0x0, symName: __ZNSt3__16vectorI16diameter_entry_tNS_9allocatorIS1_EEE9push_backB8ne180100ERKS1_, symObjAddr: 0x269D0, symBinAddr: 0x100029568, symSize: 0x90 }
  - { offset: 0x4536A, size: 0x8, addend: 0x0, symName: __ZNSt3__16vectorI16diameter_entry_tNS_9allocatorIS1_EEE5beginB8ne180100Ev, symObjAddr: 0x26A90, symBinAddr: 0x100029628, symSize: 0x30 }
  - { offset: 0x45392, size: 0x8, addend: 0x0, symName: __ZNSt3__16vectorI16diameter_entry_tNS_9allocatorIS1_EEE3endB8ne180100Ev, symObjAddr: 0x26AC0, symBinAddr: 0x100029658, symSize: 0x30 }
  - { offset: 0x453BA, size: 0x8, addend: 0x0, symName: __ZNKSt3__111__wrap_iterIP16diameter_entry_tEdeB8ne180100Ev, symObjAddr: 0x26B24, symBinAddr: 0x1000296BC, symSize: 0x18 }
  - { offset: 0x453E0, size: 0x8, addend: 0x0, symName: __ZNSt3__114priority_queueI16diameter_entry_tNS_6vectorIS1_NS_9allocatorIS1_EEEE38greater_diameter_or_smaller_index_compIS1_EE4pushERKS1_, symObjAddr: 0x26B3C, symBinAddr: 0x1000296D4, symSize: 0x58 }
  - { offset: 0x45417, size: 0x8, addend: 0x0, symName: __ZNSt3__111__wrap_iterIP16diameter_entry_tEppB8ne180100Ev, symObjAddr: 0x26B94, symBinAddr: 0x10002972C, symSize: 0x20 }
  - { offset: 0x4543D, size: 0x8, addend: 0x0, symName: __ZNKSt3__16vectorI16diameter_entry_tNS_9allocatorIS1_EEE17__annotate_shrinkB8ne180100Em, symObjAddr: 0x26BB4, symBinAddr: 0x10002974C, symSize: 0x14 }
  - { offset: 0x45472, size: 0x8, addend: 0x0, symName: __ZNSt3__16vectorI16diameter_entry_tNS_9allocatorIS1_EEE9__end_capB8ne180100Ev, symObjAddr: 0x26BC8, symBinAddr: 0x100029760, symSize: 0x28 }
  - { offset: 0x45498, size: 0x8, addend: 0x0, symName: __ZNSt3__16vectorI16diameter_entry_tNS_9allocatorIS1_EEE22__construct_one_at_endB8ne180100IJRKS1_EEEvDpOT_, symObjAddr: 0x26BF0, symBinAddr: 0x100029788, symSize: 0x90 }
  - { offset: 0x454E7, size: 0x8, addend: 0x0, symName: __ZNSt3__16vectorI16diameter_entry_tNS_9allocatorIS1_EEE21__push_back_slow_pathIRKS1_EEPS1_OT_, symObjAddr: 0x26C80, symBinAddr: 0x100029818, symSize: 0xE8 }
  - { offset: 0x45545, size: 0x8, addend: 0x0, symName: __ZNSt3__117__compressed_pairIP16diameter_entry_tNS_9allocatorIS1_EEE5firstB8ne180100Ev, symObjAddr: 0x26D68, symBinAddr: 0x100029900, symSize: 0x24 }
  - { offset: 0x4556B, size: 0x8, addend: 0x0, symName: __ZNSt3__122__compressed_pair_elemIP16diameter_entry_tLi0ELb0EE5__getB8ne180100Ev, symObjAddr: 0x26D8C, symBinAddr: 0x100029924, symSize: 0x14 }
  - { offset: 0x455AA, size: 0x8, addend: 0x0, symName: __ZNSt3__16vectorI16diameter_entry_tNS_9allocatorIS1_EEE21_ConstructTransactionC1B8ne180100ERS4_m, symObjAddr: 0x26DA0, symBinAddr: 0x100029938, symSize: 0x3C }
  - { offset: 0x455F2, size: 0x8, addend: 0x0, symName: __ZNSt3__116allocator_traitsINS_9allocatorI16diameter_entry_tEEE9constructB8ne180100IS2_JRKS2_EvEEvRS3_PT_DpOT0_, symObjAddr: 0x26DDC, symBinAddr: 0x100029974, symSize: 0x34 }
  - { offset: 0x45649, size: 0x8, addend: 0x0, symName: __ZNSt3__16vectorI16diameter_entry_tNS_9allocatorIS1_EEE21_ConstructTransactionD1B8ne180100Ev, symObjAddr: 0x26E10, symBinAddr: 0x1000299A8, symSize: 0x2C }
  - { offset: 0x45673, size: 0x8, addend: 0x0, symName: __ZNSt3__16vectorI16diameter_entry_tNS_9allocatorIS1_EEE21_ConstructTransactionC2B8ne180100ERS4_m, symObjAddr: 0x26E3C, symBinAddr: 0x1000299D4, symSize: 0x44 }
  - { offset: 0x456BB, size: 0x8, addend: 0x0, symName: __ZNSt3__19allocatorI16diameter_entry_tE9constructB8ne180100IS1_JRKS1_EEEvPT_DpOT0_, symObjAddr: 0x26E80, symBinAddr: 0x100029A18, symSize: 0x28 }
  - { offset: 0x45711, size: 0x8, addend: 0x0, symName: __ZNSt3__16vectorI16diameter_entry_tNS_9allocatorIS1_EEE21_ConstructTransactionD2B8ne180100Ev, symObjAddr: 0x26EA8, symBinAddr: 0x100029A40, symSize: 0x20 }
  - { offset: 0x4573B, size: 0x8, addend: 0x0, symName: __ZNKSt3__16vectorI16diameter_entry_tNS_9allocatorIS1_EEE11__recommendB8ne180100Em, symObjAddr: 0x26EC8, symBinAddr: 0x100029A60, symSize: 0xB4 }
  - { offset: 0x45790, size: 0x8, addend: 0x0, symName: __ZNSt3__114__split_bufferI16diameter_entry_tRNS_9allocatorIS1_EEEC1EmmS4_, symObjAddr: 0x26F7C, symBinAddr: 0x100029B14, symSize: 0x44 }
  - { offset: 0x457E6, size: 0x8, addend: 0x0, symName: __ZNSt3__114__split_bufferI16diameter_entry_tRNS_9allocatorIS1_EEED1Ev, symObjAddr: 0x270D0, symBinAddr: 0x100029C68, symSize: 0x2C }
  - { offset: 0x45812, size: 0x8, addend: 0x0, symName: __ZNKSt3__16vectorI16diameter_entry_tNS_9allocatorIS1_EEE8max_sizeEv, symObjAddr: 0x270FC, symBinAddr: 0x100029C94, symSize: 0x60 }
  - { offset: 0x4583A, size: 0x8, addend: 0x0, symName: __ZNKSt3__16vectorI16diameter_entry_tNS_9allocatorIS1_EEE20__throw_length_errorB8ne180100Ev, symObjAddr: 0x2715C, symBinAddr: 0x100029CF4, symSize: 0x1C }
  - { offset: 0x4586A, size: 0x8, addend: 0x0, symName: __ZNSt3__116allocator_traitsINS_9allocatorI16diameter_entry_tEEE8max_sizeB8ne180100IS3_vEEmRKS3_, symObjAddr: 0x27178, symBinAddr: 0x100029D10, symSize: 0x24 }
  - { offset: 0x45898, size: 0x8, addend: 0x0, symName: __ZNKSt3__16vectorI16diameter_entry_tNS_9allocatorIS1_EEE7__allocB8ne180100Ev, symObjAddr: 0x2719C, symBinAddr: 0x100029D34, symSize: 0x28 }
  - { offset: 0x458BE, size: 0x8, addend: 0x0, symName: __ZNKSt3__19allocatorI16diameter_entry_tE8max_sizeB8ne180100Ev, symObjAddr: 0x271C4, symBinAddr: 0x100029D5C, symSize: 0x14 }
  - { offset: 0x458E4, size: 0x8, addend: 0x0, symName: __ZNKSt3__117__compressed_pairIP16diameter_entry_tNS_9allocatorIS1_EEE6secondB8ne180100Ev, symObjAddr: 0x271D8, symBinAddr: 0x100029D70, symSize: 0x24 }
  - { offset: 0x4590A, size: 0x8, addend: 0x0, symName: __ZNKSt3__122__compressed_pair_elemINS_9allocatorI16diameter_entry_tEELi1ELb1EE5__getB8ne180100Ev, symObjAddr: 0x271FC, symBinAddr: 0x100029D94, symSize: 0x14 }
  - { offset: 0x45930, size: 0x8, addend: 0x0, symName: __ZNSt3__114__split_bufferI16diameter_entry_tRNS_9allocatorIS1_EEEC2EmmS4_, symObjAddr: 0x27210, symBinAddr: 0x100029DA8, symSize: 0xD4 }
  - { offset: 0x459A3, size: 0x8, addend: 0x0, symName: __ZNSt3__117__compressed_pairIP16diameter_entry_tRNS_9allocatorIS1_EEEC1B8ne180100IDnS5_EEOT_OT0_, symObjAddr: 0x272E4, symBinAddr: 0x100029E7C, symSize: 0x3C }
  - { offset: 0x459FB, size: 0x8, addend: 0x0, symName: __ZNSt3__114__split_bufferI16diameter_entry_tRNS_9allocatorIS1_EEE7__allocB8ne180100Ev, symObjAddr: 0x27360, symBinAddr: 0x100029EF8, symSize: 0x28 }
  - { offset: 0x45A21, size: 0x8, addend: 0x0, symName: __ZNSt3__114__split_bufferI16diameter_entry_tRNS_9allocatorIS1_EEE9__end_capB8ne180100Ev, symObjAddr: 0x27388, symBinAddr: 0x100029F20, symSize: 0x28 }
  - { offset: 0x45A47, size: 0x8, addend: 0x0, symName: __ZNSt3__117__compressed_pairIP16diameter_entry_tRNS_9allocatorIS1_EEEC2B8ne180100IDnS5_EEOT_OT0_, symObjAddr: 0x273B0, symBinAddr: 0x100029F48, symSize: 0x48 }
  - { offset: 0x45A9F, size: 0x8, addend: 0x0, symName: __ZNSt3__122__compressed_pair_elemIRNS_9allocatorI16diameter_entry_tEELi1ELb0EEC2B8ne180100IS4_vEEOT_, symObjAddr: 0x273F8, symBinAddr: 0x100029F90, symSize: 0x20 }
  - { offset: 0x45AE1, size: 0x8, addend: 0x0, symName: __ZNSt3__19allocatorI16diameter_entry_tE8allocateB8ne180100Em, symObjAddr: 0x27418, symBinAddr: 0x100029FB0, symSize: 0x58 }
  - { offset: 0x45B15, size: 0x8, addend: 0x0, symName: __ZNSt3__117__compressed_pairIP16diameter_entry_tRNS_9allocatorIS1_EEE6secondB8ne180100Ev, symObjAddr: 0x27470, symBinAddr: 0x10002A008, symSize: 0x28 }
  - { offset: 0x45B3B, size: 0x8, addend: 0x0, symName: __ZNSt3__122__compressed_pair_elemIRNS_9allocatorI16diameter_entry_tEELi1ELb0EE5__getB8ne180100Ev, symObjAddr: 0x27498, symBinAddr: 0x10002A030, symSize: 0x18 }
  - { offset: 0x45B61, size: 0x8, addend: 0x0, symName: __ZNSt3__117__compressed_pairIP16diameter_entry_tRNS_9allocatorIS1_EEE5firstB8ne180100Ev, symObjAddr: 0x274B0, symBinAddr: 0x10002A048, symSize: 0x24 }
  - { offset: 0x45B87, size: 0x8, addend: 0x0, symName: __ZNSt3__116reverse_iteratorIP16diameter_entry_tEC1B8ne180100ES2_, symObjAddr: 0x27600, symBinAddr: 0x10002A198, symSize: 0x34 }
  - { offset: 0x45BBF, size: 0x8, addend: 0x0, symName: __ZNKSt3__116reverse_iteratorIP16diameter_entry_tE4baseB8ne180100Ev, symObjAddr: 0x27634, symBinAddr: 0x10002A1CC, symSize: 0x18 }
  - { offset: 0x45BE5, size: 0x8, addend: 0x0, symName: __ZNKSt3__16vectorI16diameter_entry_tNS_9allocatorIS1_EEE14__annotate_newB8ne180100Em, symObjAddr: 0x27688, symBinAddr: 0x10002A220, symSize: 0x14 }
  - { offset: 0x45C1A, size: 0x8, addend: 0x0, symName: __ZNSt3__129_AllocatorDestroyRangeReverseINS_9allocatorI16diameter_entry_tEENS_16reverse_iteratorIPS2_EEEC1B8ne180100ERS3_RS6_S9_, symObjAddr: 0x276E8, symBinAddr: 0x10002A280, symSize: 0x44 }
  - { offset: 0x45C71, size: 0x8, addend: 0x0, symName: __ZNSt3__116allocator_traitsINS_9allocatorI16diameter_entry_tEEE9constructB8ne180100IS2_JS2_EvEEvRS3_PT_DpOT0_, symObjAddr: 0x27774, symBinAddr: 0x10002A30C, symSize: 0x34 }
  - { offset: 0x45CC8, size: 0x8, addend: 0x0, symName: __ZNKSt3__116reverse_iteratorIP16diameter_entry_tEdeB8ne180100Ev, symObjAddr: 0x277CC, symBinAddr: 0x10002A364, symSize: 0x28 }
  - { offset: 0x45CFC, size: 0x8, addend: 0x0, symName: __ZNSt3__116reverse_iteratorIP16diameter_entry_tEppB8ne180100Ev, symObjAddr: 0x277F4, symBinAddr: 0x10002A38C, symSize: 0x20 }
  - { offset: 0x45D22, size: 0x8, addend: 0x0, symName: __ZNSt3__128__exception_guard_exceptionsINS_29_AllocatorDestroyRangeReverseINS_9allocatorI16diameter_entry_tEENS_16reverse_iteratorIPS3_EEEEE10__completeB8ne180100Ev, symObjAddr: 0x27814, symBinAddr: 0x10002A3AC, symSize: 0x1C }
  - { offset: 0x45D48, size: 0x8, addend: 0x0, symName: __ZNSt3__128__exception_guard_exceptionsINS_29_AllocatorDestroyRangeReverseINS_9allocatorI16diameter_entry_tEENS_16reverse_iteratorIPS3_EEEEED1B8ne180100Ev, symObjAddr: 0x27830, symBinAddr: 0x10002A3C8, symSize: 0x2C }
  - { offset: 0x45D72, size: 0x8, addend: 0x0, symName: __ZNSt3__128__exception_guard_exceptionsINS_29_AllocatorDestroyRangeReverseINS_9allocatorI16diameter_entry_tEENS_16reverse_iteratorIPS3_EEEEEC1B8ne180100ES8_, symObjAddr: 0x2785C, symBinAddr: 0x10002A3F4, symSize: 0x34 }
  - { offset: 0x45DAB, size: 0x8, addend: 0x0, symName: __ZNSt3__128__exception_guard_exceptionsINS_29_AllocatorDestroyRangeReverseINS_9allocatorI16diameter_entry_tEENS_16reverse_iteratorIPS3_EEEEEC2B8ne180100ES8_, symObjAddr: 0x27890, symBinAddr: 0x10002A428, symSize: 0x30 }
  - { offset: 0x45DE4, size: 0x8, addend: 0x0, symName: __ZNSt3__129_AllocatorDestroyRangeReverseINS_9allocatorI16diameter_entry_tEENS_16reverse_iteratorIPS2_EEEC2B8ne180100ERS3_RS6_S9_, symObjAddr: 0x278C0, symBinAddr: 0x10002A458, symSize: 0x38 }
  - { offset: 0x45E3B, size: 0x8, addend: 0x0, symName: __ZNSt3__19allocatorI16diameter_entry_tE9constructB8ne180100IS1_JS1_EEEvPT_DpOT0_, symObjAddr: 0x278F8, symBinAddr: 0x10002A490, symSize: 0x28 }
  - { offset: 0x45E96, size: 0x8, addend: 0x0, symName: __ZNSt3__119__to_address_helperINS_16reverse_iteratorIP16diameter_entry_tEEvE6__callB8ne180100ERKS4_, symObjAddr: 0x27920, symBinAddr: 0x10002A4B8, symSize: 0x38 }
  - { offset: 0x45EB9, size: 0x8, addend: 0x0, symName: __ZNKSt3__116reverse_iteratorIP16diameter_entry_tEptB8ne180100Ev, symObjAddr: 0x27958, symBinAddr: 0x10002A4F0, symSize: 0x24 }
  - { offset: 0x45EDF, size: 0x8, addend: 0x0, symName: __ZNSt3__128__exception_guard_exceptionsINS_29_AllocatorDestroyRangeReverseINS_9allocatorI16diameter_entry_tEENS_16reverse_iteratorIPS3_EEEEED2B8ne180100Ev, symObjAddr: 0x2797C, symBinAddr: 0x10002A514, symSize: 0x50 }
  - { offset: 0x45F09, size: 0x8, addend: 0x0, symName: __ZNKSt3__129_AllocatorDestroyRangeReverseINS_9allocatorI16diameter_entry_tEENS_16reverse_iteratorIPS2_EEEclB8ne180100Ev, symObjAddr: 0x279CC, symBinAddr: 0x10002A564, symSize: 0xB4 }
  - { offset: 0x45F30, size: 0x8, addend: 0x0, symName: __ZNSt3__116reverse_iteratorINS0_IP16diameter_entry_tEEEC1B8ne180100ES3_, symObjAddr: 0x27AF0, symBinAddr: 0x10002A688, symSize: 0x3C }
  - { offset: 0x45F68, size: 0x8, addend: 0x0, symName: __ZNSt3__116reverse_iteratorINS0_IP16diameter_entry_tEEEppB8ne180100Ev, symObjAddr: 0x27BB0, symBinAddr: 0x10002A748, symSize: 0x30 }
  - { offset: 0x45F8E, size: 0x8, addend: 0x0, symName: __ZNKSt3__116reverse_iteratorINS0_IP16diameter_entry_tEEE4baseB8ne180100Ev, symObjAddr: 0x27BE0, symBinAddr: 0x10002A778, symSize: 0x24 }
  - { offset: 0x45FB9, size: 0x8, addend: 0x0, symName: __ZNSt3__119__to_address_helperINS_16reverse_iteratorINS1_IP16diameter_entry_tEEEEvE6__callB8ne180100ERKS5_, symObjAddr: 0x27C04, symBinAddr: 0x10002A79C, symSize: 0x38 }
  - { offset: 0x45FDC, size: 0x8, addend: 0x0, symName: __ZNKSt3__116reverse_iteratorINS0_IP16diameter_entry_tEEEptB8ne180100Ev, symObjAddr: 0x27C3C, symBinAddr: 0x10002A7D4, symSize: 0x24 }
  - { offset: 0x46002, size: 0x8, addend: 0x0, symName: __ZNKSt3__116reverse_iteratorINS0_IP16diameter_entry_tEEEdeB8ne180100Ev, symObjAddr: 0x27C60, symBinAddr: 0x10002A7F8, symSize: 0x34 }
  - { offset: 0x46036, size: 0x8, addend: 0x0, symName: __ZNSt3__116reverse_iteratorIP16diameter_entry_tEmmB8ne180100Ev, symObjAddr: 0x27C94, symBinAddr: 0x10002A82C, symSize: 0x20 }
  - { offset: 0x4605C, size: 0x8, addend: 0x0, symName: __ZNSt3__116reverse_iteratorINS0_IP16diameter_entry_tEEEC2B8ne180100ES3_, symObjAddr: 0x27CB4, symBinAddr: 0x10002A84C, symSize: 0x2C }
  - { offset: 0x46094, size: 0x8, addend: 0x0, symName: __ZNSt3__116reverse_iteratorIP16diameter_entry_tEC2B8ne180100ES2_, symObjAddr: 0x27CE0, symBinAddr: 0x10002A878, symSize: 0x28 }
  - { offset: 0x460CC, size: 0x8, addend: 0x0, symName: __ZNSt3__114__split_bufferI16diameter_entry_tRNS_9allocatorIS1_EEED2Ev, symObjAddr: 0x27D08, symBinAddr: 0x10002A8A0, symSize: 0x8C }
  - { offset: 0x460F8, size: 0x8, addend: 0x0, symName: __ZNSt3__114__split_bufferI16diameter_entry_tRNS_9allocatorIS1_EEE5clearB8ne180100Ev, symObjAddr: 0x27D94, symBinAddr: 0x10002A92C, symSize: 0x28 }
  - { offset: 0x4611E, size: 0x8, addend: 0x0, symName: __ZNKSt3__114__split_bufferI16diameter_entry_tRNS_9allocatorIS1_EEE8capacityB8ne180100Ev, symObjAddr: 0x27DBC, symBinAddr: 0x10002A954, symSize: 0x40 }
  - { offset: 0x46144, size: 0x8, addend: 0x0, symName: __ZNSt3__114__split_bufferI16diameter_entry_tRNS_9allocatorIS1_EEE17__destruct_at_endB8ne180100EPS1_, symObjAddr: 0x27DFC, symBinAddr: 0x10002A994, symSize: 0x2C }
  - { offset: 0x46178, size: 0x8, addend: 0x0, symName: __ZNSt3__114__split_bufferI16diameter_entry_tRNS_9allocatorIS1_EEE17__destruct_at_endB8ne180100EPS1_NS_17integral_constantIbLb0EEE, symObjAddr: 0x27E28, symBinAddr: 0x10002A9C0, symSize: 0x80 }
  - { offset: 0x461B8, size: 0x8, addend: 0x0, symName: __ZNKSt3__114__split_bufferI16diameter_entry_tRNS_9allocatorIS1_EEE9__end_capB8ne180100Ev, symObjAddr: 0x27EA8, symBinAddr: 0x10002AA40, symSize: 0x28 }
  - { offset: 0x461DE, size: 0x8, addend: 0x0, symName: __ZNKSt3__117__compressed_pairIP16diameter_entry_tRNS_9allocatorIS1_EEE5firstB8ne180100Ev, symObjAddr: 0x27ED0, symBinAddr: 0x10002AA68, symSize: 0x24 }
  - { offset: 0x46204, size: 0x8, addend: 0x0, symName: __ZNSt3__16vectorI16diameter_entry_tNS_9allocatorIS1_EEE11__make_iterB8ne180100EPS1_, symObjAddr: 0x27F24, symBinAddr: 0x10002AABC, symSize: 0x30 }
  - { offset: 0x46239, size: 0x8, addend: 0x0, symName: __ZNSt3__111__wrap_iterIP16diameter_entry_tEC1B8ne180100ES2_, symObjAddr: 0x27F54, symBinAddr: 0x10002AAEC, symSize: 0x34 }
  - { offset: 0x46271, size: 0x8, addend: 0x0, symName: __ZNSt3__111__wrap_iterIP16diameter_entry_tEC2B8ne180100ES2_, symObjAddr: 0x27F88, symBinAddr: 0x10002AB20, symSize: 0x20 }
  - { offset: 0x462A9, size: 0x8, addend: 0x0, symName: __ZNKSt3__111__wrap_iterIP16diameter_entry_tE4baseB8ne180100Ev, symObjAddr: 0x27FF0, symBinAddr: 0x10002AB88, symSize: 0x18 }
  - { offset: 0x462CF, size: 0x8, addend: 0x0, symName: __ZNKSt3__111__wrap_iterIP16diameter_entry_tEplB8ne180100El, symObjAddr: 0x28248, symBinAddr: 0x10002ADE0, symSize: 0x3C }
  - { offset: 0x46311, size: 0x8, addend: 0x0, symName: __ZN38greater_diameter_or_smaller_index_compI16diameter_entry_tEclERKS0_S3_, symObjAddr: 0x28284, symBinAddr: 0x10002AE1C, symSize: 0x34 }
  - { offset: 0x46353, size: 0x8, addend: 0x0, symName: __ZNSt3__111__wrap_iterIP16diameter_entry_tEmmB8ne180100Ev, symObjAddr: 0x282B8, symBinAddr: 0x10002AE50, symSize: 0x20 }
  - { offset: 0x4637F, size: 0x8, addend: 0x0, symName: __ZNSt3__18_IterOpsINS_17_ClassicAlgPolicyEE11__iter_moveB8ne180100IRNS_11__wrap_iterIP16diameter_entry_tEELi0EEEDTclsr3stdE4movedeclsr3stdE7declvalIRT_EEEEOS9_, symObjAddr: 0x282D8, symBinAddr: 0x10002AE70, symSize: 0x28 }
  - { offset: 0x463B1, size: 0x8, addend: 0x0, symName: __ZNSt3__111__wrap_iterIP16diameter_entry_tEpLB8ne180100El, symObjAddr: 0x28300, symBinAddr: 0x10002AE98, symSize: 0x28 }
  - { offset: 0x463E4, size: 0x8, addend: 0x0, symName: __Z33greater_diameter_or_smaller_indexI16diameter_entry_tEbRKT_S3_, symObjAddr: 0x28328, symBinAddr: 0x10002AEC0, symSize: 0xD0 }
  - { offset: 0x46428, size: 0x8, addend: 0x0, symName: __ZNSt3__18_IterOpsINS_17_ClassicAlgPolicyEE25__validate_iter_referenceB8ne180100IRNS_11__wrap_iterIP16diameter_entry_tEEEEvv, symObjAddr: 0x283F8, symBinAddr: 0x10002AF90, symSize: 0x4 }
  - { offset: 0x46446, size: 0x8, addend: 0x0, symName: __ZNSt3__112__hash_tableINS_17__hash_value_typeIxmEENS_22__unordered_map_hasherIxS2_N6ripserI22sparse_distance_matrixE10entry_hashENS6_11equal_indexELb1EEENS_21__unordered_map_equalIxS2_S8_S7_Lb1EEENS_9allocatorIS2_EEE4findIxEENS_15__hash_iteratorIPNS_11__hash_nodeIS2_PvEEEERKT_, symObjAddr: 0x283FC, symBinAddr: 0x10002AF94, symSize: 0x1B0 }
  - { offset: 0x464D0, size: 0x8, addend: 0x0, symName: __ZNSt3__119__hash_map_iteratorINS_15__hash_iteratorIPNS_11__hash_nodeINS_17__hash_value_typeIxmEEPvEEEEEC1B8ne180100ES8_, symObjAddr: 0x285AC, symBinAddr: 0x10002B144, symSize: 0x34 }
  - { offset: 0x46509, size: 0x8, addend: 0x0, symName: __ZNSt3__112__hash_tableINS_17__hash_value_typeIxmEENS_22__unordered_map_hasherIxS2_N6ripserI22sparse_distance_matrixE10entry_hashENS6_11equal_indexELb1EEENS_21__unordered_map_equalIxS2_S8_S7_Lb1EEENS_9allocatorIS2_EEE13hash_functionB8ne180100Ev, symObjAddr: 0x285E0, symBinAddr: 0x10002B178, symSize: 0x28 }
  - { offset: 0x4652F, size: 0x8, addend: 0x0, symName: __ZNKSt3__122__unordered_map_hasherIxNS_17__hash_value_typeIxmEEN6ripserI22sparse_distance_matrixE10entry_hashENS5_11equal_indexELb1EEclB8ne180100ERKx, symObjAddr: 0x28608, symBinAddr: 0x10002B1A0, symSize: 0x2C }
  - { offset: 0x46564, size: 0x8, addend: 0x0, symName: __ZNSt3__112__hash_tableINS_17__hash_value_typeIxmEENS_22__unordered_map_hasherIxS2_N6ripserI22sparse_distance_matrixE10entry_hashENS6_11equal_indexELb1EEENS_21__unordered_map_equalIxS2_S8_S7_Lb1EEENS_9allocatorIS2_EEE6key_eqB8ne180100Ev, symObjAddr: 0x28634, symBinAddr: 0x10002B1CC, symSize: 0x28 }
  - { offset: 0x4658A, size: 0x8, addend: 0x0, symName: __ZNKSt3__121__unordered_map_equalIxNS_17__hash_value_typeIxmEEN6ripserI22sparse_distance_matrixE11equal_indexENS5_10entry_hashELb1EEclB8ne180100ERKS2_RKx, symObjAddr: 0x2865C, symBinAddr: 0x10002B1F4, symSize: 0x48 }
  - { offset: 0x465CE, size: 0x8, addend: 0x0, symName: __ZNSt3__116__hash_node_baseIPNS_11__hash_nodeINS_17__hash_value_typeIxmEEPvEEE8__upcastB8ne180100Ev, symObjAddr: 0x286A4, symBinAddr: 0x10002B23C, symSize: 0x24 }
  - { offset: 0x465F4, size: 0x8, addend: 0x0, symName: __ZNSt3__111__hash_nodeINS_17__hash_value_typeIxmEEPvE11__get_valueB8ne180100Ev, symObjAddr: 0x286C8, symBinAddr: 0x10002B260, symSize: 0x18 }
  - { offset: 0x4661A, size: 0x8, addend: 0x0, symName: __ZNSt3__115__hash_iteratorIPNS_11__hash_nodeINS_17__hash_value_typeIxmEEPvEEEC1B8ne180100EPNS_16__hash_node_baseIS6_EE, symObjAddr: 0x286E0, symBinAddr: 0x10002B278, symSize: 0x34 }
  - { offset: 0x46653, size: 0x8, addend: 0x0, symName: __ZNSt3__112__hash_tableINS_17__hash_value_typeIxmEENS_22__unordered_map_hasherIxS2_N6ripserI22sparse_distance_matrixE10entry_hashENS6_11equal_indexELb1EEENS_21__unordered_map_equalIxS2_S8_S7_Lb1EEENS_9allocatorIS2_EEE3endEv, symObjAddr: 0x28714, symBinAddr: 0x10002B2AC, symSize: 0x2C }
  - { offset: 0x4667B, size: 0x8, addend: 0x0, symName: __ZNSt3__117__compressed_pairImNS_22__unordered_map_hasherIxNS_17__hash_value_typeIxmEEN6ripserI22sparse_distance_matrixE10entry_hashENS6_11equal_indexELb1EEEE6secondB8ne180100Ev, symObjAddr: 0x28740, symBinAddr: 0x10002B2D8, symSize: 0x24 }
  - { offset: 0x466A1, size: 0x8, addend: 0x0, symName: __ZNSt3__122__compressed_pair_elemINS_22__unordered_map_hasherIxNS_17__hash_value_typeIxmEEN6ripserI22sparse_distance_matrixE10entry_hashENS6_11equal_indexELb1EEELi1ELb1EE5__getB8ne180100Ev, symObjAddr: 0x28764, symBinAddr: 0x10002B2FC, symSize: 0x14 }
  - { offset: 0x466C7, size: 0x8, addend: 0x0, symName: __ZNK6ripserI22sparse_distance_matrixE10entry_hashclERKx, symObjAddr: 0x28778, symBinAddr: 0x10002B310, symSize: 0x34 }
  - { offset: 0x46706, size: 0x8, addend: 0x0, symName: __ZNKSt3__113__scalar_hashIxLm1EEclB8ne180100Ex, symObjAddr: 0x287AC, symBinAddr: 0x10002B344, symSize: 0x20 }
  - { offset: 0x4676C, size: 0x8, addend: 0x0, symName: __ZNSt3__117__compressed_pairIfNS_21__unordered_map_equalIxNS_17__hash_value_typeIxmEEN6ripserI22sparse_distance_matrixE11equal_indexENS6_10entry_hashELb1EEEE6secondB8ne180100Ev, symObjAddr: 0x287CC, symBinAddr: 0x10002B364, symSize: 0x24 }
  - { offset: 0x46792, size: 0x8, addend: 0x0, symName: __ZNSt3__122__compressed_pair_elemINS_21__unordered_map_equalIxNS_17__hash_value_typeIxmEEN6ripserI22sparse_distance_matrixE11equal_indexENS6_10entry_hashELb1EEELi1ELb1EE5__getB8ne180100Ev, symObjAddr: 0x287F0, symBinAddr: 0x10002B388, symSize: 0x14 }
  - { offset: 0x467B8, size: 0x8, addend: 0x0, symName: __ZNK6ripserI22sparse_distance_matrixE11equal_indexclERKxS4_, symObjAddr: 0x28804, symBinAddr: 0x10002B39C, symSize: 0x4C }
  - { offset: 0x467FC, size: 0x8, addend: 0x0, symName: __ZNKSt3__117__hash_value_typeIxmE11__get_valueB8ne180100Ev, symObjAddr: 0x28850, symBinAddr: 0x10002B3E8, symSize: 0x14 }
  - { offset: 0x46822, size: 0x8, addend: 0x0, symName: __ZNSt3__115__hash_iteratorIPNS_11__hash_nodeINS_17__hash_value_typeIxmEEPvEEEC2B8ne180100EPNS_16__hash_node_baseIS6_EE, symObjAddr: 0x28864, symBinAddr: 0x10002B3FC, symSize: 0x20 }
  - { offset: 0x4685B, size: 0x8, addend: 0x0, symName: __ZNSt3__119__hash_map_iteratorINS_15__hash_iteratorIPNS_11__hash_nodeINS_17__hash_value_typeIxmEEPvEEEEEC2B8ne180100ES8_, symObjAddr: 0x28884, symBinAddr: 0x10002B41C, symSize: 0x20 }
  - { offset: 0x46894, size: 0x8, addend: 0x0, symName: __ZNSt3__114pointer_traitsIPNS_4pairIKxmEEE10pointer_toB8ne180100ERS3_, symObjAddr: 0x288D8, symBinAddr: 0x10002B470, symSize: 0x14 }
  - { offset: 0x468B7, size: 0x8, addend: 0x0, symName: __ZNKSt3__115__hash_iteratorIPNS_11__hash_nodeINS_17__hash_value_typeIxmEEPvEEEptB8ne180100Ev, symObjAddr: 0x288EC, symBinAddr: 0x10002B484, symSize: 0x30 }
  - { offset: 0x468DD, size: 0x8, addend: 0x0, symName: __ZNSt3__117__hash_value_typeIxmE11__get_valueB8ne180100Ev, symObjAddr: 0x2891C, symBinAddr: 0x10002B4B4, symSize: 0x14 }
  - { offset: 0x46903, size: 0x8, addend: 0x0, symName: __ZNSt3__114pointer_traitsIPNS_17__hash_value_typeIxmEEE10pointer_toB8ne180100ERS2_, symObjAddr: 0x28930, symBinAddr: 0x10002B4C8, symSize: 0x14 }
  - { offset: 0x46926, size: 0x8, addend: 0x0, symName: __ZN24compressed_sparse_matrixI16diameter_entry_tE8subrangeEx, symObjAddr: 0x28944, symBinAddr: 0x10002B4DC, symSize: 0xDC }
  - { offset: 0x4695A, size: 0x8, addend: 0x0, symName: __Z5beginINSt3__111__wrap_iterIP16diameter_entry_tEEET_RNS0_4pairIS5_S5_EE, symObjAddr: 0x28A20, symBinAddr: 0x10002B5B8, symSize: 0x20 }
  - { offset: 0x46991, size: 0x8, addend: 0x0, symName: __Z3endINSt3__111__wrap_iterIP16diameter_entry_tEEET_RNS0_4pairIS5_S5_EE, symObjAddr: 0x28A40, symBinAddr: 0x10002B5D8, symSize: 0x20 }
  - { offset: 0x469C9, size: 0x8, addend: 0x0, symName: __ZNSt3__16vectorImNS_9allocatorImEEEixB8ne180100Em, symObjAddr: 0x28A60, symBinAddr: 0x10002B5F8, symSize: 0x24 }
  - { offset: 0x46A06, size: 0x8, addend: 0x0, symName: __ZNSt3__14pairINS_11__wrap_iterIP16diameter_entry_tEES4_EC1B8ne180100IS4_S4_Li0EEEOT_OT0_, symObjAddr: 0x28A84, symBinAddr: 0x10002B61C, symSize: 0x3C }
  - { offset: 0x46A64, size: 0x8, addend: 0x0, symName: __ZNSt3__14pairINS_11__wrap_iterIP16diameter_entry_tEES4_EC2B8ne180100IS4_S4_Li0EEEOT_OT0_, symObjAddr: 0x28AC0, symBinAddr: 0x10002B658, symSize: 0x34 }
  - { offset: 0x46AC2, size: 0x8, addend: 0x0, symName: __ZNSt3__112__hash_tableINS_17__hash_value_typeIxmEENS_22__unordered_map_hasherIxS2_N6ripserI22sparse_distance_matrixE10entry_hashENS6_11equal_indexELb1EEENS_21__unordered_map_equalIxS2_S8_S7_Lb1EEENS_9allocatorIS2_EEE15__insert_uniqueB8ne180100EONS_4pairIKxmEE, symObjAddr: 0x28AF4, symBinAddr: 0x10002B68C, symSize: 0x50 }
  - { offset: 0x46AF7, size: 0x8, addend: 0x0, symName: __ZNSt3__14pairINS_19__hash_map_iteratorINS_15__hash_iteratorIPNS_11__hash_nodeINS_17__hash_value_typeIxmEEPvEEEEEEbEC1B8ne180100IS9_bLi0EEEONS0_IT_T0_EE, symObjAddr: 0x28B44, symBinAddr: 0x10002B6DC, symSize: 0x34 }
  - { offset: 0x46B47, size: 0x8, addend: 0x0, symName: __ZNSt3__112__hash_tableINS_17__hash_value_typeIxmEENS_22__unordered_map_hasherIxS2_N6ripserI22sparse_distance_matrixE10entry_hashENS6_11equal_indexELb1EEENS_21__unordered_map_equalIxS2_S8_S7_Lb1EEENS_9allocatorIS2_EEE25__emplace_unique_key_argsIxJNS_4pairIKxmEEEEENSG_INS_15__hash_iteratorIPNS_11__hash_nodeIS2_PvEEEEbEERKT_DpOT0_, symObjAddr: 0x28B78, symBinAddr: 0x10002B710, symSize: 0x4A0 }
  - { offset: 0x46C27, size: 0x8, addend: 0x0, symName: __ZNSt3__122__hash_key_value_typesINS_17__hash_value_typeIxmEEE9__get_keyB8ne180100ERKNS_4pairIKxmEE, symObjAddr: 0x29018, symBinAddr: 0x10002BBB0, symSize: 0x14 }
  - { offset: 0x46C4A, size: 0x8, addend: 0x0, symName: __ZNSt3__112__hash_tableINS_17__hash_value_typeIxmEENS_22__unordered_map_hasherIxS2_N6ripserI22sparse_distance_matrixE10entry_hashENS6_11equal_indexELb1EEENS_21__unordered_map_equalIxS2_S8_S7_Lb1EEENS_9allocatorIS2_EEE21__construct_node_hashINS_4pairIKxmEEJEEENS_10unique_ptrINS_11__hash_nodeIS2_PvEENS_22__hash_node_destructorINSC_ISM_EEEEEEmOT_DpOT0_, symObjAddr: 0x2902C, symBinAddr: 0x10002BBC4, symSize: 0x13C }
  - { offset: 0x46CBD, size: 0x8, addend: 0x0, symName: __ZNKSt3__110unique_ptrINS_11__hash_nodeINS_17__hash_value_typeIxmEEPvEENS_22__hash_node_destructorINS_9allocatorIS5_EEEEEptB8ne180100Ev, symObjAddr: 0x29168, symBinAddr: 0x10002BD00, symSize: 0x28 }
  - { offset: 0x46CE3, size: 0x8, addend: 0x0, symName: __ZNKSt3__110unique_ptrINS_11__hash_nodeINS_17__hash_value_typeIxmEEPvEENS_22__hash_node_destructorINS_9allocatorIS5_EEEEE3getB8ne180100Ev, symObjAddr: 0x29190, symBinAddr: 0x10002BD28, symSize: 0x28 }
  - { offset: 0x46D09, size: 0x8, addend: 0x0, symName: __ZNSt3__110unique_ptrINS_11__hash_nodeINS_17__hash_value_typeIxmEEPvEENS_22__hash_node_destructorINS_9allocatorIS5_EEEEE7releaseB8ne180100Ev, symObjAddr: 0x291B8, symBinAddr: 0x10002BD50, symSize: 0x44 }
  - { offset: 0x46D3E, size: 0x8, addend: 0x0, symName: __ZNSt3__110unique_ptrINS_11__hash_nodeINS_17__hash_value_typeIxmEEPvEENS_22__hash_node_destructorINS_9allocatorIS5_EEEEED1B8ne180100Ev, symObjAddr: 0x291FC, symBinAddr: 0x10002BD94, symSize: 0x2C }
  - { offset: 0x46D6E, size: 0x8, addend: 0x0, symName: __ZNSt3__14pairINS_15__hash_iteratorIPNS_11__hash_nodeINS_17__hash_value_typeIxmEEPvEEEEbEC1B8ne180100IS8_RbLi0EEEOT_OT0_, symObjAddr: 0x29228, symBinAddr: 0x10002BDC0, symSize: 0x3C }
  - { offset: 0x46DCC, size: 0x8, addend: 0x0, symName: __ZNSt3__112__hash_tableINS_17__hash_value_typeIxmEENS_22__unordered_map_hasherIxS2_N6ripserI22sparse_distance_matrixE10entry_hashENS6_11equal_indexELb1EEENS_21__unordered_map_equalIxS2_S8_S7_Lb1EEENS_9allocatorIS2_EEE12__node_allocB8ne180100Ev, symObjAddr: 0x29264, symBinAddr: 0x10002BDFC, symSize: 0x28 }
  - { offset: 0x46DF2, size: 0x8, addend: 0x0, symName: __ZNSt3__116allocator_traitsINS_9allocatorINS_11__hash_nodeINS_17__hash_value_typeIxmEEPvEEEEE8allocateB8ne180100ERS7_m, symObjAddr: 0x2928C, symBinAddr: 0x10002BE24, symSize: 0x2C }
  - { offset: 0x46E25, size: 0x8, addend: 0x0, symName: __ZNSt3__122__hash_node_destructorINS_9allocatorINS_11__hash_nodeINS_17__hash_value_typeIxmEEPvEEEEEC1B8ne180100ERS7_b, symObjAddr: 0x292B8, symBinAddr: 0x10002BE50, symSize: 0x48 }
  - { offset: 0x46E73, size: 0x8, addend: 0x0, symName: __ZNSt3__110unique_ptrINS_11__hash_nodeINS_17__hash_value_typeIxmEEPvEENS_22__hash_node_destructorINS_9allocatorIS5_EEEEEC1B8ne180100ILb1EvEEPS5_NS_16__dependent_typeINS_27__unique_ptr_deleter_sfinaeIS9_EEXT_EE20__good_rval_ref_typeE, symObjAddr: 0x29300, symBinAddr: 0x10002BE98, symSize: 0x3C }
  - { offset: 0x46EC4, size: 0x8, addend: 0x0, symName: __ZNKSt3__110unique_ptrINS_11__hash_nodeINS_17__hash_value_typeIxmEEPvEENS_22__hash_node_destructorINS_9allocatorIS5_EEEEEdeB8ne180100Ev, symObjAddr: 0x2937C, symBinAddr: 0x10002BF14, symSize: 0x28 }
  - { offset: 0x46EEA, size: 0x8, addend: 0x0, symName: __ZNSt3__116allocator_traitsINS_9allocatorINS_11__hash_nodeINS_17__hash_value_typeIxmEEPvEEEEE9constructB8ne180100INS_4pairIKxmEEJSC_EvEEvRS7_PT_DpOT0_, symObjAddr: 0x293A4, symBinAddr: 0x10002BF3C, symSize: 0x34 }
  - { offset: 0x46F41, size: 0x8, addend: 0x0, symName: __ZNSt3__122__hash_key_value_typesINS_17__hash_value_typeIxmEEE9__get_ptrB8ne180100ERS2_, symObjAddr: 0x293D8, symBinAddr: 0x10002BF70, symSize: 0x24 }
  - { offset: 0x46F64, size: 0x8, addend: 0x0, symName: __ZNSt3__110unique_ptrINS_11__hash_nodeINS_17__hash_value_typeIxmEEPvEENS_22__hash_node_destructorINS_9allocatorIS5_EEEEE11get_deleterB8ne180100Ev, symObjAddr: 0x293FC, symBinAddr: 0x10002BF94, symSize: 0x24 }
  - { offset: 0x46F8A, size: 0x8, addend: 0x0, symName: __ZNSt3__117__compressed_pairINS_16__hash_node_baseIPNS_11__hash_nodeINS_17__hash_value_typeIxmEEPvEEEENS_9allocatorIS6_EEE6secondB8ne180100Ev, symObjAddr: 0x29420, symBinAddr: 0x10002BFB8, symSize: 0x24 }
  - { offset: 0x46FB0, size: 0x8, addend: 0x0, symName: __ZNSt3__122__compressed_pair_elemINS_9allocatorINS_11__hash_nodeINS_17__hash_value_typeIxmEEPvEEEELi1ELb1EE5__getB8ne180100Ev, symObjAddr: 0x29444, symBinAddr: 0x10002BFDC, symSize: 0x14 }
  - { offset: 0x46FD6, size: 0x8, addend: 0x0, symName: __ZNSt3__19allocatorINS_11__hash_nodeINS_17__hash_value_typeIxmEEPvEEE8allocateB8ne180100Em, symObjAddr: 0x29458, symBinAddr: 0x10002BFF0, symSize: 0x58 }
  - { offset: 0x47014, size: 0x8, addend: 0x0, symName: __ZNSt3__116allocator_traitsINS_9allocatorINS_11__hash_nodeINS_17__hash_value_typeIxmEEPvEEEEE8max_sizeB8ne180100IS7_vEEmRKS7_, symObjAddr: 0x294B0, symBinAddr: 0x10002C048, symSize: 0x24 }
  - { offset: 0x47042, size: 0x8, addend: 0x0, symName: __ZNKSt3__19allocatorINS_11__hash_nodeINS_17__hash_value_typeIxmEEPvEEE8max_sizeB8ne180100Ev, symObjAddr: 0x294D4, symBinAddr: 0x10002C06C, symSize: 0x14 }
  - { offset: 0x47068, size: 0x8, addend: 0x0, symName: __ZNSt3__122__hash_node_destructorINS_9allocatorINS_11__hash_nodeINS_17__hash_value_typeIxmEEPvEEEEEC2B8ne180100ERS7_b, symObjAddr: 0x294E8, symBinAddr: 0x10002C080, symSize: 0x38 }
  - { offset: 0x470B0, size: 0x8, addend: 0x0, symName: __ZNSt3__110unique_ptrINS_11__hash_nodeINS_17__hash_value_typeIxmEEPvEENS_22__hash_node_destructorINS_9allocatorIS5_EEEEEC2B8ne180100ILb1EvEEPS5_NS_16__dependent_typeINS_27__unique_ptr_deleter_sfinaeIS9_EEXT_EE20__good_rval_ref_typeE, symObjAddr: 0x29520, symBinAddr: 0x10002C0B8, symSize: 0x48 }
  - { offset: 0x47101, size: 0x8, addend: 0x0, symName: __ZNSt3__117__compressed_pairIPNS_11__hash_nodeINS_17__hash_value_typeIxmEEPvEENS_22__hash_node_destructorINS_9allocatorIS5_EEEEEC1B8ne180100IRS6_SA_EEOT_OT0_, symObjAddr: 0x29568, symBinAddr: 0x10002C100, symSize: 0x3C }
  - { offset: 0x47159, size: 0x8, addend: 0x0, symName: __ZNSt3__117__compressed_pairIPNS_11__hash_nodeINS_17__hash_value_typeIxmEEPvEENS_22__hash_node_destructorINS_9allocatorIS5_EEEEEC2B8ne180100IRS6_SA_EEOT_OT0_, symObjAddr: 0x295A4, symBinAddr: 0x10002C13C, symSize: 0x48 }
  - { offset: 0x471B1, size: 0x8, addend: 0x0, symName: __ZNSt3__122__compressed_pair_elemIPNS_11__hash_nodeINS_17__hash_value_typeIxmEEPvEELi0ELb0EEC2B8ne180100IRS6_vEEOT_, symObjAddr: 0x295EC, symBinAddr: 0x10002C184, symSize: 0x24 }
  - { offset: 0x471F3, size: 0x8, addend: 0x0, symName: __ZNSt3__122__compressed_pair_elemINS_22__hash_node_destructorINS_9allocatorINS_11__hash_nodeINS_17__hash_value_typeIxmEEPvEEEEEELi1ELb0EEC2B8ne180100IS9_vEEOT_, symObjAddr: 0x29610, symBinAddr: 0x10002C1A8, symSize: 0x24 }
  - { offset: 0x47235, size: 0x8, addend: 0x0, symName: __ZNSt3__111__hash_nodeINS_17__hash_value_typeIxmEEPvEC1B8ne180100EPNS_16__hash_node_baseIPS4_EEm, symObjAddr: 0x29634, symBinAddr: 0x10002C1CC, symSize: 0x3C }
  - { offset: 0x4727B, size: 0x8, addend: 0x0, symName: __ZNSt3__111__hash_nodeINS_17__hash_value_typeIxmEEPvEC2B8ne180100EPNS_16__hash_node_baseIPS4_EEm, symObjAddr: 0x29670, symBinAddr: 0x10002C208, symSize: 0x40 }
  - { offset: 0x472C1, size: 0x8, addend: 0x0, symName: __ZNSt3__116__hash_node_baseIPNS_11__hash_nodeINS_17__hash_value_typeIxmEEPvEEEC2B8ne180100EPS7_, symObjAddr: 0x296B0, symBinAddr: 0x10002C248, symSize: 0x20 }
  - { offset: 0x472F9, size: 0x8, addend: 0x0, symName: __ZNKSt3__117__compressed_pairIPNS_11__hash_nodeINS_17__hash_value_typeIxmEEPvEENS_22__hash_node_destructorINS_9allocatorIS5_EEEEE5firstB8ne180100Ev, symObjAddr: 0x296D0, symBinAddr: 0x10002C268, symSize: 0x24 }
  - { offset: 0x4731F, size: 0x8, addend: 0x0, symName: __ZNKSt3__122__compressed_pair_elemIPNS_11__hash_nodeINS_17__hash_value_typeIxmEEPvEELi0ELb0EE5__getB8ne180100Ev, symObjAddr: 0x296F4, symBinAddr: 0x10002C28C, symSize: 0x14 }
  - { offset: 0x47345, size: 0x8, addend: 0x0, symName: __ZNSt3__19allocatorINS_11__hash_nodeINS_17__hash_value_typeIxmEEPvEEE9constructB8ne180100INS_4pairIKxmEEJSA_EEEvPT_DpOT0_, symObjAddr: 0x29708, symBinAddr: 0x10002C2A0, symSize: 0x28 }
  - { offset: 0x4739B, size: 0x8, addend: 0x0, symName: __ZNSt3__117__compressed_pairIPNS_11__hash_nodeINS_17__hash_value_typeIxmEEPvEENS_22__hash_node_destructorINS_9allocatorIS5_EEEEE6secondB8ne180100Ev, symObjAddr: 0x29730, symBinAddr: 0x10002C2C8, symSize: 0x28 }
  - { offset: 0x473C1, size: 0x8, addend: 0x0, symName: __ZNSt3__122__compressed_pair_elemINS_22__hash_node_destructorINS_9allocatorINS_11__hash_nodeINS_17__hash_value_typeIxmEEPvEEEEEELi1ELb0EE5__getB8ne180100Ev, symObjAddr: 0x29758, symBinAddr: 0x10002C2F0, symSize: 0x14 }
  - { offset: 0x473E7, size: 0x8, addend: 0x0, symName: __ZNSt3__117__compressed_pairIPNS_11__hash_nodeINS_17__hash_value_typeIxmEEPvEENS_22__hash_node_destructorINS_9allocatorIS5_EEEEE5firstB8ne180100Ev, symObjAddr: 0x2976C, symBinAddr: 0x10002C304, symSize: 0x24 }
  - { offset: 0x4740D, size: 0x8, addend: 0x0, symName: __ZNSt3__122__compressed_pair_elemIPNS_11__hash_nodeINS_17__hash_value_typeIxmEEPvEELi0ELb0EE5__getB8ne180100Ev, symObjAddr: 0x29790, symBinAddr: 0x10002C328, symSize: 0x14 }
  - { offset: 0x47433, size: 0x8, addend: 0x0, symName: __ZNSt3__110unique_ptrINS_11__hash_nodeINS_17__hash_value_typeIxmEEPvEENS_22__hash_node_destructorINS_9allocatorIS5_EEEEED2B8ne180100Ev, symObjAddr: 0x297A4, symBinAddr: 0x10002C33C, symSize: 0x30 }
  - { offset: 0x4745D, size: 0x8, addend: 0x0, symName: __ZNSt3__110unique_ptrINS_11__hash_nodeINS_17__hash_value_typeIxmEEPvEENS_22__hash_node_destructorINS_9allocatorIS5_EEEEE5resetB8ne180100EPS5_, symObjAddr: 0x297D4, symBinAddr: 0x10002C36C, symSize: 0x78 }
  - { offset: 0x474A1, size: 0x8, addend: 0x0, symName: __ZNSt3__122__hash_node_destructorINS_9allocatorINS_11__hash_nodeINS_17__hash_value_typeIxmEEPvEEEEEclB8ne180100EPS6_, symObjAddr: 0x2984C, symBinAddr: 0x10002C3E4, symSize: 0x9C }
  - { offset: 0x474D6, size: 0x8, addend: 0x0, symName: __ZNSt3__116allocator_traitsINS_9allocatorINS_11__hash_nodeINS_17__hash_value_typeIxmEEPvEEEEE7destroyB8ne180100INS_4pairIKxmEEvvEEvRS7_PT_, symObjAddr: 0x298E8, symBinAddr: 0x10002C480, symSize: 0x28 }
  - { offset: 0x47510, size: 0x8, addend: 0x0, symName: __ZNSt3__116allocator_traitsINS_9allocatorINS_11__hash_nodeINS_17__hash_value_typeIxmEEPvEEEEE10deallocateB8ne180100ERS7_PS6_m, symObjAddr: 0x29934, symBinAddr: 0x10002C4CC, symSize: 0x34 }
  - { offset: 0x47552, size: 0x8, addend: 0x0, symName: __ZNSt3__111__hash_nodeINS_17__hash_value_typeIxmEEPvED1B8ne180100Ev, symObjAddr: 0x29978, symBinAddr: 0x10002C510, symSize: 0x2C }
  - { offset: 0x4757C, size: 0x8, addend: 0x0, symName: __ZNSt3__111__hash_nodeINS_17__hash_value_typeIxmEEPvED2B8ne180100Ev, symObjAddr: 0x299A4, symBinAddr: 0x10002C53C, symSize: 0x14 }
  - { offset: 0x475A6, size: 0x8, addend: 0x0, symName: __ZNSt3__19allocatorINS_11__hash_nodeINS_17__hash_value_typeIxmEEPvEEE10deallocateB8ne180100EPS5_m, symObjAddr: 0x299B8, symBinAddr: 0x10002C550, symSize: 0x40 }
  - { offset: 0x475E8, size: 0x8, addend: 0x0, symName: __ZNSt3__14pairINS_15__hash_iteratorIPNS_11__hash_nodeINS_17__hash_value_typeIxmEEPvEEEEbEC2B8ne180100IS8_RbLi0EEEOT_OT0_, symObjAddr: 0x299F8, symBinAddr: 0x10002C590, symSize: 0x38 }
  - { offset: 0x47646, size: 0x8, addend: 0x0, symName: __ZNSt3__14pairINS_19__hash_map_iteratorINS_15__hash_iteratorIPNS_11__hash_nodeINS_17__hash_value_typeIxmEEPvEEEEEEbEC2B8ne180100IS9_bLi0EEEONS0_IT_T0_EE, symObjAddr: 0x29A30, symBinAddr: 0x10002C5C8, symSize: 0x50 }
  - { offset: 0x47696, size: 0x8, addend: 0x0, symName: __ZNSt3__14pairIKxmEC2B8ne180100IRxRmLi0EEEOT_OT0_, symObjAddr: 0x29A80, symBinAddr: 0x10002C618, symSize: 0x34 }
  - { offset: 0x476F4, size: 0x8, addend: 0x0, symName: __ZNKSt3__114priority_queueI16diameter_entry_tNS_6vectorIS1_NS_9allocatorIS1_EEEE38greater_diameter_or_smaller_index_compIS1_EE5emptyB8ne180100Ev, symObjAddr: 0x29AB4, symBinAddr: 0x10002C64C, symSize: 0x28 }
  - { offset: 0x4771A, size: 0x8, addend: 0x0, symName: __ZNKSt3__114priority_queueI16diameter_entry_tNS_6vectorIS1_NS_9allocatorIS1_EEEE38greater_diameter_or_smaller_index_compIS1_EE3topB8ne180100Ev, symObjAddr: 0x29ADC, symBinAddr: 0x10002C674, symSize: 0x24 }
  - { offset: 0x47740, size: 0x8, addend: 0x0, symName: __ZNSt3__114priority_queueI16diameter_entry_tNS_6vectorIS1_NS_9allocatorIS1_EEEE38greater_diameter_or_smaller_index_compIS1_EE3popEv, symObjAddr: 0x29B00, symBinAddr: 0x10002C698, symSize: 0x50 }
  - { offset: 0x47768, size: 0x8, addend: 0x0, symName: __ZNKSt3__16vectorI16diameter_entry_tNS_9allocatorIS1_EEE5emptyB8ne180100Ev, symObjAddr: 0x29B50, symBinAddr: 0x10002C6E8, symSize: 0x28 }
  - { offset: 0x4778E, size: 0x8, addend: 0x0, symName: __ZNKSt3__16vectorI16diameter_entry_tNS_9allocatorIS1_EEE5frontB8ne180100Ev, symObjAddr: 0x29B78, symBinAddr: 0x10002C710, symSize: 0x18 }
  - { offset: 0x477B4, size: 0x8, addend: 0x0, symName: __ZNSt3__16vectorI16diameter_entry_tNS_9allocatorIS1_EEE8pop_backEv, symObjAddr: 0x29BE8, symBinAddr: 0x10002C780, symSize: 0x2C }
  - { offset: 0x477DC, size: 0x8, addend: 0x0, symName: __ZNSt3__16vectorI16diameter_entry_tNS_9allocatorIS1_EEE17__destruct_at_endB8ne180100EPS1_, symObjAddr: 0x29E84, symBinAddr: 0x10002CA1C, symSize: 0x4C }
  - { offset: 0x47820, size: 0x8, addend: 0x0, symName: __ZNK24compressed_sparse_matrixI16diameter_entry_tE4sizeEv, symObjAddr: 0x29ED0, symBinAddr: 0x10002CA68, symSize: 0x24 }
  - { offset: 0x47846, size: 0x8, addend: 0x0, symName: __ZNSt3__16vectorImNS_9allocatorImEEE4backB8ne180100Ev, symObjAddr: 0x29EF4, symBinAddr: 0x10002CA8C, symSize: 0x1C }
  - { offset: 0x4786C, size: 0x8, addend: 0x0, symName: __ZNSt3__114priority_queueI16diameter_entry_tNS_6vectorIS1_NS_9allocatorIS1_EEEE38greater_diameter_or_smaller_index_compIS1_EED2Ev, symObjAddr: 0x29F10, symBinAddr: 0x10002CAA8, symSize: 0x2C }
  - { offset: 0x47899, size: 0x8, addend: 0x0, symName: __ZN24compressed_sparse_matrixI16diameter_entry_tED2Ev, symObjAddr: 0x29F3C, symBinAddr: 0x10002CAD4, symSize: 0x38 }
  - { offset: 0x478C6, size: 0x8, addend: 0x0, symName: __ZNSt3__16vectorImNS_9allocatorImEEED1B8ne180100Ev, symObjAddr: 0x29F74, symBinAddr: 0x10002CB0C, symSize: 0x2C }
  - { offset: 0x478F0, size: 0x8, addend: 0x0, symName: __ZNSt3__16vectorImNS_9allocatorImEEED2B8ne180100Ev, symObjAddr: 0x29FA0, symBinAddr: 0x10002CB38, symSize: 0x44 }
  - { offset: 0x4791A, size: 0x8, addend: 0x0, symName: __ZNSt3__16vectorImNS_9allocatorImEEE16__destroy_vectorC1B8ne180100ERS3_, symObjAddr: 0x29FE4, symBinAddr: 0x10002CB7C, symSize: 0x34 }
  - { offset: 0x47953, size: 0x8, addend: 0x0, symName: __ZNSt3__16vectorImNS_9allocatorImEEE16__destroy_vectorclB8ne180100Ev, symObjAddr: 0x2A018, symBinAddr: 0x10002CBB0, symSize: 0x90 }
  - { offset: 0x47979, size: 0x8, addend: 0x0, symName: __ZNSt3__16vectorImNS_9allocatorImEEE16__destroy_vectorC2B8ne180100ERS3_, symObjAddr: 0x2A0A8, symBinAddr: 0x10002CC40, symSize: 0x20 }
  - { offset: 0x479B2, size: 0x8, addend: 0x0, symName: __ZNSt3__16vectorImNS_9allocatorImEEE7__clearB8ne180100Ev, symObjAddr: 0x2A0C8, symBinAddr: 0x10002CC60, symSize: 0x28 }
  - { offset: 0x479D8, size: 0x8, addend: 0x0, symName: __ZNSt3__16vectorImNS_9allocatorImEEE22__base_destruct_at_endB8ne180100EPm, symObjAddr: 0x2A0F0, symBinAddr: 0x10002CC88, symSize: 0x8C }
  - { offset: 0x47A1C, size: 0x8, addend: 0x0, symName: __ZNSt3__14pairIfxEC1B8ne180100IRKfxLi0EEEOT_OT0_, symObjAddr: 0x2A17C, symBinAddr: 0x10002CD14, symSize: 0x3C }
  - { offset: 0x47A7A, size: 0x8, addend: 0x0, symName: __ZN6ripserI22sparse_distance_matrixE24is_in_zero_apparent_pairE16diameter_entry_tx, symObjAddr: 0x2A1B8, symBinAddr: 0x10002CD50, symSize: 0xBC }
  - { offset: 0x47ABE, size: 0x8, addend: 0x0, symName: __ZNSt3__16vectorINS_4pairIfxEENS_9allocatorIS2_EEE4swapERS5_, symObjAddr: 0x2A274, symBinAddr: 0x10002CE0C, symSize: 0x84 }
  - { offset: 0x47AF5, size: 0x8, addend: 0x0, symName: __ZNSt3__14pairIfxEC2B8ne180100IRKfxLi0EEEOT_OT0_, symObjAddr: 0x2A340, symBinAddr: 0x10002CED8, symSize: 0x34 }
  - { offset: 0x47B53, size: 0x8, addend: 0x0, symName: __ZNSt3__18_IterOpsINS_17_ClassicAlgPolicyEE9iter_swapB8ne180100IRPNS_4pairIfxEES7_EEvOT_OT0_, symObjAddr: 0x2A940, symBinAddr: 0x10002D4D8, symSize: 0x34 }
  - { offset: 0x47B9C, size: 0x8, addend: 0x0, symName: __ZNSt3__18_IterOpsINS_17_ClassicAlgPolicyEE9iter_swapB8ne180100IRPNS_4pairIfxEES6_EEvOT_OT0_, symObjAddr: 0x2AEAC, symBinAddr: 0x10002DA44, symSize: 0x34 }
  - { offset: 0x47BDF, size: 0x8, addend: 0x0, symName: __ZNSt3__18_IterOpsINS_17_ClassicAlgPolicyEE11__iter_moveB8ne180100IRPNS_4pairIfxEELi0EEEDTclsr3stdE4movedeclsr3stdE7declvalIRT_EEEEOS8_, symObjAddr: 0x2BB88, symBinAddr: 0x10002E720, symSize: 0x28 }
  - { offset: 0x47C11, size: 0x8, addend: 0x0, symName: __ZNSt3__18_IterOpsINS_17_ClassicAlgPolicyEE25__validate_iter_referenceB8ne180100IRPNS_4pairIfxEEEEvv, symObjAddr: 0x2BBB0, symBinAddr: 0x10002E748, symSize: 0x4 }
  - { offset: 0x47C2F, size: 0x8, addend: 0x0, symName: __ZNSt3__18_IterOpsINS_17_ClassicAlgPolicyEE4nextB8ne180100IPNS_4pairIfxEEEET_S7_S7_, symObjAddr: 0x2BBB4, symBinAddr: 0x10002E74C, symSize: 0x18 }
  - { offset: 0x47C65, size: 0x8, addend: 0x0, symName: __ZNSt3__18_IterOpsINS_17_ClassicAlgPolicyEE9iter_swapB8ne180100IPNS_4pairIfxEES6_EEvOT_OT0_, symObjAddr: 0x2CAE8, symBinAddr: 0x10002F680, symSize: 0x34 }
  - { offset: 0x47CC2, size: 0x8, addend: 0x0, symName: __ZNSt3__14pairIPNS0_IfxEEbEC1B8ne180100IRS2_RbLi0EEEOT_OT0_, symObjAddr: 0x2CB1C, symBinAddr: 0x10002F6B4, symSize: 0x3C }
  - { offset: 0x47D20, size: 0x8, addend: 0x0, symName: __ZNSt3__14pairIPNS0_IfxEEbEC2B8ne180100IRS2_RbLi0EEEOT_OT0_, symObjAddr: 0x2CB58, symBinAddr: 0x10002F6F0, symSize: 0x38 }
  - { offset: 0x47D7E, size: 0x8, addend: 0x0, symName: __ZNSt3__118__unwrap_iter_implINS_11__wrap_iterIPNS_4pairIfxEEEELb1EE8__unwrapB8ne180100ES5_, symObjAddr: 0x2CB90, symBinAddr: 0x10002F728, symSize: 0x28 }
  - { offset: 0x47DAB, size: 0x8, addend: 0x0, symName: __ZNSt3__119__to_address_helperINS_11__wrap_iterIPNS_4pairIfxEEEEvE6__callB8ne180100ERKS5_, symObjAddr: 0x2CBDC, symBinAddr: 0x10002F774, symSize: 0x30 }
  - { offset: 0x47DCE, size: 0x8, addend: 0x0, symName: __ZNSt3__114pointer_traitsINS_11__wrap_iterIPNS_4pairIfxEEEEE10to_addressB8ne180100ES5_, symObjAddr: 0x2CC0C, symBinAddr: 0x10002F7A4, symSize: 0x2C }
  - { offset: 0x47DF1, size: 0x8, addend: 0x0, symName: __ZNSt3__113unordered_mapIxmN6ripserI22sparse_distance_matrixE10entry_hashENS3_11equal_indexENS_9allocatorINS_4pairIKxmEEEEED2B8ne180100Ev, symObjAddr: 0x2CC38, symBinAddr: 0x10002F7D0, symSize: 0x2C }
  - { offset: 0x47E1B, size: 0x8, addend: 0x0, symName: __ZNSt3__112__hash_tableINS_17__hash_value_typeIxmEENS_22__unordered_map_hasherIxS2_N6ripserI22sparse_distance_matrixE10entry_hashENS6_11equal_indexELb1EEENS_21__unordered_map_equalIxS2_S8_S7_Lb1EEENS_9allocatorIS2_EEED1Ev, symObjAddr: 0x2CC64, symBinAddr: 0x10002F7FC, symSize: 0x2C }
  - { offset: 0x47E47, size: 0x8, addend: 0x0, symName: __ZNSt3__112__hash_tableINS_17__hash_value_typeIxmEENS_22__unordered_map_hasherIxS2_N6ripserI22sparse_distance_matrixE10entry_hashENS6_11equal_indexELb1EEENS_21__unordered_map_equalIxS2_S8_S7_Lb1EEENS_9allocatorIS2_EEED2Ev, symObjAddr: 0x2CC90, symBinAddr: 0x10002F828, symSize: 0x48 }
  - { offset: 0x47E73, size: 0x8, addend: 0x0, symName: __ZNSt3__112__hash_tableINS_17__hash_value_typeIxmEENS_22__unordered_map_hasherIxS2_N6ripserI22sparse_distance_matrixE10entry_hashENS6_11equal_indexELb1EEENS_21__unordered_map_equalIxS2_S8_S7_Lb1EEENS_9allocatorIS2_EEE17__deallocate_nodeEPNS_16__hash_node_baseIPNS_11__hash_nodeIS2_PvEEEE, symObjAddr: 0x2CCD8, symBinAddr: 0x10002F870, symSize: 0xA8 }
  - { offset: 0x47EDD, size: 0x8, addend: 0x0, symName: __ZNSt3__110unique_ptrIA_PNS_16__hash_node_baseIPNS_11__hash_nodeINS_17__hash_value_typeIxmEEPvEEEENS_25__bucket_list_deallocatorINS_9allocatorIS9_EEEEED1B8ne180100Ev, symObjAddr: 0x2CD80, symBinAddr: 0x10002F918, symSize: 0x2C }
  - { offset: 0x47F07, size: 0x8, addend: 0x0, symName: __ZNSt3__110unique_ptrIA_PNS_16__hash_node_baseIPNS_11__hash_nodeINS_17__hash_value_typeIxmEEPvEEEENS_25__bucket_list_deallocatorINS_9allocatorIS9_EEEEED2B8ne180100Ev, symObjAddr: 0x2CDAC, symBinAddr: 0x10002F944, symSize: 0x30 }
  - { offset: 0x47F31, size: 0x8, addend: 0x0, symName: __ZNSt3__110unique_ptrIA_PNS_16__hash_node_baseIPNS_11__hash_nodeINS_17__hash_value_typeIxmEEPvEEEENS_25__bucket_list_deallocatorINS_9allocatorIS9_EEEEE5resetB8ne180100EDn, symObjAddr: 0x2CDDC, symBinAddr: 0x10002F974, symSize: 0x6C }
  - { offset: 0x47F71, size: 0x8, addend: 0x0, symName: __ZN22sparse_distance_matrixC2I25euclidean_distance_matrixEERKT_f, symObjAddr: 0x2CE48, symBinAddr: 0x10002F9E0, symSize: 0x18C }
  - { offset: 0x48001, size: 0x8, addend: 0x0, symName: __ZNSt3__16vectorINS0_INS_4pairIxfEENS_9allocatorIS2_EEEENS3_IS5_EEEC1Em, symObjAddr: 0x2CFD4, symBinAddr: 0x10002FB6C, symSize: 0x34 }
  - { offset: 0x4803C, size: 0x8, addend: 0x0, symName: __ZNSt3__16vectorINS0_INS_4pairIxfEENS_9allocatorIS2_EEEENS3_IS5_EEEC2Em, symObjAddr: 0x2D008, symBinAddr: 0x10002FBA0, symSize: 0xD4 }
  - { offset: 0x4808C, size: 0x8, addend: 0x0, symName: __ZNSt3__16vectorINS0_INS_4pairIxfEENS_9allocatorIS2_EEEENS3_IS5_EEE11__vallocateB8ne180100Em, symObjAddr: 0x2D11C, symBinAddr: 0x10002FCB4, symSize: 0xB4 }
  - { offset: 0x480D0, size: 0x8, addend: 0x0, symName: __ZNSt3__128__exception_guard_exceptionsINS_6vectorINS1_INS_4pairIxfEENS_9allocatorIS3_EEEENS4_IS6_EEE16__destroy_vectorEE10__completeB8ne180100Ev, symObjAddr: 0x2D1D0, symBinAddr: 0x10002FD68, symSize: 0x1C }
  - { offset: 0x480F6, size: 0x8, addend: 0x0, symName: __ZNSt3__128__exception_guard_exceptionsINS_6vectorINS1_INS_4pairIxfEENS_9allocatorIS3_EEEENS4_IS6_EEE16__destroy_vectorEED1B8ne180100Ev, symObjAddr: 0x2D1EC, symBinAddr: 0x10002FD84, symSize: 0x2C }
  - { offset: 0x48120, size: 0x8, addend: 0x0, symName: __ZNSt3__128__exception_guard_exceptionsINS_6vectorINS1_INS_4pairIxfEENS_9allocatorIS3_EEEENS4_IS6_EEE16__destroy_vectorEEC1B8ne180100ES9_, symObjAddr: 0x2D218, symBinAddr: 0x10002FDB0, symSize: 0x34 }
  - { offset: 0x48158, size: 0x8, addend: 0x0, symName: __ZNSt3__128__exception_guard_exceptionsINS_6vectorINS1_INS_4pairIxfEENS_9allocatorIS3_EEEENS4_IS6_EEE16__destroy_vectorEEC2B8ne180100ES9_, symObjAddr: 0x2D24C, symBinAddr: 0x10002FDE4, symSize: 0x24 }
  - { offset: 0x48190, size: 0x8, addend: 0x0, symName: __ZNSt3__128__exception_guard_exceptionsINS_6vectorINS1_INS_4pairIxfEENS_9allocatorIS3_EEEENS4_IS6_EEE16__destroy_vectorEED2B8ne180100Ev, symObjAddr: 0x2D270, symBinAddr: 0x10002FE08, symSize: 0x48 }
  - { offset: 0x481BA, size: 0x8, addend: 0x0, symName: __ZNSt3__16vectorIfNS_9allocatorIfEEE11__make_iterB8ne180100EPf, symObjAddr: 0x2D30C, symBinAddr: 0x10002FEA4, symSize: 0x30 }
  - { offset: 0x481EF, size: 0x8, addend: 0x0, symName: __ZNSt3__111__wrap_iterIPfEC1B8ne180100ES1_, symObjAddr: 0x2D33C, symBinAddr: 0x10002FED4, symSize: 0x34 }
  - { offset: 0x48227, size: 0x8, addend: 0x0, symName: __ZNSt3__111__wrap_iterIPfEC2B8ne180100ES1_, symObjAddr: 0x2D370, symBinAddr: 0x10002FF08, symSize: 0x20 }
  - { offset: 0x4825F, size: 0x8, addend: 0x0, symName: __ZN6ripserI26compressed_distance_matrixIL24compressed_matrix_layout0EEEC2EOS2_xfft, symObjAddr: 0x2D390, symBinAddr: 0x10002FF28, symSize: 0x134 }
  - { offset: 0x482D4, size: 0x8, addend: 0x0, symName: __ZN26compressed_distance_matrixIL24compressed_matrix_layout0EEC1EOS1_, symObjAddr: 0x2D4C4, symBinAddr: 0x10003005C, symSize: 0x34 }
  - { offset: 0x48309, size: 0x8, addend: 0x0, symName: __ZN26compressed_distance_matrixIL24compressed_matrix_layout0EEC2EOS1_, symObjAddr: 0x2D4F8, symBinAddr: 0x100030090, symSize: 0x48 }
  - { offset: 0x4833E, size: 0x8, addend: 0x0, symName: __ZNSt3__16vectorIPfNS_9allocatorIS1_EEEC1B8ne180100EOS4_, symObjAddr: 0x2D540, symBinAddr: 0x1000300D8, symSize: 0x34 }
  - { offset: 0x48379, size: 0x8, addend: 0x0, symName: __ZNSt3__16vectorIPfNS_9allocatorIS1_EEEC2B8ne180100EOS4_, symObjAddr: 0x2D574, symBinAddr: 0x10003010C, symSize: 0xC4 }
  - { offset: 0x483BA, size: 0x8, addend: 0x0, symName: __ZNSt3__117__compressed_pairIPPfNS_9allocatorIS1_EEEC1B8ne180100IDnS4_EEOT_OT0_, symObjAddr: 0x2D638, symBinAddr: 0x1000301D0, symSize: 0x3C }
  - { offset: 0x48412, size: 0x8, addend: 0x0, symName: __ZNSt3__117__compressed_pairIPPfNS_9allocatorIS1_EEEC2B8ne180100IDnS4_EEOT_OT0_, symObjAddr: 0x2D674, symBinAddr: 0x10003020C, symSize: 0x44 }
  - { offset: 0x4846A, size: 0x8, addend: 0x0, symName: __ZNSt3__122__compressed_pair_elemINS_9allocatorIPfEELi1ELb1EEC2B8ne180100IS3_vEEOT_, symObjAddr: 0x2D6B8, symBinAddr: 0x100030250, symSize: 0x18 }
  - { offset: 0x484AC, size: 0x8, addend: 0x0, symName: __ZN6ripserI26compressed_distance_matrixIL24compressed_matrix_layout0EEE19compute_dim_0_pairsERNSt3__16vectorINS4_4pairIfxEENS4_9allocatorIS7_EEEESB_, symObjAddr: 0x2D6D0, symBinAddr: 0x100030268, symSize: 0x588 }
  - { offset: 0x485F0, size: 0x8, addend: 0x0, symName: __ZNSt3__113unordered_mapIxmN6ripserI26compressed_distance_matrixIL24compressed_matrix_layout0EEE10entry_hashENS5_11equal_indexENS_9allocatorINS_4pairIKxmEEEEEC1B8ne180100Ev, symObjAddr: 0x2DC58, symBinAddr: 0x1000307F0, symSize: 0x2C }
  - { offset: 0x4861A, size: 0x8, addend: 0x0, symName: __ZNSt3__113unordered_mapIxmN6ripserI26compressed_distance_matrixIL24compressed_matrix_layout0EEE10entry_hashENS5_11equal_indexENS_9allocatorINS_4pairIKxmEEEEE7reserveB8ne180100Em, symObjAddr: 0x2DC84, symBinAddr: 0x10003081C, symSize: 0x2C }
  - { offset: 0x4864F, size: 0x8, addend: 0x0, symName: __ZN6ripserI26compressed_distance_matrixIL24compressed_matrix_layout0EEE13compute_pairsERKNSt3__16vectorINS4_4pairIfxEENS4_9allocatorIS7_EEEERNS4_13unordered_mapIxmNS3_10entry_hashENS3_11equal_indexENS8_INS6_IKxmEEEEEEx, symObjAddr: 0x2DCB0, symBinAddr: 0x100030848, symSize: 0x650 }
  - { offset: 0x487C6, size: 0x8, addend: 0x0, symName: __ZN6ripserI26compressed_distance_matrixIL24compressed_matrix_layout0EEE26assemble_columns_to_reduceERNSt3__16vectorINS4_4pairIfxEENS4_9allocatorIS7_EEEESB_RNS4_13unordered_mapIxmNS3_10entry_hashENS3_11equal_indexENS8_INS6_IKxmEEEEEEx, symObjAddr: 0x2E300, symBinAddr: 0x100030E98, symSize: 0x3A4 }
  - { offset: 0x488A4, size: 0x8, addend: 0x0, symName: __ZNSt3__113unordered_mapIxmN6ripserI26compressed_distance_matrixIL24compressed_matrix_layout0EEE10entry_hashENS5_11equal_indexENS_9allocatorINS_4pairIKxmEEEEED1B8ne180100Ev, symObjAddr: 0x2E6A4, symBinAddr: 0x10003123C, symSize: 0x2C }
  - { offset: 0x488CE, size: 0x8, addend: 0x0, symName: __ZN6ripserI26compressed_distance_matrixIL24compressed_matrix_layout0EEE25get_zero_apparent_cofacetE16diameter_entry_tx, symObjAddr: 0x2E6D0, symBinAddr: 0x100031268, symSize: 0xF0 }
  - { offset: 0x48921, size: 0x8, addend: 0x0, symName: __ZN6ripserI26compressed_distance_matrixIL24compressed_matrix_layout0EEE29simplex_coboundary_enumeratorC1ERKS3_, symObjAddr: 0x2EAA0, symBinAddr: 0x100031638, symSize: 0x34 }
  - { offset: 0x4895A, size: 0x8, addend: 0x0, symName: __ZN6ripserI26compressed_distance_matrixIL24compressed_matrix_layout0EEE29simplex_coboundary_enumeratorD1Ev, symObjAddr: 0x2EAD4, symBinAddr: 0x10003166C, symSize: 0x2C }
  - { offset: 0x48987, size: 0x8, addend: 0x0, symName: __ZN6ripserI26compressed_distance_matrixIL24compressed_matrix_layout0EEE29simplex_coboundary_enumerator11set_simplexE16diameter_entry_tx, symObjAddr: 0x2EB00, symBinAddr: 0x100031698, symSize: 0xF4 }
  - { offset: 0x489CB, size: 0x8, addend: 0x0, symName: __ZN6ripserI26compressed_distance_matrixIL24compressed_matrix_layout0EEE29simplex_coboundary_enumerator8has_nextEb, symObjAddr: 0x2EBF4, symBinAddr: 0x10003178C, symSize: 0xA4 }
  - { offset: 0x48A00, size: 0x8, addend: 0x0, symName: __ZN6ripserI26compressed_distance_matrixIL24compressed_matrix_layout0EEE29simplex_coboundary_enumerator4nextEv, symObjAddr: 0x2EC98, symBinAddr: 0x100031830, symSize: 0x254 }
  - { offset: 0x48AA5, size: 0x8, addend: 0x0, symName: __ZN6ripserI26compressed_distance_matrixIL24compressed_matrix_layout0EEE29simplex_coboundary_enumeratorC2ERKS3_, symObjAddr: 0x2EEEC, symBinAddr: 0x100031A84, symSize: 0x68 }
  - { offset: 0x48ADE, size: 0x8, addend: 0x0, symName: __ZN6ripserI26compressed_distance_matrixIL24compressed_matrix_layout0EEE29simplex_coboundary_enumeratorD2Ev, symObjAddr: 0x2EF54, symBinAddr: 0x100031AEC, symSize: 0x30 }
  - { offset: 0x48B0B, size: 0x8, addend: 0x0, symName: __ZNSt3__16vectorIxNS_9allocatorIxEEE5beginB8ne180100Ev, symObjAddr: 0x2EF84, symBinAddr: 0x100031B1C, symSize: 0x30 }
  - { offset: 0x48B33, size: 0x8, addend: 0x0, symName: __ZNSt3__111__wrap_iterIPxEppB8ne180100Ev, symObjAddr: 0x2EFE8, symBinAddr: 0x100031B80, symSize: 0x20 }
  - { offset: 0x48B59, size: 0x8, addend: 0x0, symName: __ZNKSt3__111__wrap_iterIPxE4baseB8ne180100Ev, symObjAddr: 0x2F050, symBinAddr: 0x100031BE8, symSize: 0x18 }
  - { offset: 0x48B7F, size: 0x8, addend: 0x0, symName: __ZN6ripserI26compressed_distance_matrixIL24compressed_matrix_layout0EEE27simplex_boundary_enumeratorC1ExRKS3_, symObjAddr: 0x2F068, symBinAddr: 0x100031C00, symSize: 0x5C }
  - { offset: 0x48BC7, size: 0x8, addend: 0x0, symName: __ZN6ripserI26compressed_distance_matrixIL24compressed_matrix_layout0EEE27simplex_boundary_enumerator11set_simplexE16diameter_entry_tx, symObjAddr: 0x2F0C4, symBinAddr: 0x100031C5C, symSize: 0x7C }
  - { offset: 0x48C0B, size: 0x8, addend: 0x0, symName: __ZN6ripserI26compressed_distance_matrixIL24compressed_matrix_layout0EEE27simplex_boundary_enumerator8has_nextEv, symObjAddr: 0x2F140, symBinAddr: 0x100031CD8, symSize: 0x24 }
  - { offset: 0x48C31, size: 0x8, addend: 0x0, symName: __ZN6ripserI26compressed_distance_matrixIL24compressed_matrix_layout0EEE27simplex_boundary_enumerator4nextEv, symObjAddr: 0x2F164, symBinAddr: 0x100031CFC, symSize: 0x16C }
  - { offset: 0x48C84, size: 0x8, addend: 0x0, symName: __ZN6ripserI26compressed_distance_matrixIL24compressed_matrix_layout0EEE27simplex_boundary_enumeratorC1E16diameter_entry_txRKS3_, symObjAddr: 0x2F2D0, symBinAddr: 0x100031E68, symSize: 0x4C }
  - { offset: 0x48CDB, size: 0x8, addend: 0x0, symName: __ZN6ripserI26compressed_distance_matrixIL24compressed_matrix_layout0EEE27simplex_boundary_enumeratorC2E16diameter_entry_txRKS3_, symObjAddr: 0x2F31C, symBinAddr: 0x100031EB4, symSize: 0x90 }
  - { offset: 0x48D32, size: 0x8, addend: 0x0, symName: __ZNK6ripserI26compressed_distance_matrixIL24compressed_matrix_layout0EEE16compute_diameterExx, symObjAddr: 0x2F3AC, symBinAddr: 0x100031F44, symSize: 0x168 }
  - { offset: 0x48DBF, size: 0x8, addend: 0x0, symName: __ZNSt3__113unordered_mapIxmN6ripserI26compressed_distance_matrixIL24compressed_matrix_layout0EEE10entry_hashENS5_11equal_indexENS_9allocatorINS_4pairIKxmEEEEEC2B8ne180100Ev, symObjAddr: 0x2F514, symBinAddr: 0x1000320AC, symSize: 0x2C }
  - { offset: 0x48DE9, size: 0x8, addend: 0x0, symName: __ZNSt3__112__hash_tableINS_17__hash_value_typeIxmEENS_22__unordered_map_hasherIxS2_N6ripserI26compressed_distance_matrixIL24compressed_matrix_layout0EEE10entry_hashENS8_11equal_indexELb1EEENS_21__unordered_map_equalIxS2_SA_S9_Lb1EEENS_9allocatorIS2_EEEC1Ev, symObjAddr: 0x2F540, symBinAddr: 0x1000320D8, symSize: 0x2C }
  - { offset: 0x48E15, size: 0x8, addend: 0x0, symName: __ZNSt3__112__hash_tableINS_17__hash_value_typeIxmEENS_22__unordered_map_hasherIxS2_N6ripserI26compressed_distance_matrixIL24compressed_matrix_layout0EEE10entry_hashENS8_11equal_indexELb1EEENS_21__unordered_map_equalIxS2_SA_S9_Lb1EEENS_9allocatorIS2_EEEC2Ev, symObjAddr: 0x2F56C, symBinAddr: 0x100032104, symSize: 0x7C }
  - { offset: 0x48E41, size: 0x8, addend: 0x0, symName: __ZNSt3__117__compressed_pairImNS_22__unordered_map_hasherIxNS_17__hash_value_typeIxmEEN6ripserI26compressed_distance_matrixIL24compressed_matrix_layout0EEE10entry_hashENS8_11equal_indexELb1EEEEC1B8ne180100IiNS_18__default_init_tagEEEOT_OT0_, symObjAddr: 0x2F5E8, symBinAddr: 0x100032180, symSize: 0x3C }
  - { offset: 0x48E99, size: 0x8, addend: 0x0, symName: __ZNSt3__117__compressed_pairIfNS_21__unordered_map_equalIxNS_17__hash_value_typeIxmEEN6ripserI26compressed_distance_matrixIL24compressed_matrix_layout0EEE11equal_indexENS8_10entry_hashELb1EEEEC1B8ne180100IfNS_18__default_init_tagEEEOT_OT0_, symObjAddr: 0x2F624, symBinAddr: 0x1000321BC, symSize: 0x3C }
  - { offset: 0x48EF1, size: 0x8, addend: 0x0, symName: __ZNSt3__117__compressed_pairImNS_22__unordered_map_hasherIxNS_17__hash_value_typeIxmEEN6ripserI26compressed_distance_matrixIL24compressed_matrix_layout0EEE10entry_hashENS8_11equal_indexELb1EEEEC2B8ne180100IiNS_18__default_init_tagEEEOT_OT0_, symObjAddr: 0x2F660, symBinAddr: 0x1000321F8, symSize: 0x40 }
  - { offset: 0x48F49, size: 0x8, addend: 0x0, symName: __ZNSt3__122__compressed_pair_elemINS_22__unordered_map_hasherIxNS_17__hash_value_typeIxmEEN6ripserI26compressed_distance_matrixIL24compressed_matrix_layout0EEE10entry_hashENS8_11equal_indexELb1EEELi1ELb1EEC2B8ne180100ENS_18__default_init_tagE, symObjAddr: 0x2F6A0, symBinAddr: 0x100032238, symSize: 0x2C }
  - { offset: 0x48F7D, size: 0x8, addend: 0x0, symName: __ZNSt3__122__unordered_map_hasherIxNS_17__hash_value_typeIxmEEN6ripserI26compressed_distance_matrixIL24compressed_matrix_layout0EEE10entry_hashENS7_11equal_indexELb1EEC2B8ne180100Ev, symObjAddr: 0x2F6CC, symBinAddr: 0x100032264, symSize: 0x14 }
  - { offset: 0x48FA7, size: 0x8, addend: 0x0, symName: __ZNSt3__117__compressed_pairIfNS_21__unordered_map_equalIxNS_17__hash_value_typeIxmEEN6ripserI26compressed_distance_matrixIL24compressed_matrix_layout0EEE11equal_indexENS8_10entry_hashELb1EEEEC2B8ne180100IfNS_18__default_init_tagEEEOT_OT0_, symObjAddr: 0x2F6E0, symBinAddr: 0x100032278, symSize: 0x40 }
  - { offset: 0x48FFF, size: 0x8, addend: 0x0, symName: __ZNSt3__122__compressed_pair_elemINS_21__unordered_map_equalIxNS_17__hash_value_typeIxmEEN6ripserI26compressed_distance_matrixIL24compressed_matrix_layout0EEE11equal_indexENS8_10entry_hashELb1EEELi1ELb1EEC2B8ne180100ENS_18__default_init_tagE, symObjAddr: 0x2F720, symBinAddr: 0x1000322B8, symSize: 0x2C }
  - { offset: 0x49033, size: 0x8, addend: 0x0, symName: __ZNSt3__121__unordered_map_equalIxNS_17__hash_value_typeIxmEEN6ripserI26compressed_distance_matrixIL24compressed_matrix_layout0EEE11equal_indexENS7_10entry_hashELb1EEC2B8ne180100Ev, symObjAddr: 0x2F74C, symBinAddr: 0x1000322E4, symSize: 0x14 }
  - { offset: 0x4905D, size: 0x8, addend: 0x0, symName: __ZNSt3__112__hash_tableINS_17__hash_value_typeIxmEENS_22__unordered_map_hasherIxS2_N6ripserI26compressed_distance_matrixIL24compressed_matrix_layout0EEE10entry_hashENS8_11equal_indexELb1EEENS_21__unordered_map_equalIxS2_SA_S9_Lb1EEENS_9allocatorIS2_EEE16__reserve_uniqueB8ne180100Em, symObjAddr: 0x2F760, symBinAddr: 0x1000322F8, symSize: 0x58 }
  - { offset: 0x49092, size: 0x8, addend: 0x0, symName: __ZNSt3__112__hash_tableINS_17__hash_value_typeIxmEENS_22__unordered_map_hasherIxS2_N6ripserI26compressed_distance_matrixIL24compressed_matrix_layout0EEE10entry_hashENS8_11equal_indexELb1EEENS_21__unordered_map_equalIxS2_SA_S9_Lb1EEENS_9allocatorIS2_EEE15__rehash_uniqueB8ne180100Em, symObjAddr: 0x2F7B8, symBinAddr: 0x100032350, symSize: 0x2C }
  - { offset: 0x490C7, size: 0x8, addend: 0x0, symName: __ZNSt3__112__hash_tableINS_17__hash_value_typeIxmEENS_22__unordered_map_hasherIxS2_N6ripserI26compressed_distance_matrixIL24compressed_matrix_layout0EEE10entry_hashENS8_11equal_indexELb1EEENS_21__unordered_map_equalIxS2_SA_S9_Lb1EEENS_9allocatorIS2_EEE15max_load_factorB8ne180100Ev, symObjAddr: 0x2F7E4, symBinAddr: 0x10003237C, symSize: 0x28 }
  - { offset: 0x490ED, size: 0x8, addend: 0x0, symName: __ZNSt3__112__hash_tableINS_17__hash_value_typeIxmEENS_22__unordered_map_hasherIxS2_N6ripserI26compressed_distance_matrixIL24compressed_matrix_layout0EEE10entry_hashENS8_11equal_indexELb1EEENS_21__unordered_map_equalIxS2_SA_S9_Lb1EEENS_9allocatorIS2_EEE8__rehashILb1EEEvm, symObjAddr: 0x2F80C, symBinAddr: 0x1000323A4, symSize: 0x1A8 }
  - { offset: 0x4913D, size: 0x8, addend: 0x0, symName: __ZNKSt3__112__hash_tableINS_17__hash_value_typeIxmEENS_22__unordered_map_hasherIxS2_N6ripserI26compressed_distance_matrixIL24compressed_matrix_layout0EEE10entry_hashENS8_11equal_indexELb1EEENS_21__unordered_map_equalIxS2_SA_S9_Lb1EEENS_9allocatorIS2_EEE12bucket_countB8ne180100Ev, symObjAddr: 0x2F9B4, symBinAddr: 0x10003254C, symSize: 0x28 }
  - { offset: 0x49163, size: 0x8, addend: 0x0, symName: __ZNSt3__112__hash_tableINS_17__hash_value_typeIxmEENS_22__unordered_map_hasherIxS2_N6ripserI26compressed_distance_matrixIL24compressed_matrix_layout0EEE10entry_hashENS8_11equal_indexELb1EEENS_21__unordered_map_equalIxS2_SA_S9_Lb1EEENS_9allocatorIS2_EEE11__do_rehashILb1EEEvm, symObjAddr: 0x2F9DC, symBinAddr: 0x100032574, symSize: 0x288 }
  - { offset: 0x49246, size: 0x8, addend: 0x0, symName: __ZNSt3__112__hash_tableINS_17__hash_value_typeIxmEENS_22__unordered_map_hasherIxS2_N6ripserI26compressed_distance_matrixIL24compressed_matrix_layout0EEE10entry_hashENS8_11equal_indexELb1EEENS_21__unordered_map_equalIxS2_SA_S9_Lb1EEENS_9allocatorIS2_EEE4sizeB8ne180100Ev, symObjAddr: 0x2FC64, symBinAddr: 0x1000327FC, symSize: 0x28 }
  - { offset: 0x4926C, size: 0x8, addend: 0x0, symName: __ZNSt3__117__compressed_pairImNS_22__unordered_map_hasherIxNS_17__hash_value_typeIxmEEN6ripserI26compressed_distance_matrixIL24compressed_matrix_layout0EEE10entry_hashENS8_11equal_indexELb1EEEE5firstB8ne180100Ev, symObjAddr: 0x2FC8C, symBinAddr: 0x100032824, symSize: 0x24 }
  - { offset: 0x49292, size: 0x8, addend: 0x0, symName: __ZNSt3__117__compressed_pairIfNS_21__unordered_map_equalIxNS_17__hash_value_typeIxmEEN6ripserI26compressed_distance_matrixIL24compressed_matrix_layout0EEE11equal_indexENS8_10entry_hashELb1EEEE5firstB8ne180100Ev, symObjAddr: 0x2FCB0, symBinAddr: 0x100032848, symSize: 0x24 }
  - { offset: 0x492B8, size: 0x8, addend: 0x0, symName: __ZNSt3__113unordered_mapIxmN6ripserI26compressed_distance_matrixIL24compressed_matrix_layout0EEE10entry_hashENS5_11equal_indexENS_9allocatorINS_4pairIKxmEEEEE4findB8ne180100ERSA_, symObjAddr: 0x2FFD0, symBinAddr: 0x100032B68, symSize: 0x40 }
  - { offset: 0x492ED, size: 0x8, addend: 0x0, symName: __ZNSt3__113unordered_mapIxmN6ripserI26compressed_distance_matrixIL24compressed_matrix_layout0EEE10entry_hashENS5_11equal_indexENS_9allocatorINS_4pairIKxmEEEEE3endB8ne180100Ev, symObjAddr: 0x30010, symBinAddr: 0x100032BA8, symSize: 0x38 }
  - { offset: 0x49313, size: 0x8, addend: 0x0, symName: __ZN6ripserI26compressed_distance_matrixIL24compressed_matrix_layout0EEE14add_coboundaryINSt3__114priority_queueI16diameter_entry_tNS5_6vectorIS7_NS5_9allocatorIS7_EEEE38greater_diameter_or_smaller_index_compIS7_EEEEEvR24compressed_sparse_matrixIS7_ERKNS8_INS5_4pairIfxEENS9_ISJ_EEEEmtRKmRT_SR_, symObjAddr: 0x30048, symBinAddr: 0x100032BE0, symSize: 0x164 }
  - { offset: 0x49410, size: 0x8, addend: 0x0, symName: __ZN6ripserI26compressed_distance_matrixIL24compressed_matrix_layout0EEE9get_pivotINSt3__114priority_queueI16diameter_entry_tNS5_6vectorIS7_NS5_9allocatorIS7_EEEE38greater_diameter_or_smaller_index_compIS7_EEEEES7_RT_, symObjAddr: 0x301AC, symBinAddr: 0x100032D44, symSize: 0x68 }
  - { offset: 0x4945D, size: 0x8, addend: 0x0, symName: __ZN6ripserI26compressed_distance_matrixIL24compressed_matrix_layout0EEE23get_zero_apparent_facetE16diameter_entry_tx, symObjAddr: 0x30214, symBinAddr: 0x100032DAC, symSize: 0xF0 }
  - { offset: 0x494B0, size: 0x8, addend: 0x0, symName: __ZNSt3__113unordered_mapIxmN6ripserI26compressed_distance_matrixIL24compressed_matrix_layout0EEE10entry_hashENS5_11equal_indexENS_9allocatorINS_4pairIKxmEEEEE6insertB8ne180100EOSB_, symObjAddr: 0x3047C, symBinAddr: 0x100033014, symSize: 0x4C }
  - { offset: 0x494E5, size: 0x8, addend: 0x0, symName: __ZN6ripserI26compressed_distance_matrixIL24compressed_matrix_layout0EEE9pop_pivotINSt3__114priority_queueI16diameter_entry_tNS5_6vectorIS7_NS5_9allocatorIS7_EEEE38greater_diameter_or_smaller_index_compIS7_EEEEES7_RT_, symObjAddr: 0x304C8, symBinAddr: 0x100033060, symSize: 0xDC }
  - { offset: 0x49532, size: 0x8, addend: 0x0, symName: __ZNSt3__112__hash_tableINS_17__hash_value_typeIxmEENS_22__unordered_map_hasherIxS2_N6ripserI26compressed_distance_matrixIL24compressed_matrix_layout0EEE10entry_hashENS8_11equal_indexELb1EEENS_21__unordered_map_equalIxS2_SA_S9_Lb1EEENS_9allocatorIS2_EEE4findIxEENS_15__hash_iteratorIPNS_11__hash_nodeIS2_PvEEEERKT_, symObjAddr: 0x305A4, symBinAddr: 0x10003313C, symSize: 0x1B0 }
  - { offset: 0x495BC, size: 0x8, addend: 0x0, symName: __ZNSt3__112__hash_tableINS_17__hash_value_typeIxmEENS_22__unordered_map_hasherIxS2_N6ripserI26compressed_distance_matrixIL24compressed_matrix_layout0EEE10entry_hashENS8_11equal_indexELb1EEENS_21__unordered_map_equalIxS2_SA_S9_Lb1EEENS_9allocatorIS2_EEE13hash_functionB8ne180100Ev, symObjAddr: 0x30754, symBinAddr: 0x1000332EC, symSize: 0x28 }
  - { offset: 0x495E2, size: 0x8, addend: 0x0, symName: __ZNKSt3__122__unordered_map_hasherIxNS_17__hash_value_typeIxmEEN6ripserI26compressed_distance_matrixIL24compressed_matrix_layout0EEE10entry_hashENS7_11equal_indexELb1EEclB8ne180100ERKx, symObjAddr: 0x3077C, symBinAddr: 0x100033314, symSize: 0x2C }
  - { offset: 0x49617, size: 0x8, addend: 0x0, symName: __ZNSt3__112__hash_tableINS_17__hash_value_typeIxmEENS_22__unordered_map_hasherIxS2_N6ripserI26compressed_distance_matrixIL24compressed_matrix_layout0EEE10entry_hashENS8_11equal_indexELb1EEENS_21__unordered_map_equalIxS2_SA_S9_Lb1EEENS_9allocatorIS2_EEE6key_eqB8ne180100Ev, symObjAddr: 0x307A8, symBinAddr: 0x100033340, symSize: 0x28 }
  - { offset: 0x4963D, size: 0x8, addend: 0x0, symName: __ZNKSt3__121__unordered_map_equalIxNS_17__hash_value_typeIxmEEN6ripserI26compressed_distance_matrixIL24compressed_matrix_layout0EEE11equal_indexENS7_10entry_hashELb1EEclB8ne180100ERKS2_RKx, symObjAddr: 0x307D0, symBinAddr: 0x100033368, symSize: 0x48 }
  - { offset: 0x49681, size: 0x8, addend: 0x0, symName: __ZNSt3__112__hash_tableINS_17__hash_value_typeIxmEENS_22__unordered_map_hasherIxS2_N6ripserI26compressed_distance_matrixIL24compressed_matrix_layout0EEE10entry_hashENS8_11equal_indexELb1EEENS_21__unordered_map_equalIxS2_SA_S9_Lb1EEENS_9allocatorIS2_EEE3endEv, symObjAddr: 0x30818, symBinAddr: 0x1000333B0, symSize: 0x2C }
  - { offset: 0x496A9, size: 0x8, addend: 0x0, symName: __ZNSt3__117__compressed_pairImNS_22__unordered_map_hasherIxNS_17__hash_value_typeIxmEEN6ripserI26compressed_distance_matrixIL24compressed_matrix_layout0EEE10entry_hashENS8_11equal_indexELb1EEEE6secondB8ne180100Ev, symObjAddr: 0x30844, symBinAddr: 0x1000333DC, symSize: 0x24 }
  - { offset: 0x496CF, size: 0x8, addend: 0x0, symName: __ZNSt3__122__compressed_pair_elemINS_22__unordered_map_hasherIxNS_17__hash_value_typeIxmEEN6ripserI26compressed_distance_matrixIL24compressed_matrix_layout0EEE10entry_hashENS8_11equal_indexELb1EEELi1ELb1EE5__getB8ne180100Ev, symObjAddr: 0x30868, symBinAddr: 0x100033400, symSize: 0x14 }
  - { offset: 0x496F5, size: 0x8, addend: 0x0, symName: __ZNK6ripserI26compressed_distance_matrixIL24compressed_matrix_layout0EEE10entry_hashclERKx, symObjAddr: 0x3087C, symBinAddr: 0x100033414, symSize: 0x34 }
  - { offset: 0x4972A, size: 0x8, addend: 0x0, symName: __ZNSt3__117__compressed_pairIfNS_21__unordered_map_equalIxNS_17__hash_value_typeIxmEEN6ripserI26compressed_distance_matrixIL24compressed_matrix_layout0EEE11equal_indexENS8_10entry_hashELb1EEEE6secondB8ne180100Ev, symObjAddr: 0x308B0, symBinAddr: 0x100033448, symSize: 0x24 }
  - { offset: 0x49750, size: 0x8, addend: 0x0, symName: __ZNSt3__122__compressed_pair_elemINS_21__unordered_map_equalIxNS_17__hash_value_typeIxmEEN6ripserI26compressed_distance_matrixIL24compressed_matrix_layout0EEE11equal_indexENS8_10entry_hashELb1EEELi1ELb1EE5__getB8ne180100Ev, symObjAddr: 0x308D4, symBinAddr: 0x10003346C, symSize: 0x14 }
  - { offset: 0x49776, size: 0x8, addend: 0x0, symName: __ZNK6ripserI26compressed_distance_matrixIL24compressed_matrix_layout0EEE11equal_indexclERKxS6_, symObjAddr: 0x308E8, symBinAddr: 0x100033480, symSize: 0x4C }
  - { offset: 0x497BA, size: 0x8, addend: 0x0, symName: __ZNSt3__112__hash_tableINS_17__hash_value_typeIxmEENS_22__unordered_map_hasherIxS2_N6ripserI26compressed_distance_matrixIL24compressed_matrix_layout0EEE10entry_hashENS8_11equal_indexELb1EEENS_21__unordered_map_equalIxS2_SA_S9_Lb1EEENS_9allocatorIS2_EEE15__insert_uniqueB8ne180100EONS_4pairIKxmEE, symObjAddr: 0x30934, symBinAddr: 0x1000334CC, symSize: 0x50 }
  - { offset: 0x497EF, size: 0x8, addend: 0x0, symName: __ZNSt3__112__hash_tableINS_17__hash_value_typeIxmEENS_22__unordered_map_hasherIxS2_N6ripserI26compressed_distance_matrixIL24compressed_matrix_layout0EEE10entry_hashENS8_11equal_indexELb1EEENS_21__unordered_map_equalIxS2_SA_S9_Lb1EEENS_9allocatorIS2_EEE25__emplace_unique_key_argsIxJNS_4pairIKxmEEEEENSI_INS_15__hash_iteratorIPNS_11__hash_nodeIS2_PvEEEEbEERKT_DpOT0_, symObjAddr: 0x30984, symBinAddr: 0x10003351C, symSize: 0x4A0 }
  - { offset: 0x498CF, size: 0x8, addend: 0x0, symName: __ZNSt3__112__hash_tableINS_17__hash_value_typeIxmEENS_22__unordered_map_hasherIxS2_N6ripserI26compressed_distance_matrixIL24compressed_matrix_layout0EEE10entry_hashENS8_11equal_indexELb1EEENS_21__unordered_map_equalIxS2_SA_S9_Lb1EEENS_9allocatorIS2_EEE21__construct_node_hashINS_4pairIKxmEEJEEENS_10unique_ptrINS_11__hash_nodeIS2_PvEENS_22__hash_node_destructorINSE_ISO_EEEEEEmOT_DpOT0_, symObjAddr: 0x30E24, symBinAddr: 0x1000339BC, symSize: 0x130 }
  - { offset: 0x49942, size: 0x8, addend: 0x0, symName: __ZNSt3__112__hash_tableINS_17__hash_value_typeIxmEENS_22__unordered_map_hasherIxS2_N6ripserI26compressed_distance_matrixIL24compressed_matrix_layout0EEE10entry_hashENS8_11equal_indexELb1EEENS_21__unordered_map_equalIxS2_SA_S9_Lb1EEENS_9allocatorIS2_EEE12__node_allocB8ne180100Ev, symObjAddr: 0x30F54, symBinAddr: 0x100033AEC, symSize: 0x28 }
  - { offset: 0x49968, size: 0x8, addend: 0x0, symName: __ZN6ripserI26compressed_distance_matrixIL24compressed_matrix_layout0EEE24is_in_zero_apparent_pairE16diameter_entry_tx, symObjAddr: 0x30F7C, symBinAddr: 0x100033B14, symSize: 0xBC }
  - { offset: 0x499AC, size: 0x8, addend: 0x0, symName: __ZNSt3__113unordered_mapIxmN6ripserI26compressed_distance_matrixIL24compressed_matrix_layout0EEE10entry_hashENS5_11equal_indexENS_9allocatorINS_4pairIKxmEEEEED2B8ne180100Ev, symObjAddr: 0x31038, symBinAddr: 0x100033BD0, symSize: 0x2C }
  - { offset: 0x499D6, size: 0x8, addend: 0x0, symName: __ZNSt3__112__hash_tableINS_17__hash_value_typeIxmEENS_22__unordered_map_hasherIxS2_N6ripserI26compressed_distance_matrixIL24compressed_matrix_layout0EEE10entry_hashENS8_11equal_indexELb1EEENS_21__unordered_map_equalIxS2_SA_S9_Lb1EEENS_9allocatorIS2_EEED1Ev, symObjAddr: 0x31064, symBinAddr: 0x100033BFC, symSize: 0x2C }
  - { offset: 0x49A02, size: 0x8, addend: 0x0, symName: __ZNSt3__112__hash_tableINS_17__hash_value_typeIxmEENS_22__unordered_map_hasherIxS2_N6ripserI26compressed_distance_matrixIL24compressed_matrix_layout0EEE10entry_hashENS8_11equal_indexELb1EEENS_21__unordered_map_equalIxS2_SA_S9_Lb1EEENS_9allocatorIS2_EEED2Ev, symObjAddr: 0x31090, symBinAddr: 0x100033C28, symSize: 0x48 }
  - { offset: 0x49A2E, size: 0x8, addend: 0x0, symName: __ZNSt3__112__hash_tableINS_17__hash_value_typeIxmEENS_22__unordered_map_hasherIxS2_N6ripserI26compressed_distance_matrixIL24compressed_matrix_layout0EEE10entry_hashENS8_11equal_indexELb1EEENS_21__unordered_map_equalIxS2_SA_S9_Lb1EEENS_9allocatorIS2_EEE17__deallocate_nodeEPNS_16__hash_node_baseIPNS_11__hash_nodeIS2_PvEEEE, symObjAddr: 0x310D8, symBinAddr: 0x100033C70, symSize: 0xA8 }
  - { offset: 0x49A98, size: 0x8, addend: 0x0, symName: __ZN22sparse_distance_matrixC2I26compressed_distance_matrixIL24compressed_matrix_layout0EEEERKT_f, symObjAddr: 0x31180, symBinAddr: 0x100033D18, symSize: 0x180 }
...
